ARM GAS  C:\Users\root\AppData\Local\Temp\ccjNHqBU.s 			page 1


   1              		.cpu cortex-m7
   2              		.eabi_attribute 28, 1
   3              		.eabi_attribute 20, 1
   4              		.eabi_attribute 21, 1
   5              		.eabi_attribute 23, 3
   6              		.eabi_attribute 24, 1
   7              		.eabi_attribute 25, 1
   8              		.eabi_attribute 26, 1
   9              		.eabi_attribute 30, 1
  10              		.eabi_attribute 34, 1
  11              		.eabi_attribute 18, 4
  12              		.file	"ad5940.c"
  13              		.text
  14              	.Ltext0:
  15              		.cfi_sections	.debug_frame
  16              		.section	.text.AD5940_SEQGenSearchReg,"ax",%progbits
  17              		.align	1
  18              		.arch armv7e-m
  19              		.syntax unified
  20              		.thumb
  21              		.thumb_func
  22              		.fpu fpv5-d16
  24              	AD5940_SEQGenSearchReg:
  25              	.LVL0:
  26              	.LFB4:
  27              		.file 1 "ad5940lib/ad5940.c"
   1:ad5940lib/ad5940.c **** /**  
   2:ad5940lib/ad5940.c ****  * @file       ad5940.c
   3:ad5940lib/ad5940.c ****  * @brief      AD5940 library. This file contains all AD5940 library functions. 
   4:ad5940lib/ad5940.c ****  * @author     ADI
   5:ad5940lib/ad5940.c ****  * @date       March 2019
   6:ad5940lib/ad5940.c ****  * @par Revision History:
   7:ad5940lib/ad5940.c ****  * 
   8:ad5940lib/ad5940.c ****  * Copyright (c) 2017-2019 Analog Devices, Inc. All Rights Reserved.
   9:ad5940lib/ad5940.c ****  * 
  10:ad5940lib/ad5940.c ****  * This software is proprietary to Analog Devices, Inc. and its licensors.
  11:ad5940lib/ad5940.c ****  * By using this software you agree to the terms of the associated
  12:ad5940lib/ad5940.c ****  * Analog Devices Software License Agreement.
  13:ad5940lib/ad5940.c **** **/
  14:ad5940lib/ad5940.c **** #include "ad5940.h"
  15:ad5940lib/ad5940.c **** 
  16:ad5940lib/ad5940.c **** /*! \mainpage AD5940 Library Introduction
  17:ad5940lib/ad5940.c ****  * 
  18:ad5940lib/ad5940.c ****  * ![AD5940 EVAL Board](https://www.analog.com/-/media/analog/en/evaluation-board-images/images/eva
  19:ad5940lib/ad5940.c ****  * 
  20:ad5940lib/ad5940.c ****  * # Introduction
  21:ad5940lib/ad5940.c ****  *
  22:ad5940lib/ad5940.c ****  * The documentation is for AD594x library and examples.
  23:ad5940lib/ad5940.c ****  * 
  24:ad5940lib/ad5940.c ****  * # Manual Structure
  25:ad5940lib/ad5940.c ****  *
  26:ad5940lib/ad5940.c ****  * @ref AD5940_Library                                                      
  27:ad5940lib/ad5940.c ****  *  - @ref AD5940_Functions                                                 
  28:ad5940lib/ad5940.c ****  *  - @ref TypeDefinitions                                                    
  29:ad5940lib/ad5940.c ****  * @ref AD5940_Standard_Examples                                            
  30:ad5940lib/ad5940.c ****  * @ref AD5940_System_Examples	                                            
  31:ad5940lib/ad5940.c ****  * 
ARM GAS  C:\Users\root\AppData\Local\Temp\ccjNHqBU.s 			page 2


  32:ad5940lib/ad5940.c ****  * # How to Use It
  33:ad5940lib/ad5940.c ****  *  We provide examples that can directly run out of box.
  34:ad5940lib/ad5940.c ****  *  The files can generally be separated to three parts:
  35:ad5940lib/ad5940.c ****  *    - AD5940 Library files. ad5940.c and ad5940.h specifically. These two files are shared among 
  36:ad5940lib/ad5940.c ****  *    - AD5940 System Examples. The system examples mean system level application like measuring im
  37:ad5940lib/ad5940.c ****  *    - Standard examples. These include basic block level examples like ADC. It shows how to setup
  38:ad5940lib/ad5940.c ****  * 
  39:ad5940lib/ad5940.c ****  * ## Requirements to run these examples
  40:ad5940lib/ad5940.c ****  *  ### Hardware
  41:ad5940lib/ad5940.c ****  *  - Use EVAL_AD5940 or EVAL_AD5941. The default MCU board we used is ADICUP3029. We also provide 
  42:ad5940lib/ad5940.c ****  *  - Or use EVAL_ADuCM355
  43:ad5940lib/ad5940.c ****  *  ### Software
  44:ad5940lib/ad5940.c ****  *  - Pull all the source file from [GitHub](https://github.com/analogdevicesinc/ad5940-examples.gi
  45:ad5940lib/ad5940.c ****  *  - CMSIS pack that related to specific MCU. This normally is done by IDE you use.
  46:ad5940lib/ad5940.c ****  * 
  47:ad5940lib/ad5940.c ****  * ## Materials
  48:ad5940lib/ad5940.c ****  *      Please use this library together with following materials.
  49:ad5940lib/ad5940.c ****  *      - [AD5940 Data Sheet](https://www.analog.com/media/en/technical-documentation/data-sheets/A
  50:ad5940lib/ad5940.c ****  *      - [AD5940 Eval Board](https://www.analog.com/en/design-center/evaluation-hardware-and-softw
  51:ad5940lib/ad5940.c ****  *
  52:ad5940lib/ad5940.c ****  */
  53:ad5940lib/ad5940.c **** 
  54:ad5940lib/ad5940.c **** /* Remove below variables after AD594x is released. */
  55:ad5940lib/ad5940.c **** static BoolFlag bIsS2silicon = bFALSE;
  56:ad5940lib/ad5940.c **** 
  57:ad5940lib/ad5940.c **** /* Declare of SPI functions used to read/write registers */
  58:ad5940lib/ad5940.c **** #ifndef CHIPSEL_M355
  59:ad5940lib/ad5940.c **** static uint32_t AD5940_SPIReadReg(uint16_t RegAddr);
  60:ad5940lib/ad5940.c **** static void AD5940_SPIWriteReg(uint16_t RegAddr, uint32_t RegData);
  61:ad5940lib/ad5940.c **** #else
  62:ad5940lib/ad5940.c **** static uint32_t AD5940_D2DReadReg(uint16_t RegAddr);
  63:ad5940lib/ad5940.c **** static void AD5940_D2DWriteReg(uint16_t RegAddr, uint32_t RegData);
  64:ad5940lib/ad5940.c **** #endif
  65:ad5940lib/ad5940.c **** 
  66:ad5940lib/ad5940.c **** /** 
  67:ad5940lib/ad5940.c ****  * @addtogroup AD5940_Library
  68:ad5940lib/ad5940.c ****  *  The library functions, structures and constants.
  69:ad5940lib/ad5940.c ****  * @{
  70:ad5940lib/ad5940.c ****  *    @defgroup AD5940_Functions
  71:ad5940lib/ad5940.c ****  *    @{
  72:ad5940lib/ad5940.c ****  *        @defgroup Function_Helpers
  73:ad5940lib/ad5940.c ****  *        @brief The functions with no hardware access. They are helpers.
  74:ad5940lib/ad5940.c ****  *        @{
  75:ad5940lib/ad5940.c ****  *            @defgroup Sequencer_Generator_Functions
  76:ad5940lib/ad5940.c ****  *            @brief The set of function used to track all register read and write once it's enable
  77:ad5940lib/ad5940.c ****  *            @{
  78:ad5940lib/ad5940.c **** */
  79:ad5940lib/ad5940.c **** 
  80:ad5940lib/ad5940.c **** #define SEQUENCE_GENERATOR  /*!< Build sequence generator part in to lib. Comment this line to remo
  81:ad5940lib/ad5940.c **** 
  82:ad5940lib/ad5940.c **** #ifdef SEQUENCE_GENERATOR
  83:ad5940lib/ad5940.c **** /**
  84:ad5940lib/ad5940.c ****  * Structure used to store register information(address and its data) 
  85:ad5940lib/ad5940.c ****  * */
  86:ad5940lib/ad5940.c **** typedef struct
  87:ad5940lib/ad5940.c **** {
  88:ad5940lib/ad5940.c ****   uint32_t RegAddr  :8;   /**< 8bit address is enough for sequencer */
ARM GAS  C:\Users\root\AppData\Local\Temp\ccjNHqBU.s 			page 3


  89:ad5940lib/ad5940.c ****   uint32_t RegValue :24;  /**< Reg data is limited to 24bit by sequencer  */
  90:ad5940lib/ad5940.c **** }SEQGenRegInfo_Type;
  91:ad5940lib/ad5940.c **** 
  92:ad5940lib/ad5940.c **** /**
  93:ad5940lib/ad5940.c ****  * Sequencer generator data base.
  94:ad5940lib/ad5940.c **** */
  95:ad5940lib/ad5940.c **** struct
  96:ad5940lib/ad5940.c **** {
  97:ad5940lib/ad5940.c ****   BoolFlag EngineStart;         /**< Flag to mark start of the generator */
  98:ad5940lib/ad5940.c ****   uint32_t BufferSize;          /**< Total buffer size */
  99:ad5940lib/ad5940.c **** 
 100:ad5940lib/ad5940.c ****   uint32_t *pSeqBuff;           /**< The buffer for sequence generator(both sequences and RegInfo) 
 101:ad5940lib/ad5940.c ****   uint32_t SeqLen;              /**< Generated sequence length till now */
 102:ad5940lib/ad5940.c ****   SEQGenRegInfo_Type *pRegInfo; /**< Pointer to buffer where stores register info */
 103:ad5940lib/ad5940.c ****   uint32_t RegCount;            /**< The count of register info available in buffer *pRegInfo. */
 104:ad5940lib/ad5940.c ****   AD5940Err LastError;          /**< The last error message. */
 105:ad5940lib/ad5940.c **** }SeqGenDB;  /* Data base of Seq Generator */
 106:ad5940lib/ad5940.c **** 
 107:ad5940lib/ad5940.c **** /**
 108:ad5940lib/ad5940.c ****  * @brief Manually input a command to sequencer generator.
 109:ad5940lib/ad5940.c ****  * @param CmdWord: The 32-bit width sequencer command word. @ref Sequencer_Helper can be used to ge
 110:ad5940lib/ad5940.c ****  * @return None;
 111:ad5940lib/ad5940.c **** */
 112:ad5940lib/ad5940.c **** void AD5940_SEQGenInsert(uint32_t CmdWord)
 113:ad5940lib/ad5940.c **** {
 114:ad5940lib/ad5940.c ****   uint32_t temp;
 115:ad5940lib/ad5940.c ****   temp  = SeqGenDB.RegCount + SeqGenDB.SeqLen;
 116:ad5940lib/ad5940.c ****   /* Generate Sequence command */
 117:ad5940lib/ad5940.c ****   if(temp < SeqGenDB.BufferSize)
 118:ad5940lib/ad5940.c ****   {
 119:ad5940lib/ad5940.c ****     SeqGenDB.pSeqBuff[SeqGenDB.SeqLen] = CmdWord;
 120:ad5940lib/ad5940.c ****     SeqGenDB.SeqLen ++;
 121:ad5940lib/ad5940.c ****   }
 122:ad5940lib/ad5940.c ****   else  /* There is no buffer */
 123:ad5940lib/ad5940.c ****     SeqGenDB.LastError = AD5940ERR_BUFF;
 124:ad5940lib/ad5940.c **** }
 125:ad5940lib/ad5940.c **** 
 126:ad5940lib/ad5940.c **** /**
 127:ad5940lib/ad5940.c ****  * @brief Search data-base to get current register value.
 128:ad5940lib/ad5940.c ****  * @param RegAddr: The register address.
 129:ad5940lib/ad5940.c ****  * @param pIndex: Pointer to a variable that used to store index of found register-info.
 130:ad5940lib/ad5940.c ****  * @return Return AD5940ERR_OK if register found in data-base. Otherwise return AD5940ERR_SEQREG.
 131:ad5940lib/ad5940.c **** */
 132:ad5940lib/ad5940.c **** static AD5940Err AD5940_SEQGenSearchReg(uint32_t RegAddr, uint32_t *pIndex)
 133:ad5940lib/ad5940.c **** {
  28              		.loc 1 133 1 view -0
  29              		.cfi_startproc
  30              		@ args = 0, pretend = 0, frame = 0
  31              		@ frame_needed = 0, uses_anonymous_args = 0
  32              		@ link register save eliminated.
 134:ad5940lib/ad5940.c ****   uint32_t i;
  33              		.loc 1 134 3 view .LVU1
 135:ad5940lib/ad5940.c **** 
 136:ad5940lib/ad5940.c ****   RegAddr = (RegAddr>>2)&0xff;
  34              		.loc 1 136 3 view .LVU2
  35              		.loc 1 136 11 is_stmt 0 view .LVU3
  36 0000 C0F38700 		ubfx	r0, r0, #2, #8
ARM GAS  C:\Users\root\AppData\Local\Temp\ccjNHqBU.s 			page 4


  37              	.LVL1:
 137:ad5940lib/ad5940.c ****   for(i=0;i<SeqGenDB.RegCount;i++)
  38              		.loc 1 137 3 is_stmt 1 view .LVU4
  39              		.loc 1 137 8 is_stmt 0 view .LVU5
  40 0004 0023     		movs	r3, #0
  41              	.LVL2:
  42              	.L2:
  43              		.loc 1 137 11 is_stmt 1 discriminator 1 view .LVU6
  44              		.loc 1 137 21 is_stmt 0 discriminator 1 view .LVU7
  45 0006 094A     		ldr	r2, .L8
  46 0008 5269     		ldr	r2, [r2, #20]
  47              		.loc 1 137 3 discriminator 1 view .LVU8
  48 000a 9A42     		cmp	r2, r3
  49 000c 0AD9     		bls	.L6
 138:ad5940lib/ad5940.c ****   {
 139:ad5940lib/ad5940.c ****     if(RegAddr == SeqGenDB.pRegInfo[i].RegAddr)
  50              		.loc 1 139 5 is_stmt 1 view .LVU9
  51              		.loc 1 139 27 is_stmt 0 view .LVU10
  52 000e 074A     		ldr	r2, .L8
  53 0010 1269     		ldr	r2, [r2, #16]
  54              		.loc 1 139 39 view .LVU11
  55 0012 12F82320 		ldrb	r2, [r2, r3, lsl #2]	@ zero_extendqisi2
  56              		.loc 1 139 7 view .LVU12
  57 0016 8242     		cmp	r2, r0
  58 0018 01D0     		beq	.L7
 137:ad5940lib/ad5940.c ****   for(i=0;i<SeqGenDB.RegCount;i++)
  59              		.loc 1 137 31 is_stmt 1 discriminator 2 view .LVU13
 137:ad5940lib/ad5940.c ****   for(i=0;i<SeqGenDB.RegCount;i++)
  60              		.loc 1 137 32 is_stmt 0 discriminator 2 view .LVU14
  61 001a 0133     		adds	r3, r3, #1
  62              	.LVL3:
 137:ad5940lib/ad5940.c ****   for(i=0;i<SeqGenDB.RegCount;i++)
  63              		.loc 1 137 32 discriminator 2 view .LVU15
  64 001c F3E7     		b	.L2
  65              	.L7:
 140:ad5940lib/ad5940.c ****     {
 141:ad5940lib/ad5940.c ****       *pIndex = i;
  66              		.loc 1 141 7 is_stmt 1 view .LVU16
  67              		.loc 1 141 15 is_stmt 0 view .LVU17
  68 001e 0B60     		str	r3, [r1]
 142:ad5940lib/ad5940.c ****       return AD5940ERR_OK;
  69              		.loc 1 142 7 is_stmt 1 view .LVU18
  70              		.loc 1 142 14 is_stmt 0 view .LVU19
  71 0020 0020     		movs	r0, #0
  72              	.LVL4:
  73              		.loc 1 142 14 view .LVU20
  74 0022 7047     		bx	lr
  75              	.LVL5:
  76              	.L6:
 143:ad5940lib/ad5940.c ****     }
 144:ad5940lib/ad5940.c ****   }
 145:ad5940lib/ad5940.c ****   return AD5940ERR_SEQREG;
  77              		.loc 1 145 10 view .LVU21
  78 0024 6FF00600 		mvn	r0, #6
  79              	.LVL6:
 146:ad5940lib/ad5940.c **** }
  80              		.loc 1 146 1 view .LVU22
ARM GAS  C:\Users\root\AppData\Local\Temp\ccjNHqBU.s 			page 5


  81 0028 7047     		bx	lr
  82              	.L9:
  83 002a 00BF     		.align	2
  84              	.L8:
  85 002c 00000000 		.word	SeqGenDB
  86              		.cfi_endproc
  87              	.LFE4:
  89              		.section	.text.AD5940_SEQRegInfoInsert,"ax",%progbits
  90              		.align	1
  91              		.syntax unified
  92              		.thumb
  93              		.thumb_func
  94              		.fpu fpv5-d16
  96              	AD5940_SEQRegInfoInsert:
  97              	.LVL7:
  98              	.LFB6:
 147:ad5940lib/ad5940.c **** 
 148:ad5940lib/ad5940.c **** /**
 149:ad5940lib/ad5940.c ****  * @brief Get the register default value by SPI read. This function requires AD5940 is in active st
 150:ad5940lib/ad5940.c ****  * @param RegAddr: The register address.
 151:ad5940lib/ad5940.c ****  * @param pRegData: Pointer to a variable to store register default value.
 152:ad5940lib/ad5940.c ****  * @return Return AD5940ERR_OK.
 153:ad5940lib/ad5940.c **** */
 154:ad5940lib/ad5940.c **** static AD5940Err AD5940_SEQGenGetRegDefault(uint32_t RegAddr, uint32_t *pRegData)
 155:ad5940lib/ad5940.c **** {
 156:ad5940lib/ad5940.c **** #ifdef CHIPSEL_M355
 157:ad5940lib/ad5940.c ****   *pRegData = AD5940_D2DReadReg(RegAddr);
 158:ad5940lib/ad5940.c **** #else
 159:ad5940lib/ad5940.c ****   *pRegData = AD5940_SPIReadReg(RegAddr);
 160:ad5940lib/ad5940.c **** #endif
 161:ad5940lib/ad5940.c ****   return AD5940ERR_OK;
 162:ad5940lib/ad5940.c **** }
 163:ad5940lib/ad5940.c **** 
 164:ad5940lib/ad5940.c **** /**
 165:ad5940lib/ad5940.c ****  * @brief Record the current register info to data-base. Update LastError if there is error.
 166:ad5940lib/ad5940.c ****  * @param RegAddr: The register address.
 167:ad5940lib/ad5940.c ****  * @param RegData: The register data
 168:ad5940lib/ad5940.c ****  * @return Return None.
 169:ad5940lib/ad5940.c **** */
 170:ad5940lib/ad5940.c **** static void AD5940_SEQRegInfoInsert(uint16_t RegAddr, uint32_t RegData)
 171:ad5940lib/ad5940.c **** {
  99              		.loc 1 171 1 is_stmt 1 view -0
 100              		.cfi_startproc
 101              		@ args = 0, pretend = 0, frame = 0
 102              		@ frame_needed = 0, uses_anonymous_args = 0
 103              		@ link register save eliminated.
 104              		.loc 1 171 1 is_stmt 0 view .LVU24
 105 0000 10B4     		push	{r4}
 106              	.LCFI0:
 107              		.cfi_def_cfa_offset 4
 108              		.cfi_offset 4, -4
 172:ad5940lib/ad5940.c ****   uint32_t temp;
 109              		.loc 1 172 3 is_stmt 1 view .LVU25
 173:ad5940lib/ad5940.c ****   temp = SeqGenDB.RegCount + SeqGenDB.SeqLen;
 110              		.loc 1 173 3 view .LVU26
 111              		.loc 1 173 18 is_stmt 0 view .LVU27
 112 0002 0F4A     		ldr	r2, .L14
ARM GAS  C:\Users\root\AppData\Local\Temp\ccjNHqBU.s 			page 6


 113 0004 5369     		ldr	r3, [r2, #20]
 114              		.loc 1 173 38 view .LVU28
 115 0006 D468     		ldr	r4, [r2, #12]
 116              		.loc 1 173 8 view .LVU29
 117 0008 2344     		add	r3, r3, r4
 118              	.LVL8:
 174:ad5940lib/ad5940.c ****   
 175:ad5940lib/ad5940.c ****   if(temp < SeqGenDB.BufferSize)
 119              		.loc 1 175 3 is_stmt 1 view .LVU30
 120              		.loc 1 175 21 is_stmt 0 view .LVU31
 121 000a 5268     		ldr	r2, [r2, #4]
 122              		.loc 1 175 5 view .LVU32
 123 000c 9A42     		cmp	r2, r3
 124 000e 11D9     		bls	.L11
 176:ad5940lib/ad5940.c ****   {
 177:ad5940lib/ad5940.c ****     SeqGenDB.pRegInfo --; /* Move back */
 125              		.loc 1 177 5 is_stmt 1 view .LVU33
 126              		.loc 1 177 13 is_stmt 0 view .LVU34
 127 0010 0B4B     		ldr	r3, .L14
 128              	.LVL9:
 129              		.loc 1 177 13 view .LVU35
 130 0012 1A69     		ldr	r2, [r3, #16]
 131              		.loc 1 177 23 view .LVU36
 132 0014 141F     		subs	r4, r2, #4
 133              	.LVL10:
 134              		.loc 1 177 23 view .LVU37
 135 0016 1C61     		str	r4, [r3, #16]
 178:ad5940lib/ad5940.c ****     SeqGenDB.pRegInfo[0].RegAddr = (RegAddr>>2)&0xff;
 136              		.loc 1 178 5 is_stmt 1 view .LVU38
 137              		.loc 1 178 34 is_stmt 0 view .LVU39
 138 0018 8008     		lsrs	r0, r0, #2
 139              	.LVL11:
 140              		.loc 1 178 34 view .LVU40
 141 001a 02F8040C 		strb	r0, [r2, #-4]
 142              	.LVL12:
 179:ad5940lib/ad5940.c ****     SeqGenDB.pRegInfo[0].RegValue = RegData&0x00ffffff;
 143              		.loc 1 179 5 is_stmt 1 view .LVU41
 144              		.loc 1 179 13 is_stmt 0 view .LVU42
 145 001e 1A69     		ldr	r2, [r3, #16]
 146              		.loc 1 179 35 view .LVU43
 147 0020 1068     		ldr	r0, [r2]
 148 0022 61F31F20 		bfi	r0, r1, #8, #24
 149 0026 1060     		str	r0, [r2]
 180:ad5940lib/ad5940.c ****     SeqGenDB.RegCount ++;
 150              		.loc 1 180 5 is_stmt 1 view .LVU44
 151              		.loc 1 180 13 is_stmt 0 view .LVU45
 152 0028 5A69     		ldr	r2, [r3, #20]
 153              		.loc 1 180 23 view .LVU46
 154 002a 0132     		adds	r2, r2, #1
 155 002c 5A61     		str	r2, [r3, #20]
 156              	.L10:
 181:ad5940lib/ad5940.c ****   }
 182:ad5940lib/ad5940.c ****   else  /* There is no more buffer  */
 183:ad5940lib/ad5940.c ****   {
 184:ad5940lib/ad5940.c ****     SeqGenDB.LastError = AD5940ERR_BUFF;
 185:ad5940lib/ad5940.c ****   }
 186:ad5940lib/ad5940.c **** }
ARM GAS  C:\Users\root\AppData\Local\Temp\ccjNHqBU.s 			page 7


 157              		.loc 1 186 1 view .LVU47
 158 002e 5DF8044B 		ldr	r4, [sp], #4
 159              	.LCFI1:
 160              		.cfi_remember_state
 161              		.cfi_restore 4
 162              		.cfi_def_cfa_offset 0
 163 0032 7047     		bx	lr
 164              	.LVL13:
 165              	.L11:
 166              	.LCFI2:
 167              		.cfi_restore_state
 184:ad5940lib/ad5940.c ****   }
 168              		.loc 1 184 5 is_stmt 1 view .LVU48
 184:ad5940lib/ad5940.c ****   }
 169              		.loc 1 184 24 is_stmt 0 view .LVU49
 170 0034 024B     		ldr	r3, .L14
 171              	.LVL14:
 184:ad5940lib/ad5940.c ****   }
 172              		.loc 1 184 24 view .LVU50
 173 0036 6FF00302 		mvn	r2, #3
 174 003a 9A61     		str	r2, [r3, #24]
 175              		.loc 1 186 1 view .LVU51
 176 003c F7E7     		b	.L10
 177              	.L15:
 178 003e 00BF     		.align	2
 179              	.L14:
 180 0040 00000000 		.word	SeqGenDB
 181              		.cfi_endproc
 182              	.LFE6:
 184              		.section	.text._is_value_in_table,"ax",%progbits
 185              		.align	1
 186              		.syntax unified
 187              		.thumb
 188              		.thumb_func
 189              		.fpu fpv5-d16
 191              	_is_value_in_table:
 192              	.LVL15:
 193              	.LFB13:
 187:ad5940lib/ad5940.c **** 
 188:ad5940lib/ad5940.c **** /**
 189:ad5940lib/ad5940.c ****  * @brief Get current register value. If we have record in data-base, read it. Otherwise, return th
 190:ad5940lib/ad5940.c ****  * @param RegAddr: The register address.
 191:ad5940lib/ad5940.c ****  * @return Return register value.
 192:ad5940lib/ad5940.c **** */
 193:ad5940lib/ad5940.c **** static uint32_t AD5940_SEQReadReg(uint16_t RegAddr)
 194:ad5940lib/ad5940.c **** {
 195:ad5940lib/ad5940.c ****   uint32_t RegIndex, RegData;
 196:ad5940lib/ad5940.c ****   
 197:ad5940lib/ad5940.c ****   if(AD5940_SEQGenSearchReg(RegAddr, &RegIndex) != AD5940ERR_OK)
 198:ad5940lib/ad5940.c ****   {
 199:ad5940lib/ad5940.c ****     /* There is no record in data-base, read the default value. */
 200:ad5940lib/ad5940.c ****     AD5940_SEQGenGetRegDefault(RegAddr, &RegData);
 201:ad5940lib/ad5940.c ****     AD5940_SEQRegInfoInsert(RegAddr, RegData);
 202:ad5940lib/ad5940.c ****   }
 203:ad5940lib/ad5940.c ****   else
 204:ad5940lib/ad5940.c ****   {
 205:ad5940lib/ad5940.c ****     /* return the current register value stored in data-base */
ARM GAS  C:\Users\root\AppData\Local\Temp\ccjNHqBU.s 			page 8


 206:ad5940lib/ad5940.c ****     RegData = SeqGenDB.pRegInfo[RegIndex].RegValue;
 207:ad5940lib/ad5940.c ****   }
 208:ad5940lib/ad5940.c **** 
 209:ad5940lib/ad5940.c ****   return RegData;
 210:ad5940lib/ad5940.c **** }
 211:ad5940lib/ad5940.c **** 
 212:ad5940lib/ad5940.c **** /**
 213:ad5940lib/ad5940.c ****  * @brief Generate a sequencer command to write register. If the register address is out of range, 
 214:ad5940lib/ad5940.c ****  *        This function will also update the register-info in data-base to record current register 
 215:ad5940lib/ad5940.c ****  * @param RegAddr: The register address.
 216:ad5940lib/ad5940.c ****  * @param RegData: The register value.
 217:ad5940lib/ad5940.c ****  * @return Return None.
 218:ad5940lib/ad5940.c **** */
 219:ad5940lib/ad5940.c **** static void AD5940_SEQWriteReg(uint16_t RegAddr, uint32_t RegData)
 220:ad5940lib/ad5940.c **** {
 221:ad5940lib/ad5940.c ****   uint32_t RegIndex;
 222:ad5940lib/ad5940.c ****   
 223:ad5940lib/ad5940.c ****   if(RegAddr > 0x21ff)
 224:ad5940lib/ad5940.c ****   {
 225:ad5940lib/ad5940.c ****     SeqGenDB.LastError = AD5940ERR_ADDROR;  /* address out of range  */
 226:ad5940lib/ad5940.c ****     return;
 227:ad5940lib/ad5940.c ****   }
 228:ad5940lib/ad5940.c **** 
 229:ad5940lib/ad5940.c ****   if(AD5940_SEQGenSearchReg(RegAddr, &RegIndex) == AD5940ERR_OK)
 230:ad5940lib/ad5940.c ****   {
 231:ad5940lib/ad5940.c ****     /* Store register value */
 232:ad5940lib/ad5940.c ****     SeqGenDB.pRegInfo[RegIndex].RegValue = RegData;
 233:ad5940lib/ad5940.c ****     /* Generate Sequence command */
 234:ad5940lib/ad5940.c ****     AD5940_SEQGenInsert(SEQ_WR(RegAddr, RegData));
 235:ad5940lib/ad5940.c ****   }
 236:ad5940lib/ad5940.c ****   else
 237:ad5940lib/ad5940.c ****   {
 238:ad5940lib/ad5940.c ****     AD5940_SEQRegInfoInsert(RegAddr, RegData);
 239:ad5940lib/ad5940.c ****     /* Generate Sequence command */
 240:ad5940lib/ad5940.c ****     AD5940_SEQGenInsert(SEQ_WR(RegAddr, RegData));
 241:ad5940lib/ad5940.c ****   }
 242:ad5940lib/ad5940.c **** }
 243:ad5940lib/ad5940.c **** 
 244:ad5940lib/ad5940.c **** /**
 245:ad5940lib/ad5940.c ****  * @brief Initialize sequencer generator with specified buffer.
 246:ad5940lib/ad5940.c ****  *        The buffer is used to store sequencer generated and record register value changes.
 247:ad5940lib/ad5940.c ****  *        The command is stored from start address of buffer while register value is stored from en
 248:ad5940lib/ad5940.c ****  *    Buffer[0] : First sequencer command;
 249:ad5940lib/ad5940.c ****  *    Buffer[1] : Second Sequencer command;
 250:ad5940lib/ad5940.c ****  *    ...
 251:ad5940lib/ad5940.c ****  *    Buffer[Last-1]: The second register value record.
 252:ad5940lib/ad5940.c ****  *    Buffer[Last]: The first register value record.
 253:ad5940lib/ad5940.c ****  * @param pBuffer: Pointer to the buffer.
 254:ad5940lib/ad5940.c ****  * @param BufferSize: The buffer length.
 255:ad5940lib/ad5940.c ****  * @return Return None.
 256:ad5940lib/ad5940.c **** */
 257:ad5940lib/ad5940.c **** void AD5940_SEQGenInit(uint32_t *pBuffer, uint32_t BufferSize)
 258:ad5940lib/ad5940.c **** {
 259:ad5940lib/ad5940.c ****   if(BufferSize < 2) return;
 260:ad5940lib/ad5940.c ****   SeqGenDB.BufferSize = BufferSize;
 261:ad5940lib/ad5940.c ****   SeqGenDB.pSeqBuff = pBuffer;
 262:ad5940lib/ad5940.c ****   SeqGenDB.pRegInfo = (SEQGenRegInfo_Type*)pBuffer + BufferSize - 1; /* Point to the last element i
ARM GAS  C:\Users\root\AppData\Local\Temp\ccjNHqBU.s 			page 9


 263:ad5940lib/ad5940.c ****   SeqGenDB.SeqLen = 0;
 264:ad5940lib/ad5940.c **** 
 265:ad5940lib/ad5940.c ****   SeqGenDB.RegCount = 0;
 266:ad5940lib/ad5940.c ****   SeqGenDB.LastError = AD5940ERR_OK;
 267:ad5940lib/ad5940.c ****   SeqGenDB.EngineStart = bFALSE;
 268:ad5940lib/ad5940.c **** }
 269:ad5940lib/ad5940.c **** 
 270:ad5940lib/ad5940.c **** /**
 271:ad5940lib/ad5940.c ****  * @brief Get sequencer command generated.
 272:ad5940lib/ad5940.c ****  * @param ppSeqCmd: Pointer to a variable(pointer) used to store the pointer to generated sequencer
 273:ad5940lib/ad5940.c ****  * @param pSeqLen: Pointer to a variable that used to store how many commands available in buffer.
 274:ad5940lib/ad5940.c ****  * @return Return lasterror.
 275:ad5940lib/ad5940.c **** */
 276:ad5940lib/ad5940.c **** AD5940Err AD5940_SEQGenFetchSeq(const uint32_t **ppSeqCmd, uint32_t *pSeqLen)
 277:ad5940lib/ad5940.c **** {
 278:ad5940lib/ad5940.c ****   AD5940Err lasterror;
 279:ad5940lib/ad5940.c **** 
 280:ad5940lib/ad5940.c ****   if(ppSeqCmd)
 281:ad5940lib/ad5940.c ****     *ppSeqCmd = SeqGenDB.pSeqBuff;  
 282:ad5940lib/ad5940.c ****   if(pSeqLen)
 283:ad5940lib/ad5940.c ****     *pSeqLen = SeqGenDB.SeqLen;
 284:ad5940lib/ad5940.c **** 
 285:ad5940lib/ad5940.c ****   //SeqGenDB.SeqLen = 0;  /* Start a new sequence */
 286:ad5940lib/ad5940.c ****   lasterror = SeqGenDB.LastError;
 287:ad5940lib/ad5940.c ****   //SeqGenDB.LastError = AD5940ERR_OK;  /* Clear error message */
 288:ad5940lib/ad5940.c ****   return lasterror;
 289:ad5940lib/ad5940.c **** }
 290:ad5940lib/ad5940.c **** 
 291:ad5940lib/ad5940.c **** /**
 292:ad5940lib/ad5940.c ****  * @brief Start or stop the sequencer generator. Once started, the register write will be recorded 
 293:ad5940lib/ad5940.c ****  *        Once it's disabled, the register write is written to AD5940 directly by SPI bus.
 294:ad5940lib/ad5940.c ****  * @param bFlag: Enable or disable sequencer generator.
 295:ad5940lib/ad5940.c ****  * @return Return None.
 296:ad5940lib/ad5940.c **** */
 297:ad5940lib/ad5940.c **** void AD5940_SEQGenCtrl(BoolFlag bFlag)
 298:ad5940lib/ad5940.c **** {
 299:ad5940lib/ad5940.c ****   if(bFlag == bFALSE) /* Disable sequence generator */
 300:ad5940lib/ad5940.c ****   {
 301:ad5940lib/ad5940.c ****     SeqGenDB.EngineStart = bFALSE;
 302:ad5940lib/ad5940.c ****   }
 303:ad5940lib/ad5940.c ****   else
 304:ad5940lib/ad5940.c ****   {
 305:ad5940lib/ad5940.c ****     SeqGenDB.SeqLen = 0;
 306:ad5940lib/ad5940.c ****     SeqGenDB.LastError = AD5940ERR_OK;  /* Clear error message */
 307:ad5940lib/ad5940.c ****     SeqGenDB.EngineStart = bTRUE;
 308:ad5940lib/ad5940.c ****   }
 309:ad5940lib/ad5940.c **** }
 310:ad5940lib/ad5940.c **** 
 311:ad5940lib/ad5940.c **** /**
 312:ad5940lib/ad5940.c ****  * @brief Calculate the number of cycles in the sequence
 313:ad5940lib/ad5940.c ****  * @return Return Number of ACLK Cycles that a generated sequence will take.
 314:ad5940lib/ad5940.c **** */
 315:ad5940lib/ad5940.c **** uint32_t AD5940_SEQCycleTime(void)
 316:ad5940lib/ad5940.c **** {
 317:ad5940lib/ad5940.c ****   uint32_t i, Cycles, Cmd;  
 318:ad5940lib/ad5940.c ****   Cycles = 0;
 319:ad5940lib/ad5940.c ****   for(i=0;i<SeqGenDB.RegCount;i++)
ARM GAS  C:\Users\root\AppData\Local\Temp\ccjNHqBU.s 			page 10


 320:ad5940lib/ad5940.c ****   {
 321:ad5940lib/ad5940.c ****     Cmd = (SeqGenDB.pSeqBuff[i]  >> 30) & 0x3;
 322:ad5940lib/ad5940.c ****     if (Cmd & 0x2)
 323:ad5940lib/ad5940.c ****     {
 324:ad5940lib/ad5940.c ****       /* A write command */
 325:ad5940lib/ad5940.c ****       Cycles += 1;
 326:ad5940lib/ad5940.c ****     }
 327:ad5940lib/ad5940.c ****     else
 328:ad5940lib/ad5940.c ****     {
 329:ad5940lib/ad5940.c ****       if (Cmd & 0x1)
 330:ad5940lib/ad5940.c ****       {
 331:ad5940lib/ad5940.c ****         /* Timeout Command */    
 332:ad5940lib/ad5940.c ****         Cycles += 1;
 333:ad5940lib/ad5940.c ****       }
 334:ad5940lib/ad5940.c ****       else
 335:ad5940lib/ad5940.c ****         {
 336:ad5940lib/ad5940.c ****           /* Wait command */
 337:ad5940lib/ad5940.c ****           Cycles += SeqGenDB.pSeqBuff[i] & 0x3FFFFFFF;
 338:ad5940lib/ad5940.c ****         }
 339:ad5940lib/ad5940.c ****     }
 340:ad5940lib/ad5940.c ****   } 
 341:ad5940lib/ad5940.c ****   return Cycles;  
 342:ad5940lib/ad5940.c **** }
 343:ad5940lib/ad5940.c **** #endif
 344:ad5940lib/ad5940.c **** /**
 345:ad5940lib/ad5940.c ****  * @} Sequencer_Generator_Functions
 346:ad5940lib/ad5940.c **** */
 347:ad5940lib/ad5940.c **** 
 348:ad5940lib/ad5940.c **** /**
 349:ad5940lib/ad5940.c ****  * Check if an uint8_t value exist in table.
 350:ad5940lib/ad5940.c **** */
 351:ad5940lib/ad5940.c **** static int32_t _is_value_in_table(uint8_t value, const uint8_t *table, uint8_t len, uint8_t *index)
 352:ad5940lib/ad5940.c **** {
 194              		.loc 1 352 1 is_stmt 1 view -0
 195              		.cfi_startproc
 196              		@ args = 0, pretend = 0, frame = 0
 197              		@ frame_needed = 0, uses_anonymous_args = 0
 198              		@ link register save eliminated.
 199              		.loc 1 352 1 is_stmt 0 view .LVU53
 200 0000 30B4     		push	{r4, r5}
 201              	.LCFI3:
 202              		.cfi_def_cfa_offset 8
 203              		.cfi_offset 4, -8
 204              		.cfi_offset 5, -4
 353:ad5940lib/ad5940.c ****   for(int i=0; i<len; i++)
 205              		.loc 1 353 3 is_stmt 1 view .LVU54
 206              	.LBB2:
 207              		.loc 1 353 7 view .LVU55
 208              	.LVL16:
 209              		.loc 1 353 11 is_stmt 0 view .LVU56
 210 0002 0024     		movs	r4, #0
 211              	.LVL17:
 212              	.L17:
 213              		.loc 1 353 16 is_stmt 1 discriminator 1 view .LVU57
 214              		.loc 1 353 3 is_stmt 0 discriminator 1 view .LVU58
 215 0004 A242     		cmp	r2, r4
 216 0006 07DD     		ble	.L22
ARM GAS  C:\Users\root\AppData\Local\Temp\ccjNHqBU.s 			page 11


 354:ad5940lib/ad5940.c ****   {
 355:ad5940lib/ad5940.c ****     if(value == table[i])
 217              		.loc 1 355 5 is_stmt 1 view .LVU59
 218              		.loc 1 355 22 is_stmt 0 view .LVU60
 219 0008 0D5D     		ldrb	r5, [r1, r4]	@ zero_extendqisi2
 220              		.loc 1 355 7 view .LVU61
 221 000a 8542     		cmp	r5, r0
 222 000c 01D0     		beq	.L23
 353:ad5940lib/ad5940.c ****   for(int i=0; i<len; i++)
 223              		.loc 1 353 23 is_stmt 1 discriminator 2 view .LVU62
 353:ad5940lib/ad5940.c ****   for(int i=0; i<len; i++)
 224              		.loc 1 353 24 is_stmt 0 discriminator 2 view .LVU63
 225 000e 0134     		adds	r4, r4, #1
 226              	.LVL18:
 353:ad5940lib/ad5940.c ****   for(int i=0; i<len; i++)
 227              		.loc 1 353 24 discriminator 2 view .LVU64
 228 0010 F8E7     		b	.L17
 229              	.L23:
 356:ad5940lib/ad5940.c ****     {
 357:ad5940lib/ad5940.c ****       *index = i;
 230              		.loc 1 357 7 is_stmt 1 view .LVU65
 231              		.loc 1 357 14 is_stmt 0 view .LVU66
 232 0012 1C70     		strb	r4, [r3]
 358:ad5940lib/ad5940.c ****       return bTRUE;
 233              		.loc 1 358 7 is_stmt 1 view .LVU67
 234              		.loc 1 358 14 is_stmt 0 view .LVU68
 235 0014 0120     		movs	r0, #1
 236              	.LVL19:
 237              		.loc 1 358 14 view .LVU69
 238 0016 00E0     		b	.L16
 239              	.LVL20:
 240              	.L22:
 241              		.loc 1 358 14 view .LVU70
 242              	.LBE2:
 359:ad5940lib/ad5940.c ****     }
 360:ad5940lib/ad5940.c ****   }
 361:ad5940lib/ad5940.c ****   return bFALSE;
 243              		.loc 1 361 10 view .LVU71
 244 0018 0020     		movs	r0, #0
 245              	.LVL21:
 246              	.L16:
 362:ad5940lib/ad5940.c **** }
 247              		.loc 1 362 1 view .LVU72
 248 001a 30BC     		pop	{r4, r5}
 249              	.LCFI4:
 250              		.cfi_restore 5
 251              		.cfi_restore 4
 252              		.cfi_def_cfa_offset 0
 253              	.LVL22:
 254              		.loc 1 362 1 view .LVU73
 255 001c 7047     		bx	lr
 256              		.cfi_endproc
 257              	.LFE13:
 259              		.section	.text.AD5940_ReadWrite16B,"ax",%progbits
 260              		.align	1
 261              		.syntax unified
 262              		.thumb
ARM GAS  C:\Users\root\AppData\Local\Temp\ccjNHqBU.s 			page 12


 263              		.thumb_func
 264              		.fpu fpv5-d16
 266              	AD5940_ReadWrite16B:
 267              	.LVL23:
 268              	.LFB29:
 363:ad5940lib/ad5940.c **** 
 364:ad5940lib/ad5940.c **** /**
 365:ad5940lib/ad5940.c ****  * @brief return if the SINC3/SINC2 combination is available for notch 50Hz filter.
 366:ad5940lib/ad5940.c ****  *        If it's not availabe, hardware automatically bypass Notch even if it's enabled.
 367:ad5940lib/ad5940.c ****  * @param pFilterInfo the filter configuration, only need sinc2/sinc3 osr and adc data rate informa
 368:ad5940lib/ad5940.c ****  * @return return bTRUE if notch 50Hz filter is available.
 369:ad5940lib/ad5940.c **** */
 370:ad5940lib/ad5940.c **** BoolFlag AD5940_Notch50HzAvailable(ADCFilterCfg_Type *pFilterInfo, uint8_t *dl)
 371:ad5940lib/ad5940.c **** {
 372:ad5940lib/ad5940.c ****   if((pFilterInfo->ADCRate == ADCRATE_800KHZ && pFilterInfo->ADCSinc3Osr == ADCSINC3OSR_2)||\
 373:ad5940lib/ad5940.c ****       (pFilterInfo->ADCRate == ADCRATE_1P6MHZ && pFilterInfo->ADCSinc3Osr != ADCSINC3OSR_2))
 374:ad5940lib/ad5940.c ****   {
 375:ad5940lib/ad5940.c ****     //this combination suits for filter:
 376:ad5940lib/ad5940.c ****     //SINC3 OSR2, for 800kSPS
 377:ad5940lib/ad5940.c ****     //and SINC3 OSR4 and OSR5 for 1.6MSPS,
 378:ad5940lib/ad5940.c ****     const uint8_t available_sinc2_osr[] = {ADCSINC2OSR_533, ADCSINC2OSR_667,ADCSINC2OSR_800, ADCSIN
 379:ad5940lib/ad5940.c ****     const uint8_t dl_50Hz[] = {15,12,10,9,6};
 380:ad5940lib/ad5940.c ****     uint8_t index;
 381:ad5940lib/ad5940.c ****     if(_is_value_in_table(pFilterInfo->ADCSinc2Osr, available_sinc2_osr, sizeof(available_sinc2_osr
 382:ad5940lib/ad5940.c ****     {
 383:ad5940lib/ad5940.c ****       *dl = dl_50Hz[index];
 384:ad5940lib/ad5940.c ****       return bTRUE;
 385:ad5940lib/ad5940.c ****     }
 386:ad5940lib/ad5940.c ****   }
 387:ad5940lib/ad5940.c ****   else if(pFilterInfo->ADCRate == ADCRATE_1P6MHZ && pFilterInfo->ADCSinc3Osr == ADCSINC3OSR_2)
 388:ad5940lib/ad5940.c ****   {
 389:ad5940lib/ad5940.c ****     //this combination suits for filter:
 390:ad5940lib/ad5940.c ****     //SINC3 OSR2 for 1.6MSPS
 391:ad5940lib/ad5940.c ****     const uint8_t available_sinc2_osr[] = {ADCSINC2OSR_889, ADCSINC2OSR_1067, ADCSINC2OSR_1333};
 392:ad5940lib/ad5940.c ****     const uint8_t dl_50Hz[] = {18,15,12};
 393:ad5940lib/ad5940.c ****     uint8_t index;
 394:ad5940lib/ad5940.c ****     if(_is_value_in_table(pFilterInfo->ADCSinc2Osr, available_sinc2_osr, sizeof(available_sinc2_osr
 395:ad5940lib/ad5940.c ****     {
 396:ad5940lib/ad5940.c ****       *dl = dl_50Hz[index];
 397:ad5940lib/ad5940.c ****       return bTRUE;
 398:ad5940lib/ad5940.c ****     }
 399:ad5940lib/ad5940.c ****   }
 400:ad5940lib/ad5940.c ****   else if(pFilterInfo->ADCRate == ADCRATE_800KHZ && pFilterInfo->ADCSinc3Osr != ADCSINC3OSR_2)
 401:ad5940lib/ad5940.c ****   {
 402:ad5940lib/ad5940.c ****     //this combination suits for filter:
 403:ad5940lib/ad5940.c ****     //SINC3 OSR4 and OSR5 for 800kSPS,
 404:ad5940lib/ad5940.c ****     const uint8_t available_sinc2_osr[] = {ADCSINC2OSR_178, ADCSINC2OSR_267, ADCSINC2OSR_533, ADCSI
 405:ad5940lib/ad5940.c ****                                     ADCSINC2OSR_800, ADCSINC2OSR_1067};
 406:ad5940lib/ad5940.c ****     const uint8_t dl_50Hz[] = {18,12,6,5,4,3};
 407:ad5940lib/ad5940.c ****     uint8_t index;
 408:ad5940lib/ad5940.c ****     if(_is_value_in_table(pFilterInfo->ADCSinc2Osr, available_sinc2_osr, sizeof(available_sinc2_osr
 409:ad5940lib/ad5940.c ****     {
 410:ad5940lib/ad5940.c ****       *dl = dl_50Hz[index];
 411:ad5940lib/ad5940.c ****       return bTRUE;
 412:ad5940lib/ad5940.c ****     }
 413:ad5940lib/ad5940.c ****   }
 414:ad5940lib/ad5940.c ****   *dl = 0;
ARM GAS  C:\Users\root\AppData\Local\Temp\ccjNHqBU.s 			page 13


 415:ad5940lib/ad5940.c ****   return bFALSE;
 416:ad5940lib/ad5940.c **** }
 417:ad5940lib/ad5940.c **** 
 418:ad5940lib/ad5940.c **** /**
 419:ad5940lib/ad5940.c ****  * @brief return if the SINC3/SINC2 combination is available for notch 60Hz filter.
 420:ad5940lib/ad5940.c ****  *        If it's not availabe, hardware automatically bypass Notch even if it's enabled.
 421:ad5940lib/ad5940.c ****  * @param pFilterInfo the filter configuration, need sinc2/sinc3 osr and adc data rate information.
 422:ad5940lib/ad5940.c ****  * @return return bTRUE if notch 60Hz filter is available.
 423:ad5940lib/ad5940.c **** */
 424:ad5940lib/ad5940.c **** BoolFlag AD5940_Notch60HzAvailable(ADCFilterCfg_Type *pFilterInfo, uint8_t *dl)
 425:ad5940lib/ad5940.c **** {
 426:ad5940lib/ad5940.c ****   if((pFilterInfo->ADCRate == ADCRATE_800KHZ && pFilterInfo->ADCSinc3Osr == ADCSINC3OSR_2)||\
 427:ad5940lib/ad5940.c ****       (pFilterInfo->ADCRate == ADCRATE_1P6MHZ && pFilterInfo->ADCSinc3Osr != ADCSINC3OSR_2))
 428:ad5940lib/ad5940.c ****   {
 429:ad5940lib/ad5940.c ****     //this combination suits for filter:
 430:ad5940lib/ad5940.c ****     //SINC3 OSR2, for 800kSPS
 431:ad5940lib/ad5940.c ****     //and SINC3 OSR4 and OSR5 for 1.6MSPS,
 432:ad5940lib/ad5940.c ****     const uint8_t available_sinc2_osr[] = {ADCSINC2OSR_667, ADCSINC2OSR_1333};
 433:ad5940lib/ad5940.c ****     const uint8_t dl_60Hz[] = {10,5};
 434:ad5940lib/ad5940.c ****     uint8_t index;
 435:ad5940lib/ad5940.c ****     if(_is_value_in_table(pFilterInfo->ADCSinc2Osr, available_sinc2_osr, sizeof(available_sinc2_osr
 436:ad5940lib/ad5940.c ****     {
 437:ad5940lib/ad5940.c ****       *dl = dl_60Hz[index];
 438:ad5940lib/ad5940.c ****       return bTRUE;
 439:ad5940lib/ad5940.c ****     }
 440:ad5940lib/ad5940.c ****   }
 441:ad5940lib/ad5940.c ****   else if(pFilterInfo->ADCRate == ADCRATE_1P6MHZ && pFilterInfo->ADCSinc3Osr == ADCSINC3OSR_2)
 442:ad5940lib/ad5940.c ****   {
 443:ad5940lib/ad5940.c ****     //this combination suits for filter:
 444:ad5940lib/ad5940.c ****     //SINC3 OSR2 for 1.6MSPS
 445:ad5940lib/ad5940.c ****     const uint8_t available_sinc2_osr[] = {ADCSINC2OSR_889, ADCSINC2OSR_1333};
 446:ad5940lib/ad5940.c ****     const uint8_t dl_60Hz[] = {15,10};
 447:ad5940lib/ad5940.c ****     uint8_t index;
 448:ad5940lib/ad5940.c ****     if(_is_value_in_table(pFilterInfo->ADCSinc2Osr, available_sinc2_osr, sizeof(available_sinc2_osr
 449:ad5940lib/ad5940.c ****     {
 450:ad5940lib/ad5940.c ****       *dl = dl_60Hz[index];
 451:ad5940lib/ad5940.c ****       return bTRUE;
 452:ad5940lib/ad5940.c ****     }
 453:ad5940lib/ad5940.c ****   }
 454:ad5940lib/ad5940.c ****   else if(pFilterInfo->ADCRate == ADCRATE_800KHZ && pFilterInfo->ADCSinc3Osr != ADCSINC3OSR_2)
 455:ad5940lib/ad5940.c ****   {
 456:ad5940lib/ad5940.c ****     //this combination suits for filter:
 457:ad5940lib/ad5940.c ****     //SINC3 OSR4 and OSR5 for 800kSPS,
 458:ad5940lib/ad5940.c ****     const uint8_t available_sinc2_osr[] = {ADCSINC2OSR_178, ADCSINC2OSR_267, ADCSINC2OSR_533, ADCSI
 459:ad5940lib/ad5940.c ****                                     ADCSINC2OSR_889, ADCSINC2OSR_1333};
 460:ad5940lib/ad5940.c ****     const uint8_t dl_60Hz[] = {15,10,5,4,3,2};
 461:ad5940lib/ad5940.c ****     uint8_t index;
 462:ad5940lib/ad5940.c ****     if(_is_value_in_table(pFilterInfo->ADCSinc2Osr, available_sinc2_osr, sizeof(available_sinc2_osr
 463:ad5940lib/ad5940.c ****     {
 464:ad5940lib/ad5940.c ****       *dl = dl_60Hz[index];
 465:ad5940lib/ad5940.c ****       return bTRUE;
 466:ad5940lib/ad5940.c ****     }
 467:ad5940lib/ad5940.c ****   }
 468:ad5940lib/ad5940.c ****   *dl = 0;
 469:ad5940lib/ad5940.c ****   return bFALSE;
 470:ad5940lib/ad5940.c **** }
 471:ad5940lib/ad5940.c **** 
ARM GAS  C:\Users\root\AppData\Local\Temp\ccjNHqBU.s 			page 14


 472:ad5940lib/ad5940.c **** /**
 473:ad5940lib/ad5940.c ****  * @brief Calculate how many clocks are needed in sequencer wait command to generate required numbe
 474:ad5940lib/ad5940.c ****  * @note When measurement is done, it's recommend to disable blocks like ADCPWR, ADCCNV, SINC2, DFT
 475:ad5940lib/ad5940.c ****  *       they may need less clocks to generate required number of output. Use function @ref AD5940_
 476:ad5940lib/ad5940.c ****  * @param pFilterInfo: Pointer to configuration structure. 
 477:ad5940lib/ad5940.c ****  * @param pClocks: pointer used to store results.         
 478:ad5940lib/ad5940.c ****  * @return return none.
 479:ad5940lib/ad5940.c **** */
 480:ad5940lib/ad5940.c **** void AD5940_ClksCalculate(ClksCalInfo_Type *pFilterInfo, uint32_t *pClocks)
 481:ad5940lib/ad5940.c **** {
 482:ad5940lib/ad5940.c ****   uint32_t temp = 0;
 483:ad5940lib/ad5940.c ****   const uint32_t sinc2osr_table[] = {22,44,89,178,267,533,640,667,800,889,1067,1333,0};
 484:ad5940lib/ad5940.c ****   const uint32_t sinc3osr_table[] = {5,4,2,0};
 485:ad5940lib/ad5940.c **** 
 486:ad5940lib/ad5940.c ****   *pClocks = 0;
 487:ad5940lib/ad5940.c ****   if(pFilterInfo == NULL) return;
 488:ad5940lib/ad5940.c ****   if(pClocks == NULL) return;
 489:ad5940lib/ad5940.c ****   if(pFilterInfo->ADCSinc2Osr > ADCSINC2OSR_1333) return;
 490:ad5940lib/ad5940.c ****   if(pFilterInfo->ADCSinc3Osr > 2)  return; /* 0: OSR5, 1:OSR4, 2:OSR2 */
 491:ad5940lib/ad5940.c ****   if(pFilterInfo->ADCAvgNum > ADCAVGNUM_16) return; /* Average number index:0,1,2,3 */
 492:ad5940lib/ad5940.c ****   switch(pFilterInfo->DataType)
 493:ad5940lib/ad5940.c ****   {
 494:ad5940lib/ad5940.c ****     case DATATYPE_ADCRAW:
 495:ad5940lib/ad5940.c ****       temp = (uint32_t)(20*pFilterInfo->DataCount*pFilterInfo->RatioSys2AdcClk);
 496:ad5940lib/ad5940.c ****       break;
 497:ad5940lib/ad5940.c ****     case DATATYPE_SINC3:
 498:ad5940lib/ad5940.c ****       temp = (uint32_t)(((pFilterInfo->DataCount+2)*sinc3osr_table[pFilterInfo->ADCSinc3Osr]+1)*20*
 499:ad5940lib/ad5940.c ****       break;
 500:ad5940lib/ad5940.c ****     case DATATYPE_SINC2: 
 501:ad5940lib/ad5940.c ****       temp = (pFilterInfo->DataCount+1)*sinc2osr_table[pFilterInfo->ADCSinc2Osr] + 1;
 502:ad5940lib/ad5940.c ****       pFilterInfo->DataType = DATATYPE_SINC3;
 503:ad5940lib/ad5940.c ****       pFilterInfo->DataCount = temp;
 504:ad5940lib/ad5940.c ****       AD5940_ClksCalculate(pFilterInfo, &temp);
 505:ad5940lib/ad5940.c ****       pFilterInfo->DataType = DATATYPE_SINC2;
 506:ad5940lib/ad5940.c ****       temp += 15;   /* Need extra 15 clocks for FIFO etc. Just to be safe. */
 507:ad5940lib/ad5940.c ****       break;
 508:ad5940lib/ad5940.c ****     case DATATYPE_NOTCH:
 509:ad5940lib/ad5940.c ****     {
 510:ad5940lib/ad5940.c ****       ADCFilterCfg_Type filter;
 511:ad5940lib/ad5940.c ****       filter.ADCRate = pFilterInfo->ADCRate;
 512:ad5940lib/ad5940.c ****       filter.ADCSinc3Osr = pFilterInfo->ADCSinc3Osr;
 513:ad5940lib/ad5940.c ****       filter.ADCSinc2Osr = pFilterInfo->ADCSinc2Osr;
 514:ad5940lib/ad5940.c ****       uint8_t dl=0, dl_50, dl_60;
 515:ad5940lib/ad5940.c ****       if(AD5940_Notch50HzAvailable(&filter, &dl_50)){
 516:ad5940lib/ad5940.c ****         dl += dl_50 - 1;
 517:ad5940lib/ad5940.c ****       }
 518:ad5940lib/ad5940.c ****       if(AD5940_Notch60HzAvailable(&filter, &dl_60)){
 519:ad5940lib/ad5940.c ****         dl += dl_60 - 1;
 520:ad5940lib/ad5940.c ****       }
 521:ad5940lib/ad5940.c ****       pFilterInfo->DataType = DATATYPE_SINC2;
 522:ad5940lib/ad5940.c ****       pFilterInfo->DataCount += dl; //DL is the extra data input needed for filter to output first 
 523:ad5940lib/ad5940.c ****       AD5940_ClksCalculate(pFilterInfo,&temp);
 524:ad5940lib/ad5940.c ****       //restore the filter info.
 525:ad5940lib/ad5940.c ****       pFilterInfo->DataType = DATATYPE_NOTCH;
 526:ad5940lib/ad5940.c ****       pFilterInfo->DataCount -= dl;
 527:ad5940lib/ad5940.c ****       break;
 528:ad5940lib/ad5940.c ****     }
ARM GAS  C:\Users\root\AppData\Local\Temp\ccjNHqBU.s 			page 15


 529:ad5940lib/ad5940.c ****     case DATATYPE_DFT:
 530:ad5940lib/ad5940.c ****       switch(pFilterInfo->DftSrc)
 531:ad5940lib/ad5940.c ****       {
 532:ad5940lib/ad5940.c ****         case DFTSRC_ADCRAW:
 533:ad5940lib/ad5940.c ****           pFilterInfo->DataType = DATATYPE_ADCRAW;
 534:ad5940lib/ad5940.c ****           AD5940_ClksCalculate(pFilterInfo, &temp);
 535:ad5940lib/ad5940.c ****           break;
 536:ad5940lib/ad5940.c ****         case DFTSRC_SINC3:
 537:ad5940lib/ad5940.c ****           pFilterInfo->DataType = DATATYPE_SINC3;
 538:ad5940lib/ad5940.c ****           AD5940_ClksCalculate(pFilterInfo, &temp);
 539:ad5940lib/ad5940.c ****           break;
 540:ad5940lib/ad5940.c ****         case DFTSRC_SINC2NOTCH:
 541:ad5940lib/ad5940.c ****           if(pFilterInfo->BpNotch)
 542:ad5940lib/ad5940.c ****             pFilterInfo->DataType = DATATYPE_SINC2;
 543:ad5940lib/ad5940.c ****           else
 544:ad5940lib/ad5940.c ****             pFilterInfo->DataType = DATATYPE_NOTCH;
 545:ad5940lib/ad5940.c ****           AD5940_ClksCalculate(pFilterInfo, &temp);
 546:ad5940lib/ad5940.c ****           break;
 547:ad5940lib/ad5940.c ****         case DFTSRC_AVG:
 548:ad5940lib/ad5940.c ****           pFilterInfo->DataType = DATATYPE_SINC3;
 549:ad5940lib/ad5940.c ****           pFilterInfo->DataCount *= 1L<<(pFilterInfo->ADCAvgNum+1); /* 0: average2, 1: average4, 2:
 550:ad5940lib/ad5940.c ****           AD5940_ClksCalculate(pFilterInfo, &temp);
 551:ad5940lib/ad5940.c ****           break;
 552:ad5940lib/ad5940.c ****         default:
 553:ad5940lib/ad5940.c ****           break;
 554:ad5940lib/ad5940.c ****       }
 555:ad5940lib/ad5940.c ****       pFilterInfo->DataType = DATATYPE_DFT;
 556:ad5940lib/ad5940.c ****       temp += 25; /* add margin */
 557:ad5940lib/ad5940.c ****       break;
 558:ad5940lib/ad5940.c ****     default:
 559:ad5940lib/ad5940.c ****     break;
 560:ad5940lib/ad5940.c ****   }
 561:ad5940lib/ad5940.c ****   *pClocks = temp;
 562:ad5940lib/ad5940.c **** }
 563:ad5940lib/ad5940.c **** 
 564:ad5940lib/ad5940.c **** /**
 565:ad5940lib/ad5940.c ****    @brief void AD5940_SweepNext(SoftSweepCfg_Type *pSweepCfg, float *pNextFreq)
 566:ad5940lib/ad5940.c ****           For sweep function, calculate next frequency point according to pSweepCfg info.
 567:ad5940lib/ad5940.c ****    @return Return next frequency point in Hz.
 568:ad5940lib/ad5940.c **** */
 569:ad5940lib/ad5940.c **** void AD5940_SweepNext(SoftSweepCfg_Type *pSweepCfg, float *pNextFreq)
 570:ad5940lib/ad5940.c **** {
 571:ad5940lib/ad5940.c ****    float frequency;
 572:ad5940lib/ad5940.c **** 
 573:ad5940lib/ad5940.c ****    if(pSweepCfg->SweepLog)/* Log step */
 574:ad5940lib/ad5940.c ****    {
 575:ad5940lib/ad5940.c ****       if(pSweepCfg->SweepStart<pSweepCfg->SweepStop) /* Normal */
 576:ad5940lib/ad5940.c ****       {
 577:ad5940lib/ad5940.c ****          if(++pSweepCfg->SweepIndex == pSweepCfg->SweepPoints)
 578:ad5940lib/ad5940.c ****             pSweepCfg->SweepIndex = 0;
 579:ad5940lib/ad5940.c ****          frequency = pSweepCfg->SweepStart*pow(10,pSweepCfg->SweepIndex*log10(pSweepCfg->SweepStop/
 580:ad5940lib/ad5940.c ****       }
 581:ad5940lib/ad5940.c ****       else
 582:ad5940lib/ad5940.c ****       {
 583:ad5940lib/ad5940.c ****          pSweepCfg->SweepIndex --;
 584:ad5940lib/ad5940.c ****          if(pSweepCfg->SweepIndex >= pSweepCfg->SweepPoints)
 585:ad5940lib/ad5940.c ****             pSweepCfg->SweepIndex = pSweepCfg->SweepPoints-1;
ARM GAS  C:\Users\root\AppData\Local\Temp\ccjNHqBU.s 			page 16


 586:ad5940lib/ad5940.c ****          frequency = pSweepCfg->SweepStop*pow(10,pSweepCfg->SweepIndex*
 587:ad5940lib/ad5940.c ****                                      (log10(pSweepCfg->SweepStart/pSweepCfg->SweepStop)/(pSweepCfg-
 588:ad5940lib/ad5940.c ****       }
 589:ad5940lib/ad5940.c ****    }
 590:ad5940lib/ad5940.c ****    else/* Linear step */
 591:ad5940lib/ad5940.c ****    {
 592:ad5940lib/ad5940.c ****       if(pSweepCfg->SweepStart<pSweepCfg->SweepStop) /* Normal */
 593:ad5940lib/ad5940.c ****       {
 594:ad5940lib/ad5940.c ****          if(++pSweepCfg->SweepIndex == pSweepCfg->SweepPoints)
 595:ad5940lib/ad5940.c ****             pSweepCfg->SweepIndex = 0;
 596:ad5940lib/ad5940.c ****          frequency = pSweepCfg->SweepStart + pSweepCfg->SweepIndex*(double)(pSweepCfg->SweepStop-pS
 597:ad5940lib/ad5940.c ****       }
 598:ad5940lib/ad5940.c ****       else
 599:ad5940lib/ad5940.c ****       {
 600:ad5940lib/ad5940.c ****          pSweepCfg->SweepIndex --;
 601:ad5940lib/ad5940.c ****          if(pSweepCfg->SweepIndex >= pSweepCfg->SweepPoints)
 602:ad5940lib/ad5940.c ****             pSweepCfg->SweepIndex = pSweepCfg->SweepPoints-1;
 603:ad5940lib/ad5940.c ****          frequency = pSweepCfg->SweepStop + pSweepCfg->SweepIndex*(double)(pSweepCfg->SweepStart - 
 604:ad5940lib/ad5940.c ****       }
 605:ad5940lib/ad5940.c ****    }
 606:ad5940lib/ad5940.c ****    
 607:ad5940lib/ad5940.c ****    *pNextFreq = frequency;
 608:ad5940lib/ad5940.c **** }
 609:ad5940lib/ad5940.c **** 
 610:ad5940lib/ad5940.c **** /**
 611:ad5940lib/ad5940.c ****   @brief Initialize Structure members to zero
 612:ad5940lib/ad5940.c ****   @param pStruct: Pointer to the structure. 
 613:ad5940lib/ad5940.c ****   @param StructSize: The structure size in Byte.
 614:ad5940lib/ad5940.c ****   @return Return None.
 615:ad5940lib/ad5940.c **** **/
 616:ad5940lib/ad5940.c **** void AD5940_StructInit(void *pStruct, uint32_t StructSize)
 617:ad5940lib/ad5940.c **** {
 618:ad5940lib/ad5940.c ****   memset(pStruct, 0, StructSize);
 619:ad5940lib/ad5940.c **** }
 620:ad5940lib/ad5940.c **** 
 621:ad5940lib/ad5940.c **** /**
 622:ad5940lib/ad5940.c ****   @brief Convert ADC Code to voltage. 
 623:ad5940lib/ad5940.c ****   @param ADCPga: The ADC PGA used for this result.
 624:ad5940lib/ad5940.c ****   @param code: ADC code.
 625:ad5940lib/ad5940.c ****   @param VRef1p82: the actual 1.82V reference voltage.
 626:ad5940lib/ad5940.c ****   @return Voltage in volt.
 627:ad5940lib/ad5940.c **** **/
 628:ad5940lib/ad5940.c **** float AD5940_ADCCode2Volt(uint32_t code, uint32_t ADCPga, float VRef1p82)
 629:ad5940lib/ad5940.c **** {
 630:ad5940lib/ad5940.c ****   float kFactor = 1.835/1.82;
 631:ad5940lib/ad5940.c ****   float fVolt = 0.0;
 632:ad5940lib/ad5940.c ****   float tmp = 0;
 633:ad5940lib/ad5940.c ****   tmp = (int32_t)code - 32768;
 634:ad5940lib/ad5940.c ****   switch(ADCPga)
 635:ad5940lib/ad5940.c ****   {
 636:ad5940lib/ad5940.c ****   case ADCPGA_1:
 637:ad5940lib/ad5940.c ****     break;
 638:ad5940lib/ad5940.c ****   case ADCPGA_1P5:
 639:ad5940lib/ad5940.c ****     tmp /= 1.5f;
 640:ad5940lib/ad5940.c ****     break;
 641:ad5940lib/ad5940.c ****   case ADCPGA_2:
 642:ad5940lib/ad5940.c ****     tmp /= 2.0f;
ARM GAS  C:\Users\root\AppData\Local\Temp\ccjNHqBU.s 			page 17


 643:ad5940lib/ad5940.c ****     break;
 644:ad5940lib/ad5940.c ****   case ADCPGA_4:
 645:ad5940lib/ad5940.c ****     tmp /= 4.0f;
 646:ad5940lib/ad5940.c ****     break;
 647:ad5940lib/ad5940.c ****   case ADCPGA_9:
 648:ad5940lib/ad5940.c ****     tmp /= 9.0f;
 649:ad5940lib/ad5940.c ****     break;
 650:ad5940lib/ad5940.c ****   default:break;
 651:ad5940lib/ad5940.c ****   }
 652:ad5940lib/ad5940.c ****   fVolt = tmp*VRef1p82/32768*kFactor;
 653:ad5940lib/ad5940.c ****   return fVolt;
 654:ad5940lib/ad5940.c **** }
 655:ad5940lib/ad5940.c **** 
 656:ad5940lib/ad5940.c **** /**
 657:ad5940lib/ad5940.c ****  * @brief Do complex number division.
 658:ad5940lib/ad5940.c ****  * @param a: The dividend.
 659:ad5940lib/ad5940.c ****  * @param b: The divisor.
 660:ad5940lib/ad5940.c ****  * @return Return result.
 661:ad5940lib/ad5940.c **** **/
 662:ad5940lib/ad5940.c **** fImpCar_Type AD5940_ComplexDivFloat(fImpCar_Type *a, fImpCar_Type *b)
 663:ad5940lib/ad5940.c **** {
 664:ad5940lib/ad5940.c ****   fImpCar_Type res;
 665:ad5940lib/ad5940.c ****   float temp;
 666:ad5940lib/ad5940.c ****   temp = b->Real*b->Real + b->Image*b->Image;
 667:ad5940lib/ad5940.c ****   res.Real = a->Real*b->Real + a->Image*b->Image;
 668:ad5940lib/ad5940.c ****   res.Real /= temp;
 669:ad5940lib/ad5940.c ****   res.Image = a->Image*b->Real - a->Real*b->Image;
 670:ad5940lib/ad5940.c ****   res.Image /= temp;
 671:ad5940lib/ad5940.c ****   return res;
 672:ad5940lib/ad5940.c **** }
 673:ad5940lib/ad5940.c **** 
 674:ad5940lib/ad5940.c **** /**
 675:ad5940lib/ad5940.c ****  * @brief Do complex number multiplication.
 676:ad5940lib/ad5940.c ****  * @param a: The multiplicand.
 677:ad5940lib/ad5940.c ****  * @param b: The multiplier .
 678:ad5940lib/ad5940.c ****  * @return Return result.
 679:ad5940lib/ad5940.c **** **/
 680:ad5940lib/ad5940.c **** fImpCar_Type AD5940_ComplexMulFloat(fImpCar_Type *a, fImpCar_Type *b)
 681:ad5940lib/ad5940.c **** {
 682:ad5940lib/ad5940.c ****   fImpCar_Type res;
 683:ad5940lib/ad5940.c ****   
 684:ad5940lib/ad5940.c ****   res.Real = a->Real*b->Real - a->Image*b->Image;
 685:ad5940lib/ad5940.c ****   res.Image = a->Image*b->Real + a->Real*b->Image;
 686:ad5940lib/ad5940.c **** 
 687:ad5940lib/ad5940.c ****   return res;
 688:ad5940lib/ad5940.c **** }
 689:ad5940lib/ad5940.c **** /**
 690:ad5940lib/ad5940.c ****  * @brief Do complex number addition.
 691:ad5940lib/ad5940.c ****  * @param a: The addend.
 692:ad5940lib/ad5940.c ****  * @param b: The addend .
 693:ad5940lib/ad5940.c ****  * @return Return result.
 694:ad5940lib/ad5940.c **** **/
 695:ad5940lib/ad5940.c **** fImpCar_Type AD5940_ComplexAddFloat(fImpCar_Type *a, fImpCar_Type *b)
 696:ad5940lib/ad5940.c **** {
 697:ad5940lib/ad5940.c ****   fImpCar_Type res;
 698:ad5940lib/ad5940.c ****   
 699:ad5940lib/ad5940.c ****   res.Real = a->Real + b->Real;
ARM GAS  C:\Users\root\AppData\Local\Temp\ccjNHqBU.s 			page 18


 700:ad5940lib/ad5940.c ****   res.Image = a->Image + b->Image;
 701:ad5940lib/ad5940.c **** 
 702:ad5940lib/ad5940.c ****   return res;
 703:ad5940lib/ad5940.c **** }
 704:ad5940lib/ad5940.c **** 
 705:ad5940lib/ad5940.c **** /**
 706:ad5940lib/ad5940.c ****  * @brief Do complex number subtraction.
 707:ad5940lib/ad5940.c ****  * @param a: The minuend.
 708:ad5940lib/ad5940.c ****  * @param b: The subtrahend .
 709:ad5940lib/ad5940.c ****  * @return Return result.
 710:ad5940lib/ad5940.c **** **/
 711:ad5940lib/ad5940.c **** fImpCar_Type AD5940_ComplexSubFloat(fImpCar_Type *a, fImpCar_Type *b)
 712:ad5940lib/ad5940.c **** {
 713:ad5940lib/ad5940.c ****   fImpCar_Type res;
 714:ad5940lib/ad5940.c ****   
 715:ad5940lib/ad5940.c ****   res.Real = a->Real - b->Real;
 716:ad5940lib/ad5940.c ****   res.Image = a->Image - b->Image;
 717:ad5940lib/ad5940.c **** 
 718:ad5940lib/ad5940.c ****   return res;
 719:ad5940lib/ad5940.c **** }
 720:ad5940lib/ad5940.c **** 
 721:ad5940lib/ad5940.c **** /**
 722:ad5940lib/ad5940.c ****  * @brief Do complex number division.
 723:ad5940lib/ad5940.c ****  * @param a: The dividend.
 724:ad5940lib/ad5940.c ****  * @param b: The divisor.
 725:ad5940lib/ad5940.c ****  * @return Return result.
 726:ad5940lib/ad5940.c **** **/
 727:ad5940lib/ad5940.c **** fImpCar_Type AD5940_ComplexDivInt(iImpCar_Type *a, iImpCar_Type *b)
 728:ad5940lib/ad5940.c **** {
 729:ad5940lib/ad5940.c ****   fImpCar_Type res;
 730:ad5940lib/ad5940.c ****   float temp;
 731:ad5940lib/ad5940.c ****   temp = (float)b->Real*b->Real + (float)b->Image*b->Image;
 732:ad5940lib/ad5940.c ****   res.Real = (float)a->Real*b->Real + (float)a->Image*b->Image;
 733:ad5940lib/ad5940.c ****   res.Real /= temp;
 734:ad5940lib/ad5940.c ****   res.Image = (float)a->Image*b->Real - (float)a->Real*b->Image;
 735:ad5940lib/ad5940.c ****   res.Image /= temp;
 736:ad5940lib/ad5940.c ****   return res;
 737:ad5940lib/ad5940.c **** }
 738:ad5940lib/ad5940.c **** 
 739:ad5940lib/ad5940.c **** /**
 740:ad5940lib/ad5940.c ****  * @brief Do complex number multiplication.
 741:ad5940lib/ad5940.c ****  * @param a: The multiplicand.
 742:ad5940lib/ad5940.c ****  * @param b: The multiplier .
 743:ad5940lib/ad5940.c ****  * @return Return result.
 744:ad5940lib/ad5940.c **** **/
 745:ad5940lib/ad5940.c **** fImpCar_Type AD5940_ComplexMulInt(iImpCar_Type *a, iImpCar_Type *b)
 746:ad5940lib/ad5940.c **** {
 747:ad5940lib/ad5940.c ****   fImpCar_Type res;
 748:ad5940lib/ad5940.c ****   
 749:ad5940lib/ad5940.c ****   res.Real = (float)a->Real*b->Real - (float)a->Image*b->Image;
 750:ad5940lib/ad5940.c ****   res.Image = (float)a->Image*b->Real + (float)a->Real*b->Image;
 751:ad5940lib/ad5940.c **** 
 752:ad5940lib/ad5940.c ****   return res;
 753:ad5940lib/ad5940.c **** }
 754:ad5940lib/ad5940.c **** 
 755:ad5940lib/ad5940.c **** /**
 756:ad5940lib/ad5940.c ****  * @brief Calculate the complex number magnitude.
ARM GAS  C:\Users\root\AppData\Local\Temp\ccjNHqBU.s 			page 19


 757:ad5940lib/ad5940.c ****  * @param a: The complex number.
 758:ad5940lib/ad5940.c ****  * @return Return magnitude.
 759:ad5940lib/ad5940.c **** **/
 760:ad5940lib/ad5940.c **** float AD5940_ComplexMag(fImpCar_Type *a)
 761:ad5940lib/ad5940.c **** {
 762:ad5940lib/ad5940.c ****   return sqrt(a->Real*a->Real + a->Image*a->Image);
 763:ad5940lib/ad5940.c **** }
 764:ad5940lib/ad5940.c **** 
 765:ad5940lib/ad5940.c **** /**
 766:ad5940lib/ad5940.c ****  * @brief Calculate the complex number phase.
 767:ad5940lib/ad5940.c ****  * @param a: The complex number.
 768:ad5940lib/ad5940.c ****  * @return Return phase.
 769:ad5940lib/ad5940.c **** **/
 770:ad5940lib/ad5940.c **** float AD5940_ComplexPhase(fImpCar_Type *a)
 771:ad5940lib/ad5940.c **** {
 772:ad5940lib/ad5940.c ****   return atan2(a->Image, a->Real);
 773:ad5940lib/ad5940.c **** }
 774:ad5940lib/ad5940.c **** 
 775:ad5940lib/ad5940.c **** /**
 776:ad5940lib/ad5940.c ****  * @} Function_Helpers
 777:ad5940lib/ad5940.c **** */
 778:ad5940lib/ad5940.c **** 
 779:ad5940lib/ad5940.c **** #ifdef CHIPSEL_M355
 780:ad5940lib/ad5940.c **** static void AD5940_D2DWriteReg(uint16_t RegAddr, uint32_t RegData)
 781:ad5940lib/ad5940.c **** {
 782:ad5940lib/ad5940.c ****   if(((RegAddr>=0x1000)&&(RegAddr<=0x3014)))  /* 32bit register */
 783:ad5940lib/ad5940.c ****     *(volatile uint32_t *)(RegAddr+0x400c0000) = RegData;
 784:ad5940lib/ad5940.c ****   else                                        /* 16bit register */
 785:ad5940lib/ad5940.c ****     *(volatile uint16_t *)(RegAddr+0x400c0000) = RegData;
 786:ad5940lib/ad5940.c **** }
 787:ad5940lib/ad5940.c **** 
 788:ad5940lib/ad5940.c **** static uint32_t AD5940_D2DReadReg(uint16_t RegAddr)
 789:ad5940lib/ad5940.c **** {
 790:ad5940lib/ad5940.c ****   if(((RegAddr>=0x1000)&&(RegAddr<=0x3014)))  /* 32bit register */
 791:ad5940lib/ad5940.c ****     return *(volatile uint32_t *)(RegAddr+0x400c0000);
 792:ad5940lib/ad5940.c ****   else                                        /* 16bit register */
 793:ad5940lib/ad5940.c ****     return *(volatile uint16_t *)(RegAddr+0x400c0000);
 794:ad5940lib/ad5940.c **** }
 795:ad5940lib/ad5940.c **** 
 796:ad5940lib/ad5940.c **** void AD5940_FIFORd(uint32_t *pBuffer, uint32_t uiReadCount)   
 797:ad5940lib/ad5940.c **** {
 798:ad5940lib/ad5940.c ****   while(uiReadCount--)
 799:ad5940lib/ad5940.c ****     *pBuffer++ = *(volatile uint32_t *)(0x400c206C);
 800:ad5940lib/ad5940.c **** }
 801:ad5940lib/ad5940.c **** #else
 802:ad5940lib/ad5940.c **** /**
 803:ad5940lib/ad5940.c ****  * @defgroup SPI_Block
 804:ad5940lib/ad5940.c ****  * @brief Functions to communicate with AD5940 registers following AD5940 SPI protocols
 805:ad5940lib/ad5940.c ****  * @{
 806:ad5940lib/ad5940.c ****  * 
 807:ad5940lib/ad5940.c ****  * @defgroup SPI_Block_Functions
 808:ad5940lib/ad5940.c ****  * @brief The basic SPI protocols. All functions are basic on AD5940_ReadWriteNBytes which
 809:ad5940lib/ad5940.c ****  *        provided by user.
 810:ad5940lib/ad5940.c ****  *        
 811:ad5940lib/ad5940.c ****  *  ##SPI basic protocol
 812:ad5940lib/ad5940.c ****  *        All SPI protocol starts with one-byte command word. Following are data(16B or 32B)
 813:ad5940lib/ad5940.c ****  *        There are four SPI commands available @ref SPI_Block_Const.
ARM GAS  C:\Users\root\AppData\Local\Temp\ccjNHqBU.s 			page 20


 814:ad5940lib/ad5940.c ****  * @{
 815:ad5940lib/ad5940.c **** */
 816:ad5940lib/ad5940.c **** 
 817:ad5940lib/ad5940.c **** /**
 818:ad5940lib/ad5940.c ****   @brief Using SPI to transmit one byte and return the received byte. 
 819:ad5940lib/ad5940.c ****   @param data: The 8-bit data SPI will transmit.
 820:ad5940lib/ad5940.c ****   @return received data.
 821:ad5940lib/ad5940.c **** **/
 822:ad5940lib/ad5940.c **** static unsigned char AD5940_ReadWrite8B(unsigned char data)
 823:ad5940lib/ad5940.c **** {
 824:ad5940lib/ad5940.c ****    uint8_t tx[1], rx[1];
 825:ad5940lib/ad5940.c ****    tx[0] = data;
 826:ad5940lib/ad5940.c ****    AD5940_ReadWriteNBytes(tx,rx,1);
 827:ad5940lib/ad5940.c ****    return rx[0];
 828:ad5940lib/ad5940.c **** }
 829:ad5940lib/ad5940.c **** 
 830:ad5940lib/ad5940.c **** /**
 831:ad5940lib/ad5940.c ****   @brief Using SPI to transmit two bytes and return the received bytes. 
 832:ad5940lib/ad5940.c ****   @param data: The 16-bit data SPI will transmit.
 833:ad5940lib/ad5940.c ****   @return received data.
 834:ad5940lib/ad5940.c **** **/
 835:ad5940lib/ad5940.c **** static uint16_t AD5940_ReadWrite16B(uint16_t data)
 836:ad5940lib/ad5940.c **** {
 269              		.loc 1 836 1 is_stmt 1 view -0
 270              		.cfi_startproc
 271              		@ args = 0, pretend = 0, frame = 8
 272              		@ frame_needed = 0, uses_anonymous_args = 0
 273              		.loc 1 836 1 is_stmt 0 view .LVU75
 274 0000 00B5     		push	{lr}
 275              	.LCFI5:
 276              		.cfi_def_cfa_offset 4
 277              		.cfi_offset 14, -4
 278 0002 83B0     		sub	sp, sp, #12
 279              	.LCFI6:
 280              		.cfi_def_cfa_offset 16
 837:ad5940lib/ad5940.c ****    uint8_t SendBuffer[2];
 281              		.loc 1 837 4 is_stmt 1 view .LVU76
 838:ad5940lib/ad5940.c ****    uint8_t RecvBuffer[2];
 282              		.loc 1 838 4 view .LVU77
 839:ad5940lib/ad5940.c ****    SendBuffer[0] = data>>8;
 283              		.loc 1 839 4 view .LVU78
 284              		.loc 1 839 18 is_stmt 0 view .LVU79
 285 0004 030A     		lsrs	r3, r0, #8
 286 0006 8DF80430 		strb	r3, [sp, #4]
 840:ad5940lib/ad5940.c ****    SendBuffer[1] = data&0xff;
 287              		.loc 1 840 4 is_stmt 1 view .LVU80
 288              		.loc 1 840 18 is_stmt 0 view .LVU81
 289 000a 8DF80500 		strb	r0, [sp, #5]
 841:ad5940lib/ad5940.c ****    AD5940_ReadWriteNBytes(SendBuffer,RecvBuffer,2);
 290              		.loc 1 841 4 is_stmt 1 view .LVU82
 291 000e 0222     		movs	r2, #2
 292 0010 6946     		mov	r1, sp
 293 0012 01A8     		add	r0, sp, #4
 294              	.LVL24:
 295              		.loc 1 841 4 is_stmt 0 view .LVU83
 296 0014 FFF7FEFF 		bl	AD5940_ReadWriteNBytes
 297              	.LVL25:
ARM GAS  C:\Users\root\AppData\Local\Temp\ccjNHqBU.s 			page 21


 842:ad5940lib/ad5940.c ****    return (((uint16_t)RecvBuffer[0])<<8)|RecvBuffer[1];
 298              		.loc 1 842 4 is_stmt 1 view .LVU84
 299              		.loc 1 842 33 is_stmt 0 view .LVU85
 300 0018 9DF80000 		ldrb	r0, [sp]	@ zero_extendqisi2
 301              		.loc 1 842 52 view .LVU86
 302 001c 9DF80130 		ldrb	r3, [sp, #1]	@ zero_extendqisi2
 843:ad5940lib/ad5940.c **** }
 303              		.loc 1 843 1 view .LVU87
 304 0020 43EA0020 		orr	r0, r3, r0, lsl #8
 305 0024 03B0     		add	sp, sp, #12
 306              	.LCFI7:
 307              		.cfi_def_cfa_offset 4
 308              		@ sp needed
 309 0026 5DF804FB 		ldr	pc, [sp], #4
 310              		.cfi_endproc
 311              	.LFE29:
 313              		.section	.text.AD5940_ReadWrite8B,"ax",%progbits
 314              		.align	1
 315              		.syntax unified
 316              		.thumb
 317              		.thumb_func
 318              		.fpu fpv5-d16
 320              	AD5940_ReadWrite8B:
 321              	.LVL26:
 322              	.LFB28:
 823:ad5940lib/ad5940.c ****    uint8_t tx[1], rx[1];
 323              		.loc 1 823 1 is_stmt 1 view -0
 324              		.cfi_startproc
 325              		@ args = 0, pretend = 0, frame = 8
 326              		@ frame_needed = 0, uses_anonymous_args = 0
 823:ad5940lib/ad5940.c ****    uint8_t tx[1], rx[1];
 327              		.loc 1 823 1 is_stmt 0 view .LVU89
 328 0000 00B5     		push	{lr}
 329              	.LCFI8:
 330              		.cfi_def_cfa_offset 4
 331              		.cfi_offset 14, -4
 332 0002 83B0     		sub	sp, sp, #12
 333              	.LCFI9:
 334              		.cfi_def_cfa_offset 16
 824:ad5940lib/ad5940.c ****    tx[0] = data;
 335              		.loc 1 824 4 is_stmt 1 view .LVU90
 825:ad5940lib/ad5940.c ****    AD5940_ReadWriteNBytes(tx,rx,1);
 336              		.loc 1 825 4 view .LVU91
 825:ad5940lib/ad5940.c ****    AD5940_ReadWriteNBytes(tx,rx,1);
 337              		.loc 1 825 10 is_stmt 0 view .LVU92
 338 0004 8DF80400 		strb	r0, [sp, #4]
 826:ad5940lib/ad5940.c ****    return rx[0];
 339              		.loc 1 826 4 is_stmt 1 view .LVU93
 340 0008 0122     		movs	r2, #1
 341 000a 6946     		mov	r1, sp
 342 000c 01A8     		add	r0, sp, #4
 343              	.LVL27:
 826:ad5940lib/ad5940.c ****    return rx[0];
 344              		.loc 1 826 4 is_stmt 0 view .LVU94
 345 000e FFF7FEFF 		bl	AD5940_ReadWriteNBytes
 346              	.LVL28:
 827:ad5940lib/ad5940.c **** }
ARM GAS  C:\Users\root\AppData\Local\Temp\ccjNHqBU.s 			page 22


 347              		.loc 1 827 4 is_stmt 1 view .LVU95
 828:ad5940lib/ad5940.c **** 
 348              		.loc 1 828 1 is_stmt 0 view .LVU96
 349 0012 9DF80000 		ldrb	r0, [sp]	@ zero_extendqisi2
 350 0016 03B0     		add	sp, sp, #12
 351              	.LCFI10:
 352              		.cfi_def_cfa_offset 4
 353              		@ sp needed
 354 0018 5DF804FB 		ldr	pc, [sp], #4
 355              		.cfi_endproc
 356              	.LFE28:
 358              		.section	.text.AD5940_ReadWrite32B,"ax",%progbits
 359              		.align	1
 360              		.syntax unified
 361              		.thumb
 362              		.thumb_func
 363              		.fpu fpv5-d16
 365              	AD5940_ReadWrite32B:
 366              	.LVL29:
 367              	.LFB30:
 844:ad5940lib/ad5940.c **** 
 845:ad5940lib/ad5940.c **** /**
 846:ad5940lib/ad5940.c ****  * @brief Using SPI to transmit four bytes and return the received bytes. 
 847:ad5940lib/ad5940.c ****  * @param data: The 32-bit data SPI will transmit.
 848:ad5940lib/ad5940.c ****  * @return received data.
 849:ad5940lib/ad5940.c **** **/
 850:ad5940lib/ad5940.c **** static uint32_t AD5940_ReadWrite32B(uint32_t data)
 851:ad5940lib/ad5940.c **** {
 368              		.loc 1 851 1 is_stmt 1 view -0
 369              		.cfi_startproc
 370              		@ args = 0, pretend = 0, frame = 8
 371              		@ frame_needed = 0, uses_anonymous_args = 0
 372              		.loc 1 851 1 is_stmt 0 view .LVU98
 373 0000 00B5     		push	{lr}
 374              	.LCFI11:
 375              		.cfi_def_cfa_offset 4
 376              		.cfi_offset 14, -4
 377 0002 83B0     		sub	sp, sp, #12
 378              	.LCFI12:
 379              		.cfi_def_cfa_offset 16
 852:ad5940lib/ad5940.c ****    uint8_t SendBuffer[4];
 380              		.loc 1 852 4 is_stmt 1 view .LVU99
 853:ad5940lib/ad5940.c ****    uint8_t RecvBuffer[4];
 381              		.loc 1 853 4 view .LVU100
 854:ad5940lib/ad5940.c ****   
 855:ad5940lib/ad5940.c ****    SendBuffer[0] = (data>>24)&0xff;
 382              		.loc 1 855 4 view .LVU101
 383              		.loc 1 855 25 is_stmt 0 view .LVU102
 384 0004 030E     		lsrs	r3, r0, #24
 385              		.loc 1 855 18 view .LVU103
 386 0006 8DF80430 		strb	r3, [sp, #4]
 856:ad5940lib/ad5940.c ****    SendBuffer[1] = (data>>16)&0xff;
 387              		.loc 1 856 4 is_stmt 1 view .LVU104
 388              		.loc 1 856 25 is_stmt 0 view .LVU105
 389 000a 030C     		lsrs	r3, r0, #16
 390              		.loc 1 856 18 view .LVU106
 391 000c 8DF80530 		strb	r3, [sp, #5]
ARM GAS  C:\Users\root\AppData\Local\Temp\ccjNHqBU.s 			page 23


 857:ad5940lib/ad5940.c ****    SendBuffer[2] = (data>> 8)&0xff;
 392              		.loc 1 857 4 is_stmt 1 view .LVU107
 393              		.loc 1 857 25 is_stmt 0 view .LVU108
 394 0010 030A     		lsrs	r3, r0, #8
 395              		.loc 1 857 18 view .LVU109
 396 0012 8DF80630 		strb	r3, [sp, #6]
 858:ad5940lib/ad5940.c ****    SendBuffer[3] = (data    )&0xff;
 397              		.loc 1 858 4 is_stmt 1 view .LVU110
 398              		.loc 1 858 18 is_stmt 0 view .LVU111
 399 0016 8DF80700 		strb	r0, [sp, #7]
 859:ad5940lib/ad5940.c ****    AD5940_ReadWriteNBytes(SendBuffer,RecvBuffer,4);
 400              		.loc 1 859 4 is_stmt 1 view .LVU112
 401 001a 0422     		movs	r2, #4
 402 001c 6946     		mov	r1, sp
 403 001e 0DEB0200 		add	r0, sp, r2
 404              	.LVL30:
 405              		.loc 1 859 4 is_stmt 0 view .LVU113
 406 0022 FFF7FEFF 		bl	AD5940_ReadWriteNBytes
 407              	.LVL31:
 860:ad5940lib/ad5940.c ****    return (((uint32_t)RecvBuffer[0])<<24)|(((uint32_t)RecvBuffer[1])<<16)|(((uint32_t)RecvBuffer[2]
 408              		.loc 1 860 4 is_stmt 1 view .LVU114
 409              		.loc 1 860 33 is_stmt 0 view .LVU115
 410 0026 9DF80000 		ldrb	r0, [sp]	@ zero_extendqisi2
 411              		.loc 1 860 65 view .LVU116
 412 002a 9DF80130 		ldrb	r3, [sp, #1]	@ zero_extendqisi2
 413              		.loc 1 860 69 view .LVU117
 414 002e 1B04     		lsls	r3, r3, #16
 415              		.loc 1 860 42 view .LVU118
 416 0030 43EA0063 		orr	r3, r3, r0, lsl #24
 417              		.loc 1 860 97 view .LVU119
 418 0034 9DF80200 		ldrb	r0, [sp, #2]	@ zero_extendqisi2
 419              		.loc 1 860 74 view .LVU120
 420 0038 43EA0023 		orr	r3, r3, r0, lsl #8
 421              		.loc 1 860 116 view .LVU121
 422 003c 9DF80300 		ldrb	r0, [sp, #3]	@ zero_extendqisi2
 861:ad5940lib/ad5940.c **** }
 423              		.loc 1 861 1 view .LVU122
 424 0040 1843     		orrs	r0, r0, r3
 425 0042 03B0     		add	sp, sp, #12
 426              	.LCFI13:
 427              		.cfi_def_cfa_offset 4
 428              		@ sp needed
 429 0044 5DF804FB 		ldr	pc, [sp], #4
 430              		.cfi_endproc
 431              	.LFE30:
 433              		.section	.text.AD5940_SPIWriteReg,"ax",%progbits
 434              		.align	1
 435              		.syntax unified
 436              		.thumb
 437              		.thumb_func
 438              		.fpu fpv5-d16
 440              	AD5940_SPIWriteReg:
 441              	.LVL32:
 442              	.LFB31:
 862:ad5940lib/ad5940.c **** 
 863:ad5940lib/ad5940.c **** /**
 864:ad5940lib/ad5940.c ****  * @brief Write register through SPI.
ARM GAS  C:\Users\root\AppData\Local\Temp\ccjNHqBU.s 			page 24


 865:ad5940lib/ad5940.c ****  * @param RegAddr: The register address.
 866:ad5940lib/ad5940.c ****  * @param RegData: The register data.
 867:ad5940lib/ad5940.c ****  * @return Return None.
 868:ad5940lib/ad5940.c **** **/
 869:ad5940lib/ad5940.c **** static void AD5940_SPIWriteReg(uint16_t RegAddr, uint32_t RegData)
 870:ad5940lib/ad5940.c **** {  
 443              		.loc 1 870 1 is_stmt 1 view -0
 444              		.cfi_startproc
 445              		@ args = 0, pretend = 0, frame = 0
 446              		@ frame_needed = 0, uses_anonymous_args = 0
 447              		.loc 1 870 1 is_stmt 0 view .LVU124
 448 0000 38B5     		push	{r3, r4, r5, lr}
 449              	.LCFI14:
 450              		.cfi_def_cfa_offset 16
 451              		.cfi_offset 3, -16
 452              		.cfi_offset 4, -12
 453              		.cfi_offset 5, -8
 454              		.cfi_offset 14, -4
 455 0002 0446     		mov	r4, r0
 456 0004 0D46     		mov	r5, r1
 871:ad5940lib/ad5940.c ****   /* Set register address */
 872:ad5940lib/ad5940.c ****   AD5940_CsClr();
 457              		.loc 1 872 3 is_stmt 1 view .LVU125
 458 0006 FFF7FEFF 		bl	AD5940_CsClr
 459              	.LVL33:
 873:ad5940lib/ad5940.c ****   AD5940_ReadWrite8B(SPICMD_SETADDR);
 460              		.loc 1 873 3 view .LVU126
 461 000a 2020     		movs	r0, #32
 462 000c FFF7FEFF 		bl	AD5940_ReadWrite8B
 463              	.LVL34:
 874:ad5940lib/ad5940.c ****   AD5940_ReadWrite16B(RegAddr);
 464              		.loc 1 874 3 view .LVU127
 465 0010 2046     		mov	r0, r4
 466 0012 FFF7FEFF 		bl	AD5940_ReadWrite16B
 467              	.LVL35:
 875:ad5940lib/ad5940.c ****   AD5940_CsSet();
 468              		.loc 1 875 3 view .LVU128
 469 0016 FFF7FEFF 		bl	AD5940_CsSet
 470              	.LVL36:
 876:ad5940lib/ad5940.c ****   /* Add delay here to meet the SPI timing. */
 877:ad5940lib/ad5940.c ****   AD5940_CsClr();
 471              		.loc 1 877 3 view .LVU129
 472 001a FFF7FEFF 		bl	AD5940_CsClr
 473              	.LVL37:
 878:ad5940lib/ad5940.c ****   AD5940_ReadWrite8B(SPICMD_WRITEREG);
 474              		.loc 1 878 3 view .LVU130
 475 001e 2D20     		movs	r0, #45
 476 0020 FFF7FEFF 		bl	AD5940_ReadWrite8B
 477              	.LVL38:
 879:ad5940lib/ad5940.c ****   if(((RegAddr>=0x1000)&&(RegAddr<=0x3014)))
 478              		.loc 1 879 3 view .LVU131
 479              		.loc 1 879 24 is_stmt 0 view .LVU132
 480 0024 A4F58054 		sub	r4, r4, #4096
 481 0028 A4B2     		uxth	r4, r4
 482              		.loc 1 879 5 view .LVU133
 483 002a 42F21403 		movw	r3, #8212
 484 002e 9C42     		cmp	r4, r3
ARM GAS  C:\Users\root\AppData\Local\Temp\ccjNHqBU.s 			page 25


 485 0030 05D8     		bhi	.L31
 880:ad5940lib/ad5940.c ****     AD5940_ReadWrite32B(RegData);
 486              		.loc 1 880 5 is_stmt 1 view .LVU134
 487 0032 2846     		mov	r0, r5
 488 0034 FFF7FEFF 		bl	AD5940_ReadWrite32B
 489              	.LVL39:
 490              	.L32:
 881:ad5940lib/ad5940.c ****   else
 882:ad5940lib/ad5940.c ****     AD5940_ReadWrite16B(RegData);
 883:ad5940lib/ad5940.c ****   AD5940_CsSet();
 491              		.loc 1 883 3 view .LVU135
 492 0038 FFF7FEFF 		bl	AD5940_CsSet
 493              	.LVL40:
 884:ad5940lib/ad5940.c **** }
 494              		.loc 1 884 1 is_stmt 0 view .LVU136
 495 003c 38BD     		pop	{r3, r4, r5, pc}
 496              	.LVL41:
 497              	.L31:
 882:ad5940lib/ad5940.c ****   AD5940_CsSet();
 498              		.loc 1 882 5 is_stmt 1 view .LVU137
 499 003e A8B2     		uxth	r0, r5
 500 0040 FFF7FEFF 		bl	AD5940_ReadWrite16B
 501              	.LVL42:
 502 0044 F8E7     		b	.L32
 503              		.cfi_endproc
 504              	.LFE31:
 506              		.section	.text.AD5940_SPIReadReg,"ax",%progbits
 507              		.align	1
 508              		.syntax unified
 509              		.thumb
 510              		.thumb_func
 511              		.fpu fpv5-d16
 513              	AD5940_SPIReadReg:
 514              	.LVL43:
 515              	.LFB32:
 885:ad5940lib/ad5940.c **** 
 886:ad5940lib/ad5940.c **** /**
 887:ad5940lib/ad5940.c ****  * @brief Read register through SPI.
 888:ad5940lib/ad5940.c ****  * @param RegAddr: The register address.
 889:ad5940lib/ad5940.c ****  * @return Return register data.
 890:ad5940lib/ad5940.c **** **/
 891:ad5940lib/ad5940.c **** static uint32_t AD5940_SPIReadReg(uint16_t RegAddr)
 892:ad5940lib/ad5940.c **** {  
 516              		.loc 1 892 1 view -0
 517              		.cfi_startproc
 518              		@ args = 0, pretend = 0, frame = 0
 519              		@ frame_needed = 0, uses_anonymous_args = 0
 520              		.loc 1 892 1 is_stmt 0 view .LVU139
 521 0000 10B5     		push	{r4, lr}
 522              	.LCFI15:
 523              		.cfi_def_cfa_offset 8
 524              		.cfi_offset 4, -8
 525              		.cfi_offset 14, -4
 526 0002 0446     		mov	r4, r0
 893:ad5940lib/ad5940.c ****   uint32_t Data = 0;
 527              		.loc 1 893 3 is_stmt 1 view .LVU140
 528              	.LVL44:
ARM GAS  C:\Users\root\AppData\Local\Temp\ccjNHqBU.s 			page 26


 894:ad5940lib/ad5940.c ****   /* Set register address that we want to read */
 895:ad5940lib/ad5940.c ****   AD5940_CsClr();
 529              		.loc 1 895 3 view .LVU141
 530 0004 FFF7FEFF 		bl	AD5940_CsClr
 531              	.LVL45:
 896:ad5940lib/ad5940.c ****   AD5940_ReadWrite8B(SPICMD_SETADDR);
 532              		.loc 1 896 3 view .LVU142
 533 0008 2020     		movs	r0, #32
 534 000a FFF7FEFF 		bl	AD5940_ReadWrite8B
 535              	.LVL46:
 897:ad5940lib/ad5940.c ****   AD5940_ReadWrite16B(RegAddr);
 536              		.loc 1 897 3 view .LVU143
 537 000e 2046     		mov	r0, r4
 538 0010 FFF7FEFF 		bl	AD5940_ReadWrite16B
 539              	.LVL47:
 898:ad5940lib/ad5940.c ****   AD5940_CsSet();
 540              		.loc 1 898 3 view .LVU144
 541 0014 FFF7FEFF 		bl	AD5940_CsSet
 542              	.LVL48:
 899:ad5940lib/ad5940.c ****   /* Read it */
 900:ad5940lib/ad5940.c ****   AD5940_CsClr();
 543              		.loc 1 900 3 view .LVU145
 544 0018 FFF7FEFF 		bl	AD5940_CsClr
 545              	.LVL49:
 901:ad5940lib/ad5940.c ****   AD5940_ReadWrite8B(SPICMD_READREG);
 546              		.loc 1 901 3 view .LVU146
 547 001c 6D20     		movs	r0, #109
 548 001e FFF7FEFF 		bl	AD5940_ReadWrite8B
 549              	.LVL50:
 902:ad5940lib/ad5940.c ****   AD5940_ReadWrite8B(0);  //Dummy read
 550              		.loc 1 902 3 view .LVU147
 551 0022 0020     		movs	r0, #0
 552 0024 FFF7FEFF 		bl	AD5940_ReadWrite8B
 553              	.LVL51:
 903:ad5940lib/ad5940.c ****   /* The real data is coming */
 904:ad5940lib/ad5940.c ****   if((RegAddr>=0x1000)&&(RegAddr<=0x3014))
 554              		.loc 1 904 3 view .LVU148
 555              		.loc 1 904 23 is_stmt 0 view .LVU149
 556 0028 A4F58054 		sub	r4, r4, #4096
 557 002c A4B2     		uxth	r4, r4
 558              		.loc 1 904 5 view .LVU150
 559 002e 42F21403 		movw	r3, #8212
 560 0032 9C42     		cmp	r4, r3
 561 0034 07D8     		bhi	.L35
 905:ad5940lib/ad5940.c ****     Data = AD5940_ReadWrite32B(0);
 562              		.loc 1 905 5 is_stmt 1 view .LVU151
 563              		.loc 1 905 12 is_stmt 0 view .LVU152
 564 0036 0020     		movs	r0, #0
 565 0038 FFF7FEFF 		bl	AD5940_ReadWrite32B
 566              	.LVL52:
 567 003c 0446     		mov	r4, r0
 568              	.LVL53:
 569              	.L36:
 906:ad5940lib/ad5940.c ****   else
 907:ad5940lib/ad5940.c ****     Data = AD5940_ReadWrite16B(0);
 908:ad5940lib/ad5940.c ****   AD5940_CsSet();
 570              		.loc 1 908 3 is_stmt 1 view .LVU153
ARM GAS  C:\Users\root\AppData\Local\Temp\ccjNHqBU.s 			page 27


 571 003e FFF7FEFF 		bl	AD5940_CsSet
 572              	.LVL54:
 909:ad5940lib/ad5940.c ****   return Data;
 573              		.loc 1 909 3 view .LVU154
 910:ad5940lib/ad5940.c **** }
 574              		.loc 1 910 1 is_stmt 0 view .LVU155
 575 0042 2046     		mov	r0, r4
 576 0044 10BD     		pop	{r4, pc}
 577              	.LVL55:
 578              	.L35:
 907:ad5940lib/ad5940.c ****   AD5940_CsSet();
 579              		.loc 1 907 5 is_stmt 1 view .LVU156
 907:ad5940lib/ad5940.c ****   AD5940_CsSet();
 580              		.loc 1 907 12 is_stmt 0 view .LVU157
 581 0046 0020     		movs	r0, #0
 582 0048 FFF7FEFF 		bl	AD5940_ReadWrite16B
 583              	.LVL56:
 907:ad5940lib/ad5940.c ****   AD5940_CsSet();
 584              		.loc 1 907 10 view .LVU158
 585 004c 0446     		mov	r4, r0
 586              	.LVL57:
 907:ad5940lib/ad5940.c ****   AD5940_CsSet();
 587              		.loc 1 907 10 view .LVU159
 588 004e F6E7     		b	.L36
 589              		.cfi_endproc
 590              	.LFE32:
 592              		.section	.text.AD5940_SEQGenGetRegDefault,"ax",%progbits
 593              		.align	1
 594              		.syntax unified
 595              		.thumb
 596              		.thumb_func
 597              		.fpu fpv5-d16
 599              	AD5940_SEQGenGetRegDefault:
 600              	.LVL58:
 601              	.LFB5:
 155:ad5940lib/ad5940.c **** #ifdef CHIPSEL_M355
 602              		.loc 1 155 1 is_stmt 1 view -0
 603              		.cfi_startproc
 604              		@ args = 0, pretend = 0, frame = 0
 605              		@ frame_needed = 0, uses_anonymous_args = 0
 155:ad5940lib/ad5940.c **** #ifdef CHIPSEL_M355
 606              		.loc 1 155 1 is_stmt 0 view .LVU161
 607 0000 10B5     		push	{r4, lr}
 608              	.LCFI16:
 609              		.cfi_def_cfa_offset 8
 610              		.cfi_offset 4, -8
 611              		.cfi_offset 14, -4
 612 0002 0C46     		mov	r4, r1
 159:ad5940lib/ad5940.c **** #endif
 613              		.loc 1 159 3 is_stmt 1 view .LVU162
 159:ad5940lib/ad5940.c **** #endif
 614              		.loc 1 159 15 is_stmt 0 view .LVU163
 615 0004 80B2     		uxth	r0, r0
 616              	.LVL59:
 159:ad5940lib/ad5940.c **** #endif
 617              		.loc 1 159 15 view .LVU164
 618 0006 FFF7FEFF 		bl	AD5940_SPIReadReg
ARM GAS  C:\Users\root\AppData\Local\Temp\ccjNHqBU.s 			page 28


 619              	.LVL60:
 159:ad5940lib/ad5940.c **** #endif
 620              		.loc 1 159 13 view .LVU165
 621 000a 2060     		str	r0, [r4]
 161:ad5940lib/ad5940.c **** }
 622              		.loc 1 161 3 is_stmt 1 view .LVU166
 162:ad5940lib/ad5940.c **** 
 623              		.loc 1 162 1 is_stmt 0 view .LVU167
 624 000c 0020     		movs	r0, #0
 625 000e 10BD     		pop	{r4, pc}
 162:ad5940lib/ad5940.c **** 
 626              		.loc 1 162 1 view .LVU168
 627              		.cfi_endproc
 628              	.LFE5:
 630              		.section	.text.AD5940_SEQReadReg,"ax",%progbits
 631              		.align	1
 632              		.syntax unified
 633              		.thumb
 634              		.thumb_func
 635              		.fpu fpv5-d16
 637              	AD5940_SEQReadReg:
 638              	.LVL61:
 639              	.LFB7:
 194:ad5940lib/ad5940.c ****   uint32_t RegIndex, RegData;
 640              		.loc 1 194 1 is_stmt 1 view -0
 641              		.cfi_startproc
 642              		@ args = 0, pretend = 0, frame = 8
 643              		@ frame_needed = 0, uses_anonymous_args = 0
 194:ad5940lib/ad5940.c ****   uint32_t RegIndex, RegData;
 644              		.loc 1 194 1 is_stmt 0 view .LVU170
 645 0000 10B5     		push	{r4, lr}
 646              	.LCFI17:
 647              		.cfi_def_cfa_offset 8
 648              		.cfi_offset 4, -8
 649              		.cfi_offset 14, -4
 650 0002 82B0     		sub	sp, sp, #8
 651              	.LCFI18:
 652              		.cfi_def_cfa_offset 16
 653 0004 0446     		mov	r4, r0
 195:ad5940lib/ad5940.c ****   
 654              		.loc 1 195 3 is_stmt 1 view .LVU171
 197:ad5940lib/ad5940.c ****   {
 655              		.loc 1 197 3 view .LVU172
 197:ad5940lib/ad5940.c ****   {
 656              		.loc 1 197 6 is_stmt 0 view .LVU173
 657 0006 01A9     		add	r1, sp, #4
 658 0008 FFF7FEFF 		bl	AD5940_SEQGenSearchReg
 659              	.LVL62:
 197:ad5940lib/ad5940.c ****   {
 660              		.loc 1 197 5 view .LVU174
 661 000c 50B9     		cbnz	r0, .L44
 206:ad5940lib/ad5940.c ****   }
 662              		.loc 1 206 5 is_stmt 1 view .LVU175
 206:ad5940lib/ad5940.c ****   }
 663              		.loc 1 206 23 is_stmt 0 view .LVU176
 664 000e 0A4B     		ldr	r3, .L45
 665 0010 1B69     		ldr	r3, [r3, #16]
ARM GAS  C:\Users\root\AppData\Local\Temp\ccjNHqBU.s 			page 29


 206:ad5940lib/ad5940.c ****   }
 666              		.loc 1 206 32 view .LVU177
 667 0012 019A     		ldr	r2, [sp, #4]
 206:ad5940lib/ad5940.c ****   }
 668              		.loc 1 206 42 view .LVU178
 669 0014 53F82230 		ldr	r3, [r3, r2, lsl #2]
 670 0018 C3F31723 		ubfx	r3, r3, #8, #24
 206:ad5940lib/ad5940.c ****   }
 671              		.loc 1 206 13 view .LVU179
 672 001c 0093     		str	r3, [sp]
 673              	.L42:
 209:ad5940lib/ad5940.c **** }
 674              		.loc 1 209 3 is_stmt 1 view .LVU180
 210:ad5940lib/ad5940.c **** 
 675              		.loc 1 210 1 is_stmt 0 view .LVU181
 676 001e 0098     		ldr	r0, [sp]
 677 0020 02B0     		add	sp, sp, #8
 678              	.LCFI19:
 679              		.cfi_remember_state
 680              		.cfi_def_cfa_offset 8
 681              		@ sp needed
 682 0022 10BD     		pop	{r4, pc}
 683              	.L44:
 684              	.LCFI20:
 685              		.cfi_restore_state
 200:ad5940lib/ad5940.c ****     AD5940_SEQRegInfoInsert(RegAddr, RegData);
 686              		.loc 1 200 5 is_stmt 1 view .LVU182
 687 0024 6946     		mov	r1, sp
 688 0026 2046     		mov	r0, r4
 689 0028 FFF7FEFF 		bl	AD5940_SEQGenGetRegDefault
 690              	.LVL63:
 201:ad5940lib/ad5940.c ****   }
 691              		.loc 1 201 5 view .LVU183
 692 002c 0099     		ldr	r1, [sp]
 693 002e 2046     		mov	r0, r4
 694 0030 FFF7FEFF 		bl	AD5940_SEQRegInfoInsert
 695              	.LVL64:
 696 0034 F3E7     		b	.L42
 697              	.L46:
 698 0036 00BF     		.align	2
 699              	.L45:
 700 0038 00000000 		.word	SeqGenDB
 701              		.cfi_endproc
 702              	.LFE7:
 704              		.section	.text.AD5940_SEQGenInsert,"ax",%progbits
 705              		.align	1
 706              		.global	AD5940_SEQGenInsert
 707              		.syntax unified
 708              		.thumb
 709              		.thumb_func
 710              		.fpu fpv5-d16
 712              	AD5940_SEQGenInsert:
 713              	.LVL65:
 714              	.LFB3:
 113:ad5940lib/ad5940.c ****   uint32_t temp;
 715              		.loc 1 113 1 view -0
 716              		.cfi_startproc
ARM GAS  C:\Users\root\AppData\Local\Temp\ccjNHqBU.s 			page 30


 717              		@ args = 0, pretend = 0, frame = 0
 718              		@ frame_needed = 0, uses_anonymous_args = 0
 719              		@ link register save eliminated.
 114:ad5940lib/ad5940.c ****   temp  = SeqGenDB.RegCount + SeqGenDB.SeqLen;
 720              		.loc 1 114 3 view .LVU185
 115:ad5940lib/ad5940.c ****   /* Generate Sequence command */
 721              		.loc 1 115 3 view .LVU186
 115:ad5940lib/ad5940.c ****   /* Generate Sequence command */
 722              		.loc 1 115 19 is_stmt 0 view .LVU187
 723 0000 094A     		ldr	r2, .L50
 724 0002 5369     		ldr	r3, [r2, #20]
 115:ad5940lib/ad5940.c ****   /* Generate Sequence command */
 725              		.loc 1 115 39 view .LVU188
 726 0004 D168     		ldr	r1, [r2, #12]
 115:ad5940lib/ad5940.c ****   /* Generate Sequence command */
 727              		.loc 1 115 9 view .LVU189
 728 0006 0B44     		add	r3, r3, r1
 729              	.LVL66:
 117:ad5940lib/ad5940.c ****   {
 730              		.loc 1 117 3 is_stmt 1 view .LVU190
 117:ad5940lib/ad5940.c ****   {
 731              		.loc 1 117 21 is_stmt 0 view .LVU191
 732 0008 5268     		ldr	r2, [r2, #4]
 117:ad5940lib/ad5940.c ****   {
 733              		.loc 1 117 5 view .LVU192
 734 000a 9A42     		cmp	r2, r3
 735 000c 07D9     		bls	.L48
 119:ad5940lib/ad5940.c ****     SeqGenDB.SeqLen ++;
 736              		.loc 1 119 5 is_stmt 1 view .LVU193
 119:ad5940lib/ad5940.c ****     SeqGenDB.SeqLen ++;
 737              		.loc 1 119 13 is_stmt 0 view .LVU194
 738 000e 064B     		ldr	r3, .L50
 739              	.LVL67:
 119:ad5940lib/ad5940.c ****     SeqGenDB.SeqLen ++;
 740              		.loc 1 119 13 view .LVU195
 741 0010 9A68     		ldr	r2, [r3, #8]
 119:ad5940lib/ad5940.c ****     SeqGenDB.SeqLen ++;
 742              		.loc 1 119 40 view .LVU196
 743 0012 42F82100 		str	r0, [r2, r1, lsl #2]
 744              	.LVL68:
 120:ad5940lib/ad5940.c ****   }
 745              		.loc 1 120 5 is_stmt 1 view .LVU197
 120:ad5940lib/ad5940.c ****   }
 746              		.loc 1 120 13 is_stmt 0 view .LVU198
 747 0016 DA68     		ldr	r2, [r3, #12]
 120:ad5940lib/ad5940.c ****   }
 748              		.loc 1 120 21 view .LVU199
 749 0018 0132     		adds	r2, r2, #1
 750 001a DA60     		str	r2, [r3, #12]
 751 001c 7047     		bx	lr
 752              	.LVL69:
 753              	.L48:
 123:ad5940lib/ad5940.c **** }
 754              		.loc 1 123 5 is_stmt 1 view .LVU200
 123:ad5940lib/ad5940.c **** }
 755              		.loc 1 123 24 is_stmt 0 view .LVU201
 756 001e 024B     		ldr	r3, .L50
ARM GAS  C:\Users\root\AppData\Local\Temp\ccjNHqBU.s 			page 31


 757              	.LVL70:
 123:ad5940lib/ad5940.c **** }
 758              		.loc 1 123 24 view .LVU202
 759 0020 6FF00302 		mvn	r2, #3
 760 0024 9A61     		str	r2, [r3, #24]
 124:ad5940lib/ad5940.c **** 
 761              		.loc 1 124 1 view .LVU203
 762 0026 7047     		bx	lr
 763              	.L51:
 764              		.align	2
 765              	.L50:
 766 0028 00000000 		.word	SeqGenDB
 767              		.cfi_endproc
 768              	.LFE3:
 770              		.section	.text.AD5940_SEQWriteReg,"ax",%progbits
 771              		.align	1
 772              		.syntax unified
 773              		.thumb
 774              		.thumb_func
 775              		.fpu fpv5-d16
 777              	AD5940_SEQWriteReg:
 778              	.LVL71:
 779              	.LFB8:
 220:ad5940lib/ad5940.c ****   uint32_t RegIndex;
 780              		.loc 1 220 1 is_stmt 1 view -0
 781              		.cfi_startproc
 782              		@ args = 0, pretend = 0, frame = 8
 783              		@ frame_needed = 0, uses_anonymous_args = 0
 221:ad5940lib/ad5940.c ****   
 784              		.loc 1 221 3 view .LVU205
 223:ad5940lib/ad5940.c ****   {
 785              		.loc 1 223 3 view .LVU206
 223:ad5940lib/ad5940.c ****   {
 786              		.loc 1 223 5 is_stmt 0 view .LVU207
 787 0000 B0F5085F 		cmp	r0, #8704
 788 0004 04D3     		bcc	.L53
 225:ad5940lib/ad5940.c ****     return;
 789              		.loc 1 225 5 is_stmt 1 view .LVU208
 225:ad5940lib/ad5940.c ****     return;
 790              		.loc 1 225 24 is_stmt 0 view .LVU209
 791 0006 194B     		ldr	r3, .L60
 792 0008 6FF00402 		mvn	r2, #4
 793 000c 9A61     		str	r2, [r3, #24]
 226:ad5940lib/ad5940.c ****   }
 794              		.loc 1 226 5 is_stmt 1 view .LVU210
 795 000e 7047     		bx	lr
 796              	.L53:
 220:ad5940lib/ad5940.c ****   uint32_t RegIndex;
 797              		.loc 1 220 1 is_stmt 0 view .LVU211
 798 0010 30B5     		push	{r4, r5, lr}
 799              	.LCFI21:
 800              		.cfi_def_cfa_offset 12
 801              		.cfi_offset 4, -12
 802              		.cfi_offset 5, -8
 803              		.cfi_offset 14, -4
 804 0012 83B0     		sub	sp, sp, #12
 805              	.LCFI22:
ARM GAS  C:\Users\root\AppData\Local\Temp\ccjNHqBU.s 			page 32


 806              		.cfi_def_cfa_offset 24
 807 0014 0446     		mov	r4, r0
 808 0016 0D46     		mov	r5, r1
 229:ad5940lib/ad5940.c ****   {
 809              		.loc 1 229 3 is_stmt 1 view .LVU212
 229:ad5940lib/ad5940.c ****   {
 810              		.loc 1 229 6 is_stmt 0 view .LVU213
 811 0018 01A9     		add	r1, sp, #4
 812              	.LVL72:
 229:ad5940lib/ad5940.c ****   {
 813              		.loc 1 229 6 view .LVU214
 814 001a FFF7FEFF 		bl	AD5940_SEQGenSearchReg
 815              	.LVL73:
 229:ad5940lib/ad5940.c ****   {
 816              		.loc 1 229 5 view .LVU215
 817 001e A8B9     		cbnz	r0, .L55
 232:ad5940lib/ad5940.c ****     /* Generate Sequence command */
 818              		.loc 1 232 5 is_stmt 1 view .LVU216
 232:ad5940lib/ad5940.c ****     /* Generate Sequence command */
 819              		.loc 1 232 13 is_stmt 0 view .LVU217
 820 0020 124B     		ldr	r3, .L60
 821 0022 1B69     		ldr	r3, [r3, #16]
 232:ad5940lib/ad5940.c ****     /* Generate Sequence command */
 822              		.loc 1 232 22 view .LVU218
 823 0024 019A     		ldr	r2, [sp, #4]
 232:ad5940lib/ad5940.c ****     /* Generate Sequence command */
 824              		.loc 1 232 42 view .LVU219
 825 0026 53F82210 		ldr	r1, [r3, r2, lsl #2]
 826 002a 65F31F21 		bfi	r1, r5, #8, #24
 827 002e 43F82210 		str	r1, [r3, r2, lsl #2]
 234:ad5940lib/ad5940.c ****   }
 828              		.loc 1 234 5 is_stmt 1 view .LVU220
 234:ad5940lib/ad5940.c ****   }
 829              		.loc 1 234 25 is_stmt 0 view .LVU221
 830 0032 A008     		lsrs	r0, r4, #2
 831 0034 0006     		lsls	r0, r0, #24
 832 0036 00F0FE40 		and	r0, r0, #2130706432
 833 003a 25F07F41 		bic	r1, r5, #-16777216
 834 003e 0843     		orrs	r0, r0, r1
 234:ad5940lib/ad5940.c ****   }
 835              		.loc 1 234 5 view .LVU222
 836 0040 40F00040 		orr	r0, r0, #-2147483648
 837 0044 FFF7FEFF 		bl	AD5940_SEQGenInsert
 838              	.LVL74:
 839              	.L52:
 242:ad5940lib/ad5940.c **** 
 840              		.loc 1 242 1 view .LVU223
 841 0048 03B0     		add	sp, sp, #12
 842              	.LCFI23:
 843              		.cfi_remember_state
 844              		.cfi_def_cfa_offset 12
 845              		@ sp needed
 846 004a 30BD     		pop	{r4, r5, pc}
 847              	.LVL75:
 848              	.L55:
 849              	.LCFI24:
 850              		.cfi_restore_state
ARM GAS  C:\Users\root\AppData\Local\Temp\ccjNHqBU.s 			page 33


 238:ad5940lib/ad5940.c ****     /* Generate Sequence command */
 851              		.loc 1 238 5 is_stmt 1 view .LVU224
 852 004c 2946     		mov	r1, r5
 853 004e 2046     		mov	r0, r4
 854 0050 FFF7FEFF 		bl	AD5940_SEQRegInfoInsert
 855              	.LVL76:
 240:ad5940lib/ad5940.c ****   }
 856              		.loc 1 240 5 view .LVU225
 240:ad5940lib/ad5940.c ****   }
 857              		.loc 1 240 25 is_stmt 0 view .LVU226
 858 0054 A008     		lsrs	r0, r4, #2
 859 0056 0006     		lsls	r0, r0, #24
 860 0058 00F0FE40 		and	r0, r0, #2130706432
 861 005c 25F07F41 		bic	r1, r5, #-16777216
 862 0060 0843     		orrs	r0, r0, r1
 240:ad5940lib/ad5940.c ****   }
 863              		.loc 1 240 5 view .LVU227
 864 0062 40F00040 		orr	r0, r0, #-2147483648
 865 0066 FFF7FEFF 		bl	AD5940_SEQGenInsert
 866              	.LVL77:
 867 006a EDE7     		b	.L52
 868              	.L61:
 869              		.align	2
 870              	.L60:
 871 006c 00000000 		.word	SeqGenDB
 872              		.cfi_endproc
 873              	.LFE8:
 875              		.section	.text.AD5940_SEQGenInit,"ax",%progbits
 876              		.align	1
 877              		.global	AD5940_SEQGenInit
 878              		.syntax unified
 879              		.thumb
 880              		.thumb_func
 881              		.fpu fpv5-d16
 883              	AD5940_SEQGenInit:
 884              	.LVL78:
 885              	.LFB9:
 258:ad5940lib/ad5940.c ****   if(BufferSize < 2) return;
 886              		.loc 1 258 1 is_stmt 1 view -0
 887              		.cfi_startproc
 888              		@ args = 0, pretend = 0, frame = 0
 889              		@ frame_needed = 0, uses_anonymous_args = 0
 890              		@ link register save eliminated.
 259:ad5940lib/ad5940.c ****   SeqGenDB.BufferSize = BufferSize;
 891              		.loc 1 259 3 view .LVU229
 259:ad5940lib/ad5940.c ****   SeqGenDB.BufferSize = BufferSize;
 892              		.loc 1 259 5 is_stmt 0 view .LVU230
 893 0000 0129     		cmp	r1, #1
 894 0002 0DD9     		bls	.L62
 260:ad5940lib/ad5940.c ****   SeqGenDB.pSeqBuff = pBuffer;
 895              		.loc 1 260 3 is_stmt 1 view .LVU231
 260:ad5940lib/ad5940.c ****   SeqGenDB.pSeqBuff = pBuffer;
 896              		.loc 1 260 23 is_stmt 0 view .LVU232
 897 0004 074B     		ldr	r3, .L64
 898 0006 5960     		str	r1, [r3, #4]
 261:ad5940lib/ad5940.c ****   SeqGenDB.pRegInfo = (SEQGenRegInfo_Type*)pBuffer + BufferSize - 1; /* Point to the last element i
 899              		.loc 1 261 3 is_stmt 1 view .LVU233
ARM GAS  C:\Users\root\AppData\Local\Temp\ccjNHqBU.s 			page 34


 261:ad5940lib/ad5940.c ****   SeqGenDB.pRegInfo = (SEQGenRegInfo_Type*)pBuffer + BufferSize - 1; /* Point to the last element i
 900              		.loc 1 261 21 is_stmt 0 view .LVU234
 901 0008 9860     		str	r0, [r3, #8]
 262:ad5940lib/ad5940.c ****   SeqGenDB.SeqLen = 0;
 902              		.loc 1 262 3 is_stmt 1 view .LVU235
 262:ad5940lib/ad5940.c ****   SeqGenDB.SeqLen = 0;
 903              		.loc 1 262 65 is_stmt 0 view .LVU236
 904 000a 6FF04042 		mvn	r2, #-1073741824
 905 000e 0A44     		add	r2, r2, r1
 906 0010 00EB8200 		add	r0, r0, r2, lsl #2
 907              	.LVL79:
 262:ad5940lib/ad5940.c ****   SeqGenDB.SeqLen = 0;
 908              		.loc 1 262 21 view .LVU237
 909 0014 1861     		str	r0, [r3, #16]
 263:ad5940lib/ad5940.c **** 
 910              		.loc 1 263 3 is_stmt 1 view .LVU238
 263:ad5940lib/ad5940.c **** 
 911              		.loc 1 263 19 is_stmt 0 view .LVU239
 912 0016 0022     		movs	r2, #0
 913 0018 DA60     		str	r2, [r3, #12]
 265:ad5940lib/ad5940.c ****   SeqGenDB.LastError = AD5940ERR_OK;
 914              		.loc 1 265 3 is_stmt 1 view .LVU240
 265:ad5940lib/ad5940.c ****   SeqGenDB.LastError = AD5940ERR_OK;
 915              		.loc 1 265 21 is_stmt 0 view .LVU241
 916 001a 5A61     		str	r2, [r3, #20]
 266:ad5940lib/ad5940.c ****   SeqGenDB.EngineStart = bFALSE;
 917              		.loc 1 266 3 is_stmt 1 view .LVU242
 266:ad5940lib/ad5940.c ****   SeqGenDB.EngineStart = bFALSE;
 918              		.loc 1 266 22 is_stmt 0 view .LVU243
 919 001c 9A61     		str	r2, [r3, #24]
 267:ad5940lib/ad5940.c **** }
 920              		.loc 1 267 3 is_stmt 1 view .LVU244
 267:ad5940lib/ad5940.c **** }
 921              		.loc 1 267 24 is_stmt 0 view .LVU245
 922 001e 1A70     		strb	r2, [r3]
 923              	.LVL80:
 924              	.L62:
 268:ad5940lib/ad5940.c **** 
 925              		.loc 1 268 1 view .LVU246
 926 0020 7047     		bx	lr
 927              	.L65:
 928 0022 00BF     		.align	2
 929              	.L64:
 930 0024 00000000 		.word	SeqGenDB
 931              		.cfi_endproc
 932              	.LFE9:
 934              		.section	.text.AD5940_SEQGenFetchSeq,"ax",%progbits
 935              		.align	1
 936              		.global	AD5940_SEQGenFetchSeq
 937              		.syntax unified
 938              		.thumb
 939              		.thumb_func
 940              		.fpu fpv5-d16
 942              	AD5940_SEQGenFetchSeq:
 943              	.LVL81:
 944              	.LFB10:
 277:ad5940lib/ad5940.c ****   AD5940Err lasterror;
ARM GAS  C:\Users\root\AppData\Local\Temp\ccjNHqBU.s 			page 35


 945              		.loc 1 277 1 is_stmt 1 view -0
 946              		.cfi_startproc
 947              		@ args = 0, pretend = 0, frame = 0
 948              		@ frame_needed = 0, uses_anonymous_args = 0
 949              		@ link register save eliminated.
 278:ad5940lib/ad5940.c **** 
 950              		.loc 1 278 3 view .LVU248
 280:ad5940lib/ad5940.c ****     *ppSeqCmd = SeqGenDB.pSeqBuff;  
 951              		.loc 1 280 3 view .LVU249
 280:ad5940lib/ad5940.c ****     *ppSeqCmd = SeqGenDB.pSeqBuff;  
 952              		.loc 1 280 5 is_stmt 0 view .LVU250
 953 0000 10B1     		cbz	r0, .L67
 281:ad5940lib/ad5940.c ****   if(pSeqLen)
 954              		.loc 1 281 5 is_stmt 1 view .LVU251
 281:ad5940lib/ad5940.c ****   if(pSeqLen)
 955              		.loc 1 281 25 is_stmt 0 view .LVU252
 956 0002 054A     		ldr	r2, .L69
 957 0004 9268     		ldr	r2, [r2, #8]
 281:ad5940lib/ad5940.c ****   if(pSeqLen)
 958              		.loc 1 281 15 view .LVU253
 959 0006 0260     		str	r2, [r0]
 960              	.L67:
 282:ad5940lib/ad5940.c ****     *pSeqLen = SeqGenDB.SeqLen;
 961              		.loc 1 282 3 is_stmt 1 view .LVU254
 282:ad5940lib/ad5940.c ****     *pSeqLen = SeqGenDB.SeqLen;
 962              		.loc 1 282 5 is_stmt 0 view .LVU255
 963 0008 11B1     		cbz	r1, .L68
 283:ad5940lib/ad5940.c **** 
 964              		.loc 1 283 5 is_stmt 1 view .LVU256
 283:ad5940lib/ad5940.c **** 
 965              		.loc 1 283 24 is_stmt 0 view .LVU257
 966 000a 034B     		ldr	r3, .L69
 967 000c DB68     		ldr	r3, [r3, #12]
 283:ad5940lib/ad5940.c **** 
 968              		.loc 1 283 14 view .LVU258
 969 000e 0B60     		str	r3, [r1]
 970              	.L68:
 286:ad5940lib/ad5940.c ****   //SeqGenDB.LastError = AD5940ERR_OK;  /* Clear error message */
 971              		.loc 1 286 3 is_stmt 1 view .LVU259
 972              	.LVL82:
 288:ad5940lib/ad5940.c **** }
 973              		.loc 1 288 3 view .LVU260
 289:ad5940lib/ad5940.c **** 
 974              		.loc 1 289 1 is_stmt 0 view .LVU261
 975 0010 014B     		ldr	r3, .L69
 976 0012 9869     		ldr	r0, [r3, #24]
 977              	.LVL83:
 289:ad5940lib/ad5940.c **** 
 978              		.loc 1 289 1 view .LVU262
 979 0014 7047     		bx	lr
 980              	.L70:
 981 0016 00BF     		.align	2
 982              	.L69:
 983 0018 00000000 		.word	SeqGenDB
 984              		.cfi_endproc
 985              	.LFE10:
 987              		.section	.text.AD5940_SEQGenCtrl,"ax",%progbits
ARM GAS  C:\Users\root\AppData\Local\Temp\ccjNHqBU.s 			page 36


 988              		.align	1
 989              		.global	AD5940_SEQGenCtrl
 990              		.syntax unified
 991              		.thumb
 992              		.thumb_func
 993              		.fpu fpv5-d16
 995              	AD5940_SEQGenCtrl:
 996              	.LVL84:
 997              	.LFB11:
 298:ad5940lib/ad5940.c ****   if(bFlag == bFALSE) /* Disable sequence generator */
 998              		.loc 1 298 1 is_stmt 1 view -0
 999              		.cfi_startproc
 1000              		@ args = 0, pretend = 0, frame = 0
 1001              		@ frame_needed = 0, uses_anonymous_args = 0
 1002              		@ link register save eliminated.
 299:ad5940lib/ad5940.c ****   {
 1003              		.loc 1 299 3 view .LVU264
 299:ad5940lib/ad5940.c ****   {
 1004              		.loc 1 299 5 is_stmt 0 view .LVU265
 1005 0000 18B9     		cbnz	r0, .L72
 301:ad5940lib/ad5940.c ****   }
 1006              		.loc 1 301 5 is_stmt 1 view .LVU266
 301:ad5940lib/ad5940.c ****   }
 1007              		.loc 1 301 26 is_stmt 0 view .LVU267
 1008 0002 054B     		ldr	r3, .L74
 1009 0004 0022     		movs	r2, #0
 1010 0006 1A70     		strb	r2, [r3]
 1011 0008 7047     		bx	lr
 1012              	.L72:
 305:ad5940lib/ad5940.c ****     SeqGenDB.LastError = AD5940ERR_OK;  /* Clear error message */
 1013              		.loc 1 305 5 is_stmt 1 view .LVU268
 305:ad5940lib/ad5940.c ****     SeqGenDB.LastError = AD5940ERR_OK;  /* Clear error message */
 1014              		.loc 1 305 21 is_stmt 0 view .LVU269
 1015 000a 034B     		ldr	r3, .L74
 1016 000c 0022     		movs	r2, #0
 1017 000e DA60     		str	r2, [r3, #12]
 306:ad5940lib/ad5940.c ****     SeqGenDB.EngineStart = bTRUE;
 1018              		.loc 1 306 5 is_stmt 1 view .LVU270
 306:ad5940lib/ad5940.c ****     SeqGenDB.EngineStart = bTRUE;
 1019              		.loc 1 306 24 is_stmt 0 view .LVU271
 1020 0010 9A61     		str	r2, [r3, #24]
 307:ad5940lib/ad5940.c ****   }
 1021              		.loc 1 307 5 is_stmt 1 view .LVU272
 307:ad5940lib/ad5940.c ****   }
 1022              		.loc 1 307 26 is_stmt 0 view .LVU273
 1023 0012 0122     		movs	r2, #1
 1024 0014 1A70     		strb	r2, [r3]
 309:ad5940lib/ad5940.c **** 
 1025              		.loc 1 309 1 view .LVU274
 1026 0016 7047     		bx	lr
 1027              	.L75:
 1028              		.align	2
 1029              	.L74:
 1030 0018 00000000 		.word	SeqGenDB
 1031              		.cfi_endproc
 1032              	.LFE11:
 1034              		.section	.text.AD5940_SEQCycleTime,"ax",%progbits
ARM GAS  C:\Users\root\AppData\Local\Temp\ccjNHqBU.s 			page 37


 1035              		.align	1
 1036              		.global	AD5940_SEQCycleTime
 1037              		.syntax unified
 1038              		.thumb
 1039              		.thumb_func
 1040              		.fpu fpv5-d16
 1042              	AD5940_SEQCycleTime:
 1043              	.LFB12:
 316:ad5940lib/ad5940.c ****   uint32_t i, Cycles, Cmd;  
 1044              		.loc 1 316 1 is_stmt 1 view -0
 1045              		.cfi_startproc
 1046              		@ args = 0, pretend = 0, frame = 0
 1047              		@ frame_needed = 0, uses_anonymous_args = 0
 1048              		@ link register save eliminated.
 317:ad5940lib/ad5940.c ****   Cycles = 0;
 1049              		.loc 1 317 3 view .LVU276
 318:ad5940lib/ad5940.c ****   for(i=0;i<SeqGenDB.RegCount;i++)
 1050              		.loc 1 318 3 view .LVU277
 1051              	.LVL85:
 319:ad5940lib/ad5940.c ****   {
 1052              		.loc 1 319 3 view .LVU278
 318:ad5940lib/ad5940.c ****   for(i=0;i<SeqGenDB.RegCount;i++)
 1053              		.loc 1 318 10 is_stmt 0 view .LVU279
 1054 0000 0020     		movs	r0, #0
 319:ad5940lib/ad5940.c ****   {
 1055              		.loc 1 319 8 view .LVU280
 1056 0002 0346     		mov	r3, r0
 319:ad5940lib/ad5940.c ****   {
 1057              		.loc 1 319 3 view .LVU281
 1058 0004 04E0     		b	.L77
 1059              	.LVL86:
 1060              	.L78:
 329:ad5940lib/ad5940.c ****       {
 1061              		.loc 1 329 7 is_stmt 1 view .LVU282
 329:ad5940lib/ad5940.c ****       {
 1062              		.loc 1 329 10 is_stmt 0 view .LVU283
 1063 0006 11F0010F 		tst	r1, #1
 1064 000a 0ED0     		beq	.L80
 332:ad5940lib/ad5940.c ****       }
 1065              		.loc 1 332 9 is_stmt 1 view .LVU284
 332:ad5940lib/ad5940.c ****       }
 1066              		.loc 1 332 16 is_stmt 0 view .LVU285
 1067 000c 0130     		adds	r0, r0, #1
 1068              	.LVL87:
 1069              	.L79:
 319:ad5940lib/ad5940.c ****   {
 1070              		.loc 1 319 31 is_stmt 1 discriminator 2 view .LVU286
 319:ad5940lib/ad5940.c ****   {
 1071              		.loc 1 319 32 is_stmt 0 discriminator 2 view .LVU287
 1072 000e 0133     		adds	r3, r3, #1
 1073              	.LVL88:
 1074              	.L77:
 319:ad5940lib/ad5940.c ****   {
 1075              		.loc 1 319 11 is_stmt 1 discriminator 1 view .LVU288
 319:ad5940lib/ad5940.c ****   {
 1076              		.loc 1 319 21 is_stmt 0 discriminator 1 view .LVU289
 1077 0010 084A     		ldr	r2, .L83
ARM GAS  C:\Users\root\AppData\Local\Temp\ccjNHqBU.s 			page 38


 1078 0012 5269     		ldr	r2, [r2, #20]
 319:ad5940lib/ad5940.c ****   {
 1079              		.loc 1 319 3 discriminator 1 view .LVU290
 1080 0014 9A42     		cmp	r2, r3
 1081 0016 0CD9     		bls	.L82
 321:ad5940lib/ad5940.c ****     if (Cmd & 0x2)
 1082              		.loc 1 321 5 is_stmt 1 view .LVU291
 321:ad5940lib/ad5940.c ****     if (Cmd & 0x2)
 1083              		.loc 1 321 20 is_stmt 0 view .LVU292
 1084 0018 064A     		ldr	r2, .L83
 1085 001a 9268     		ldr	r2, [r2, #8]
 321:ad5940lib/ad5940.c ****     if (Cmd & 0x2)
 1086              		.loc 1 321 29 view .LVU293
 1087 001c 52F82320 		ldr	r2, [r2, r3, lsl #2]
 321:ad5940lib/ad5940.c ****     if (Cmd & 0x2)
 1088              		.loc 1 321 9 view .LVU294
 1089 0020 910F     		lsrs	r1, r2, #30
 1090              	.LVL89:
 322:ad5940lib/ad5940.c ****     {
 1091              		.loc 1 322 5 is_stmt 1 view .LVU295
 322:ad5940lib/ad5940.c ****     {
 1092              		.loc 1 322 8 is_stmt 0 view .LVU296
 1093 0022 002A     		cmp	r2, #0
 1094 0024 EFDA     		bge	.L78
 325:ad5940lib/ad5940.c ****     }
 1095              		.loc 1 325 7 is_stmt 1 view .LVU297
 325:ad5940lib/ad5940.c ****     }
 1096              		.loc 1 325 14 is_stmt 0 view .LVU298
 1097 0026 0130     		adds	r0, r0, #1
 1098              	.LVL90:
 325:ad5940lib/ad5940.c ****     }
 1099              		.loc 1 325 14 view .LVU299
 1100 0028 F1E7     		b	.L79
 1101              	.L80:
 337:ad5940lib/ad5940.c ****         }
 1102              		.loc 1 337 11 is_stmt 1 view .LVU300
 337:ad5940lib/ad5940.c ****         }
 1103              		.loc 1 337 42 is_stmt 0 view .LVU301
 1104 002a 22F04042 		bic	r2, r2, #-1073741824
 337:ad5940lib/ad5940.c ****         }
 1105              		.loc 1 337 18 view .LVU302
 1106 002e 1044     		add	r0, r0, r2
 1107              	.LVL91:
 337:ad5940lib/ad5940.c ****         }
 1108              		.loc 1 337 18 view .LVU303
 1109 0030 EDE7     		b	.L79
 1110              	.LVL92:
 1111              	.L82:
 342:ad5940lib/ad5940.c **** #endif
 1112              		.loc 1 342 1 view .LVU304
 1113 0032 7047     		bx	lr
 1114              	.L84:
 1115              		.align	2
 1116              	.L83:
 1117 0034 00000000 		.word	SeqGenDB
 1118              		.cfi_endproc
 1119              	.LFE12:
ARM GAS  C:\Users\root\AppData\Local\Temp\ccjNHqBU.s 			page 39


 1121              		.section	.rodata.AD5940_Notch50HzAvailable.str1.4,"aMS",%progbits,1
 1122              		.align	2
 1123              	.LC7:
 1124 0000 05070809 		.ascii	"\005\007\010\011\013\000"
 1124      0B00
 1125 0006 0000     		.align	2
 1126              	.LC8:
 1127 0008 0F0C0A09 		.ascii	"\017\014\012\011\006\000"
 1127      0600
 1128 000e 0000     		.align	2
 1129              	.LC9:
 1130 0010 090A0B00 		.ascii	"\011\012\013\000"
 1131              		.align	2
 1132              	.LC10:
 1133 0014 120F0C00 		.ascii	"\022\017\014\000"
 1134              		.align	2
 1135              	.LC11:
 1136 0018 03040506 		.ascii	"\003\004\005\006\010\012\000"
 1136      080A00
 1137 001f 00       		.align	2
 1138              	.LC12:
 1139 0020 120C0605 		.ascii	"\022\014\006\005\004\003\000"
 1139      040300
 1140              		.section	.text.AD5940_Notch50HzAvailable,"ax",%progbits
 1141              		.align	1
 1142              		.global	AD5940_Notch50HzAvailable
 1143              		.syntax unified
 1144              		.thumb
 1145              		.thumb_func
 1146              		.fpu fpv5-d16
 1148              	AD5940_Notch50HzAvailable:
 1149              	.LVL93:
 1150              	.LFB14:
 371:ad5940lib/ad5940.c ****   if((pFilterInfo->ADCRate == ADCRATE_800KHZ && pFilterInfo->ADCSinc3Osr == ADCSINC3OSR_2)||\
 1151              		.loc 1 371 1 is_stmt 1 view -0
 1152              		.cfi_startproc
 1153              		@ args = 0, pretend = 0, frame = 24
 1154              		@ frame_needed = 0, uses_anonymous_args = 0
 371:ad5940lib/ad5940.c ****   if((pFilterInfo->ADCRate == ADCRATE_800KHZ && pFilterInfo->ADCSinc3Osr == ADCSINC3OSR_2)||\
 1155              		.loc 1 371 1 is_stmt 0 view .LVU306
 1156 0000 30B5     		push	{r4, r5, lr}
 1157              	.LCFI25:
 1158              		.cfi_def_cfa_offset 12
 1159              		.cfi_offset 4, -12
 1160              		.cfi_offset 5, -8
 1161              		.cfi_offset 14, -4
 1162 0002 87B0     		sub	sp, sp, #28
 1163              	.LCFI26:
 1164              		.cfi_def_cfa_offset 40
 1165 0004 0446     		mov	r4, r0
 1166 0006 0D46     		mov	r5, r1
 372:ad5940lib/ad5940.c ****       (pFilterInfo->ADCRate == ADCRATE_1P6MHZ && pFilterInfo->ADCSinc3Osr != ADCSINC3OSR_2))
 1167              		.loc 1 372 3 is_stmt 1 view .LVU307
 372:ad5940lib/ad5940.c ****       (pFilterInfo->ADCRate == ADCRATE_1P6MHZ && pFilterInfo->ADCSinc3Osr != ADCSINC3OSR_2))
 1168              		.loc 1 372 18 is_stmt 0 view .LVU308
 1169 0008 C368     		ldr	r3, [r0, #12]
 372:ad5940lib/ad5940.c ****       (pFilterInfo->ADCRate == ADCRATE_1P6MHZ && pFilterInfo->ADCSinc3Osr != ADCSINC3OSR_2))
ARM GAS  C:\Users\root\AppData\Local\Temp\ccjNHqBU.s 			page 40


 1170              		.loc 1 372 5 view .LVU309
 1171 000a 012B     		cmp	r3, #1
 1172 000c 20D0     		beq	.L96
 1173              	.L86:
 372:ad5940lib/ad5940.c ****       (pFilterInfo->ADCRate == ADCRATE_1P6MHZ && pFilterInfo->ADCSinc3Osr != ADCSINC3OSR_2))
 1174              		.loc 1 372 91 discriminator 3 view .LVU310
 1175 000e 1BBB     		cbnz	r3, .L88
 373:ad5940lib/ad5940.c ****   {
 1176              		.loc 1 373 61 view .LVU311
 1177 0010 2268     		ldr	r2, [r4]
 373:ad5940lib/ad5940.c ****   {
 1178              		.loc 1 373 47 view .LVU312
 1179 0012 022A     		cmp	r2, #2
 1180 0014 20D0     		beq	.L88
 1181              	.L87:
 1182              	.LBB3:
 378:ad5940lib/ad5940.c ****     const uint8_t dl_50Hz[] = {15,12,10,9,6};
 1183              		.loc 1 378 5 is_stmt 1 view .LVU313
 378:ad5940lib/ad5940.c ****     const uint8_t dl_50Hz[] = {15,12,10,9,6};
 1184              		.loc 1 378 19 is_stmt 0 view .LVU314
 1185 0016 364B     		ldr	r3, .L99
 1186 0018 93E80300 		ldm	r3, {r0, r1}
 1187              	.LVL94:
 378:ad5940lib/ad5940.c ****     const uint8_t dl_50Hz[] = {15,12,10,9,6};
 1188              		.loc 1 378 19 view .LVU315
 1189 001c 0290     		str	r0, [sp, #8]
 1190 001e 8DF80C10 		strb	r1, [sp, #12]
 379:ad5940lib/ad5940.c ****     uint8_t index;
 1191              		.loc 1 379 5 is_stmt 1 view .LVU316
 379:ad5940lib/ad5940.c ****     uint8_t index;
 1192              		.loc 1 379 19 is_stmt 0 view .LVU317
 1193 0022 344B     		ldr	r3, .L99+4
 1194 0024 93E80300 		ldm	r3, {r0, r1}
 1195 0028 0490     		str	r0, [sp, #16]
 1196 002a 8DF81410 		strb	r1, [sp, #20]
 380:ad5940lib/ad5940.c ****     if(_is_value_in_table(pFilterInfo->ADCSinc2Osr, available_sinc2_osr, sizeof(available_sinc2_osr
 1197              		.loc 1 380 5 is_stmt 1 view .LVU318
 381:ad5940lib/ad5940.c ****     {
 1198              		.loc 1 381 5 view .LVU319
 381:ad5940lib/ad5940.c ****     {
 1199              		.loc 1 381 8 is_stmt 0 view .LVU320
 1200 002e 0DF10703 		add	r3, sp, #7
 1201 0032 0522     		movs	r2, #5
 1202 0034 02A9     		add	r1, sp, #8
 1203 0036 2079     		ldrb	r0, [r4, #4]	@ zero_extendqisi2
 1204 0038 FFF7FEFF 		bl	_is_value_in_table
 1205              	.LVL95:
 381:ad5940lib/ad5940.c ****     {
 1206              		.loc 1 381 7 view .LVU321
 1207 003c 90B1     		cbz	r0, .L91
 383:ad5940lib/ad5940.c ****       return bTRUE;
 1208              		.loc 1 383 7 is_stmt 1 view .LVU322
 383:ad5940lib/ad5940.c ****       return bTRUE;
 1209              		.loc 1 383 20 is_stmt 0 view .LVU323
 1210 003e 9DF80730 		ldrb	r3, [sp, #7]	@ zero_extendqisi2
 1211 0042 06AA     		add	r2, sp, #24
 1212 0044 1344     		add	r3, r3, r2
ARM GAS  C:\Users\root\AppData\Local\Temp\ccjNHqBU.s 			page 41


 1213 0046 13F8083C 		ldrb	r3, [r3, #-8]	@ zero_extendqisi2
 383:ad5940lib/ad5940.c ****       return bTRUE;
 1214              		.loc 1 383 11 view .LVU324
 1215 004a 2B70     		strb	r3, [r5]
 384:ad5940lib/ad5940.c ****     }
 1216              		.loc 1 384 7 is_stmt 1 view .LVU325
 384:ad5940lib/ad5940.c ****     }
 1217              		.loc 1 384 14 is_stmt 0 view .LVU326
 1218 004c 0120     		movs	r0, #1
 1219 004e 0BE0     		b	.L90
 1220              	.LVL96:
 1221              	.L96:
 384:ad5940lib/ad5940.c ****     }
 1222              		.loc 1 384 14 view .LVU327
 1223              	.LBE3:
 372:ad5940lib/ad5940.c ****       (pFilterInfo->ADCRate == ADCRATE_1P6MHZ && pFilterInfo->ADCSinc3Osr != ADCSINC3OSR_2))
 1224              		.loc 1 372 60 discriminator 1 view .LVU328
 1225 0050 0268     		ldr	r2, [r0]
 372:ad5940lib/ad5940.c ****       (pFilterInfo->ADCRate == ADCRATE_1P6MHZ && pFilterInfo->ADCSinc3Osr != ADCSINC3OSR_2))
 1226              		.loc 1 372 46 discriminator 1 view .LVU329
 1227 0052 022A     		cmp	r2, #2
 1228 0054 DBD1     		bne	.L86
 1229 0056 DEE7     		b	.L87
 1230              	.L88:
 387:ad5940lib/ad5940.c ****   {
 1231              		.loc 1 387 8 is_stmt 1 view .LVU330
 387:ad5940lib/ad5940.c ****   {
 1232              		.loc 1 387 10 is_stmt 0 view .LVU331
 1233 0058 13B9     		cbnz	r3, .L92
 387:ad5940lib/ad5940.c ****   {
 1234              		.loc 1 387 64 discriminator 1 view .LVU332
 1235 005a 2268     		ldr	r2, [r4]
 387:ad5940lib/ad5940.c ****   {
 1236              		.loc 1 387 50 discriminator 1 view .LVU333
 1237 005c 022A     		cmp	r2, #2
 1238 005e 05D0     		beq	.L97
 1239              	.L92:
 400:ad5940lib/ad5940.c ****   {
 1240              		.loc 1 400 8 is_stmt 1 view .LVU334
 400:ad5940lib/ad5940.c ****   {
 1241              		.loc 1 400 10 is_stmt 0 view .LVU335
 1242 0060 012B     		cmp	r3, #1
 1243 0062 23D0     		beq	.L98
 1244              	.LVL97:
 1245              	.L91:
 414:ad5940lib/ad5940.c ****   return bFALSE;
 1246              		.loc 1 414 3 is_stmt 1 view .LVU336
 414:ad5940lib/ad5940.c ****   return bFALSE;
 1247              		.loc 1 414 7 is_stmt 0 view .LVU337
 1248 0064 0020     		movs	r0, #0
 1249 0066 2870     		strb	r0, [r5]
 415:ad5940lib/ad5940.c **** }
 1250              		.loc 1 415 3 is_stmt 1 view .LVU338
 1251              	.L90:
 416:ad5940lib/ad5940.c **** 
 1252              		.loc 1 416 1 is_stmt 0 view .LVU339
 1253 0068 07B0     		add	sp, sp, #28
ARM GAS  C:\Users\root\AppData\Local\Temp\ccjNHqBU.s 			page 42


 1254              	.LCFI27:
 1255              		.cfi_remember_state
 1256              		.cfi_def_cfa_offset 12
 1257              		@ sp needed
 1258 006a 30BD     		pop	{r4, r5, pc}
 1259              	.LVL98:
 1260              	.L97:
 1261              	.LCFI28:
 1262              		.cfi_restore_state
 1263              	.LBB4:
 391:ad5940lib/ad5940.c ****     const uint8_t dl_50Hz[] = {18,15,12};
 1264              		.loc 1 391 5 is_stmt 1 view .LVU340
 391:ad5940lib/ad5940.c ****     const uint8_t dl_50Hz[] = {18,15,12};
 1265              		.loc 1 391 19 is_stmt 0 view .LVU341
 1266 006c 224B     		ldr	r3, .L99+8
 1267 006e 1B68     		ldr	r3, [r3]
 1268 0070 ADF80830 		strh	r3, [sp, #8]	@ movhi
 1269 0074 1B0C     		lsrs	r3, r3, #16
 1270 0076 8DF80A30 		strb	r3, [sp, #10]
 392:ad5940lib/ad5940.c ****     uint8_t index;
 1271              		.loc 1 392 5 is_stmt 1 view .LVU342
 392:ad5940lib/ad5940.c ****     uint8_t index;
 1272              		.loc 1 392 19 is_stmt 0 view .LVU343
 1273 007a 204B     		ldr	r3, .L99+12
 1274 007c 1B68     		ldr	r3, [r3]
 1275 007e ADF81030 		strh	r3, [sp, #16]	@ movhi
 1276 0082 1B0C     		lsrs	r3, r3, #16
 1277 0084 8DF81230 		strb	r3, [sp, #18]
 393:ad5940lib/ad5940.c ****     if(_is_value_in_table(pFilterInfo->ADCSinc2Osr, available_sinc2_osr, sizeof(available_sinc2_osr
 1278              		.loc 1 393 5 is_stmt 1 view .LVU344
 394:ad5940lib/ad5940.c ****     {
 1279              		.loc 1 394 5 view .LVU345
 394:ad5940lib/ad5940.c ****     {
 1280              		.loc 1 394 8 is_stmt 0 view .LVU346
 1281 0088 0DF10703 		add	r3, sp, #7
 1282 008c 0322     		movs	r2, #3
 1283 008e 02A9     		add	r1, sp, #8
 1284              	.LVL99:
 394:ad5940lib/ad5940.c ****     {
 1285              		.loc 1 394 8 view .LVU347
 1286 0090 2079     		ldrb	r0, [r4, #4]	@ zero_extendqisi2
 1287              	.LVL100:
 394:ad5940lib/ad5940.c ****     {
 1288              		.loc 1 394 8 view .LVU348
 1289 0092 FFF7FEFF 		bl	_is_value_in_table
 1290              	.LVL101:
 394:ad5940lib/ad5940.c ****     {
 1291              		.loc 1 394 7 view .LVU349
 1292 0096 0028     		cmp	r0, #0
 1293 0098 E4D0     		beq	.L91
 396:ad5940lib/ad5940.c ****       return bTRUE;
 1294              		.loc 1 396 7 is_stmt 1 view .LVU350
 396:ad5940lib/ad5940.c ****       return bTRUE;
 1295              		.loc 1 396 20 is_stmt 0 view .LVU351
 1296 009a 9DF80730 		ldrb	r3, [sp, #7]	@ zero_extendqisi2
 1297 009e 06AA     		add	r2, sp, #24
 1298 00a0 1344     		add	r3, r3, r2
ARM GAS  C:\Users\root\AppData\Local\Temp\ccjNHqBU.s 			page 43


 1299 00a2 13F8083C 		ldrb	r3, [r3, #-8]	@ zero_extendqisi2
 396:ad5940lib/ad5940.c ****       return bTRUE;
 1300              		.loc 1 396 11 view .LVU352
 1301 00a6 2B70     		strb	r3, [r5]
 397:ad5940lib/ad5940.c ****     }
 1302              		.loc 1 397 7 is_stmt 1 view .LVU353
 397:ad5940lib/ad5940.c ****     }
 1303              		.loc 1 397 14 is_stmt 0 view .LVU354
 1304 00a8 0120     		movs	r0, #1
 1305 00aa DDE7     		b	.L90
 1306              	.LVL102:
 1307              	.L98:
 397:ad5940lib/ad5940.c ****     }
 1308              		.loc 1 397 14 view .LVU355
 1309              	.LBE4:
 400:ad5940lib/ad5940.c ****   {
 1310              		.loc 1 400 64 discriminator 1 view .LVU356
 1311 00ac 2368     		ldr	r3, [r4]
 400:ad5940lib/ad5940.c ****   {
 1312              		.loc 1 400 50 discriminator 1 view .LVU357
 1313 00ae 022B     		cmp	r3, #2
 1314 00b0 D8D0     		beq	.L91
 1315              	.LBB5:
 404:ad5940lib/ad5940.c ****                                     ADCSINC2OSR_800, ADCSINC2OSR_1067};
 1316              		.loc 1 404 5 is_stmt 1 view .LVU358
 404:ad5940lib/ad5940.c ****                                     ADCSINC2OSR_800, ADCSINC2OSR_1067};
 1317              		.loc 1 404 19 is_stmt 0 view .LVU359
 1318 00b2 134B     		ldr	r3, .L99+16
 1319 00b4 93E80300 		ldm	r3, {r0, r1}
 1320              	.LVL103:
 404:ad5940lib/ad5940.c ****                                     ADCSINC2OSR_800, ADCSINC2OSR_1067};
 1321              		.loc 1 404 19 view .LVU360
 1322 00b8 0290     		str	r0, [sp, #8]
 1323 00ba ADF80C10 		strh	r1, [sp, #12]	@ movhi
 406:ad5940lib/ad5940.c ****     uint8_t index;
 1324              		.loc 1 406 5 is_stmt 1 view .LVU361
 406:ad5940lib/ad5940.c ****     uint8_t index;
 1325              		.loc 1 406 19 is_stmt 0 view .LVU362
 1326 00be 114B     		ldr	r3, .L99+20
 1327 00c0 93E80300 		ldm	r3, {r0, r1}
 1328 00c4 0490     		str	r0, [sp, #16]
 1329 00c6 ADF81410 		strh	r1, [sp, #20]	@ movhi
 407:ad5940lib/ad5940.c ****     if(_is_value_in_table(pFilterInfo->ADCSinc2Osr, available_sinc2_osr, sizeof(available_sinc2_osr
 1330              		.loc 1 407 5 is_stmt 1 view .LVU363
 408:ad5940lib/ad5940.c ****     {
 1331              		.loc 1 408 5 view .LVU364
 408:ad5940lib/ad5940.c ****     {
 1332              		.loc 1 408 8 is_stmt 0 view .LVU365
 1333 00ca 0DF10703 		add	r3, sp, #7
 1334 00ce 0622     		movs	r2, #6
 1335 00d0 02A9     		add	r1, sp, #8
 1336 00d2 2079     		ldrb	r0, [r4, #4]	@ zero_extendqisi2
 1337 00d4 FFF7FEFF 		bl	_is_value_in_table
 1338              	.LVL104:
 408:ad5940lib/ad5940.c ****     {
 1339              		.loc 1 408 7 view .LVU366
 1340 00d8 0028     		cmp	r0, #0
ARM GAS  C:\Users\root\AppData\Local\Temp\ccjNHqBU.s 			page 44


 1341 00da C3D0     		beq	.L91
 410:ad5940lib/ad5940.c ****       return bTRUE;
 1342              		.loc 1 410 7 is_stmt 1 view .LVU367
 410:ad5940lib/ad5940.c ****       return bTRUE;
 1343              		.loc 1 410 20 is_stmt 0 view .LVU368
 1344 00dc 9DF80730 		ldrb	r3, [sp, #7]	@ zero_extendqisi2
 1345 00e0 06AA     		add	r2, sp, #24
 1346 00e2 1344     		add	r3, r3, r2
 1347 00e4 13F8083C 		ldrb	r3, [r3, #-8]	@ zero_extendqisi2
 410:ad5940lib/ad5940.c ****       return bTRUE;
 1348              		.loc 1 410 11 view .LVU369
 1349 00e8 2B70     		strb	r3, [r5]
 411:ad5940lib/ad5940.c ****     }
 1350              		.loc 1 411 7 is_stmt 1 view .LVU370
 411:ad5940lib/ad5940.c ****     }
 1351              		.loc 1 411 14 is_stmt 0 view .LVU371
 1352 00ea 0120     		movs	r0, #1
 1353 00ec BCE7     		b	.L90
 1354              	.L100:
 1355 00ee 00BF     		.align	2
 1356              	.L99:
 1357 00f0 00000000 		.word	.LC7
 1358 00f4 08000000 		.word	.LC8
 1359 00f8 10000000 		.word	.LC9
 1360 00fc 14000000 		.word	.LC10
 1361 0100 18000000 		.word	.LC11
 1362 0104 20000000 		.word	.LC12
 1363              	.LBE5:
 1364              		.cfi_endproc
 1365              	.LFE14:
 1367              		.section	.rodata.AD5940_Notch60HzAvailable.str1.4,"aMS",%progbits,1
 1368              		.align	2
 1369              	.LC13:
 1370 0000 03040507 		.ascii	"\003\004\005\007\011\013\000"
 1370      090B00
 1371 0007 00       		.align	2
 1372              	.LC14:
 1373 0008 0F0A0504 		.ascii	"\017\012\005\004\003\002\000"
 1373      030200
 1374              		.section	.text.AD5940_Notch60HzAvailable,"ax",%progbits
 1375              		.align	1
 1376              		.global	AD5940_Notch60HzAvailable
 1377              		.syntax unified
 1378              		.thumb
 1379              		.thumb_func
 1380              		.fpu fpv5-d16
 1382              	AD5940_Notch60HzAvailable:
 1383              	.LVL105:
 1384              	.LFB15:
 425:ad5940lib/ad5940.c ****   if((pFilterInfo->ADCRate == ADCRATE_800KHZ && pFilterInfo->ADCSinc3Osr == ADCSINC3OSR_2)||\
 1385              		.loc 1 425 1 is_stmt 1 view -0
 1386              		.cfi_startproc
 1387              		@ args = 0, pretend = 0, frame = 24
 1388              		@ frame_needed = 0, uses_anonymous_args = 0
 425:ad5940lib/ad5940.c ****   if((pFilterInfo->ADCRate == ADCRATE_800KHZ && pFilterInfo->ADCSinc3Osr == ADCSINC3OSR_2)||\
 1389              		.loc 1 425 1 is_stmt 0 view .LVU373
 1390 0000 30B5     		push	{r4, r5, lr}
ARM GAS  C:\Users\root\AppData\Local\Temp\ccjNHqBU.s 			page 45


 1391              	.LCFI29:
 1392              		.cfi_def_cfa_offset 12
 1393              		.cfi_offset 4, -12
 1394              		.cfi_offset 5, -8
 1395              		.cfi_offset 14, -4
 1396 0002 87B0     		sub	sp, sp, #28
 1397              	.LCFI30:
 1398              		.cfi_def_cfa_offset 40
 1399 0004 0446     		mov	r4, r0
 1400 0006 0D46     		mov	r5, r1
 426:ad5940lib/ad5940.c ****       (pFilterInfo->ADCRate == ADCRATE_1P6MHZ && pFilterInfo->ADCSinc3Osr != ADCSINC3OSR_2))
 1401              		.loc 1 426 3 is_stmt 1 view .LVU374
 426:ad5940lib/ad5940.c ****       (pFilterInfo->ADCRate == ADCRATE_1P6MHZ && pFilterInfo->ADCSinc3Osr != ADCSINC3OSR_2))
 1402              		.loc 1 426 18 is_stmt 0 view .LVU375
 1403 0008 C368     		ldr	r3, [r0, #12]
 426:ad5940lib/ad5940.c ****       (pFilterInfo->ADCRate == ADCRATE_1P6MHZ && pFilterInfo->ADCSinc3Osr != ADCSINC3OSR_2))
 1404              		.loc 1 426 5 view .LVU376
 1405 000a 012B     		cmp	r3, #1
 1406 000c 1CD0     		beq	.L112
 1407              	.L102:
 426:ad5940lib/ad5940.c ****       (pFilterInfo->ADCRate == ADCRATE_1P6MHZ && pFilterInfo->ADCSinc3Osr != ADCSINC3OSR_2))
 1408              		.loc 1 426 91 discriminator 3 view .LVU377
 1409 000e FBB9     		cbnz	r3, .L104
 427:ad5940lib/ad5940.c ****   {
 1410              		.loc 1 427 61 view .LVU378
 1411 0010 2268     		ldr	r2, [r4]
 427:ad5940lib/ad5940.c ****   {
 1412              		.loc 1 427 47 view .LVU379
 1413 0012 022A     		cmp	r2, #2
 1414 0014 1CD0     		beq	.L104
 1415              	.L103:
 1416              	.LBB6:
 432:ad5940lib/ad5940.c ****     const uint8_t dl_60Hz[] = {10,5};
 1417              		.loc 1 432 5 is_stmt 1 view .LVU380
 432:ad5940lib/ad5940.c ****     const uint8_t dl_60Hz[] = {10,5};
 1418              		.loc 1 432 19 is_stmt 0 view .LVU381
 1419 0016 40F60733 		movw	r3, #2823
 1420 001a ADF80830 		strh	r3, [sp, #8]	@ movhi
 433:ad5940lib/ad5940.c ****     uint8_t index;
 1421              		.loc 1 433 5 is_stmt 1 view .LVU382
 433:ad5940lib/ad5940.c ****     uint8_t index;
 1422              		.loc 1 433 19 is_stmt 0 view .LVU383
 1423 001e 40F20A53 		movw	r3, #1290
 1424 0022 ADF81030 		strh	r3, [sp, #16]	@ movhi
 434:ad5940lib/ad5940.c ****     if(_is_value_in_table(pFilterInfo->ADCSinc2Osr, available_sinc2_osr, sizeof(available_sinc2_osr
 1425              		.loc 1 434 5 is_stmt 1 view .LVU384
 435:ad5940lib/ad5940.c ****     {
 1426              		.loc 1 435 5 view .LVU385
 435:ad5940lib/ad5940.c ****     {
 1427              		.loc 1 435 8 is_stmt 0 view .LVU386
 1428 0026 0DF10703 		add	r3, sp, #7
 1429 002a 0222     		movs	r2, #2
 1430 002c 02A9     		add	r1, sp, #8
 1431              	.LVL106:
 435:ad5940lib/ad5940.c ****     {
 1432              		.loc 1 435 8 view .LVU387
 1433 002e 2079     		ldrb	r0, [r4, #4]	@ zero_extendqisi2
ARM GAS  C:\Users\root\AppData\Local\Temp\ccjNHqBU.s 			page 46


 1434              	.LVL107:
 435:ad5940lib/ad5940.c ****     {
 1435              		.loc 1 435 8 view .LVU388
 1436 0030 FFF7FEFF 		bl	_is_value_in_table
 1437              	.LVL108:
 435:ad5940lib/ad5940.c ****     {
 1438              		.loc 1 435 7 view .LVU389
 1439 0034 90B1     		cbz	r0, .L107
 437:ad5940lib/ad5940.c ****       return bTRUE;
 1440              		.loc 1 437 7 is_stmt 1 view .LVU390
 437:ad5940lib/ad5940.c ****       return bTRUE;
 1441              		.loc 1 437 20 is_stmt 0 view .LVU391
 1442 0036 9DF80730 		ldrb	r3, [sp, #7]	@ zero_extendqisi2
 1443 003a 06AA     		add	r2, sp, #24
 1444 003c 1344     		add	r3, r3, r2
 1445 003e 13F8083C 		ldrb	r3, [r3, #-8]	@ zero_extendqisi2
 437:ad5940lib/ad5940.c ****       return bTRUE;
 1446              		.loc 1 437 11 view .LVU392
 1447 0042 2B70     		strb	r3, [r5]
 438:ad5940lib/ad5940.c ****     }
 1448              		.loc 1 438 7 is_stmt 1 view .LVU393
 438:ad5940lib/ad5940.c ****     }
 1449              		.loc 1 438 14 is_stmt 0 view .LVU394
 1450 0044 0120     		movs	r0, #1
 1451 0046 0BE0     		b	.L106
 1452              	.LVL109:
 1453              	.L112:
 438:ad5940lib/ad5940.c ****     }
 1454              		.loc 1 438 14 view .LVU395
 1455              	.LBE6:
 426:ad5940lib/ad5940.c ****       (pFilterInfo->ADCRate == ADCRATE_1P6MHZ && pFilterInfo->ADCSinc3Osr != ADCSINC3OSR_2))
 1456              		.loc 1 426 60 discriminator 1 view .LVU396
 1457 0048 0268     		ldr	r2, [r0]
 426:ad5940lib/ad5940.c ****       (pFilterInfo->ADCRate == ADCRATE_1P6MHZ && pFilterInfo->ADCSinc3Osr != ADCSINC3OSR_2))
 1458              		.loc 1 426 46 discriminator 1 view .LVU397
 1459 004a 022A     		cmp	r2, #2
 1460 004c DFD1     		bne	.L102
 1461 004e E2E7     		b	.L103
 1462              	.L104:
 441:ad5940lib/ad5940.c ****   {
 1463              		.loc 1 441 8 is_stmt 1 view .LVU398
 441:ad5940lib/ad5940.c ****   {
 1464              		.loc 1 441 10 is_stmt 0 view .LVU399
 1465 0050 13B9     		cbnz	r3, .L108
 441:ad5940lib/ad5940.c ****   {
 1466              		.loc 1 441 64 discriminator 1 view .LVU400
 1467 0052 2268     		ldr	r2, [r4]
 441:ad5940lib/ad5940.c ****   {
 1468              		.loc 1 441 50 discriminator 1 view .LVU401
 1469 0054 022A     		cmp	r2, #2
 1470 0056 05D0     		beq	.L113
 1471              	.L108:
 454:ad5940lib/ad5940.c ****   {
 1472              		.loc 1 454 8 is_stmt 1 view .LVU402
 454:ad5940lib/ad5940.c ****   {
 1473              		.loc 1 454 10 is_stmt 0 view .LVU403
 1474 0058 012B     		cmp	r3, #1
ARM GAS  C:\Users\root\AppData\Local\Temp\ccjNHqBU.s 			page 47


 1475 005a 1CD0     		beq	.L114
 1476              	.LVL110:
 1477              	.L107:
 468:ad5940lib/ad5940.c ****   return bFALSE;
 1478              		.loc 1 468 3 is_stmt 1 view .LVU404
 468:ad5940lib/ad5940.c ****   return bFALSE;
 1479              		.loc 1 468 7 is_stmt 0 view .LVU405
 1480 005c 0020     		movs	r0, #0
 1481 005e 2870     		strb	r0, [r5]
 469:ad5940lib/ad5940.c **** }
 1482              		.loc 1 469 3 is_stmt 1 view .LVU406
 1483              	.L106:
 470:ad5940lib/ad5940.c **** 
 1484              		.loc 1 470 1 is_stmt 0 view .LVU407
 1485 0060 07B0     		add	sp, sp, #28
 1486              	.LCFI31:
 1487              		.cfi_remember_state
 1488              		.cfi_def_cfa_offset 12
 1489              		@ sp needed
 1490 0062 30BD     		pop	{r4, r5, pc}
 1491              	.LVL111:
 1492              	.L113:
 1493              	.LCFI32:
 1494              		.cfi_restore_state
 1495              	.LBB7:
 445:ad5940lib/ad5940.c ****     const uint8_t dl_60Hz[] = {15,10};
 1496              		.loc 1 445 5 is_stmt 1 view .LVU408
 445:ad5940lib/ad5940.c ****     const uint8_t dl_60Hz[] = {15,10};
 1497              		.loc 1 445 19 is_stmt 0 view .LVU409
 1498 0064 40F60933 		movw	r3, #2825
 1499 0068 ADF80830 		strh	r3, [sp, #8]	@ movhi
 446:ad5940lib/ad5940.c ****     uint8_t index;
 1500              		.loc 1 446 5 is_stmt 1 view .LVU410
 446:ad5940lib/ad5940.c ****     uint8_t index;
 1501              		.loc 1 446 19 is_stmt 0 view .LVU411
 1502 006c 40F60F23 		movw	r3, #2575
 1503 0070 ADF81030 		strh	r3, [sp, #16]	@ movhi
 447:ad5940lib/ad5940.c ****     if(_is_value_in_table(pFilterInfo->ADCSinc2Osr, available_sinc2_osr, sizeof(available_sinc2_osr
 1504              		.loc 1 447 5 is_stmt 1 view .LVU412
 448:ad5940lib/ad5940.c ****     {
 1505              		.loc 1 448 5 view .LVU413
 448:ad5940lib/ad5940.c ****     {
 1506              		.loc 1 448 8 is_stmt 0 view .LVU414
 1507 0074 0DF10703 		add	r3, sp, #7
 1508 0078 02A9     		add	r1, sp, #8
 1509              	.LVL112:
 448:ad5940lib/ad5940.c ****     {
 1510              		.loc 1 448 8 view .LVU415
 1511 007a 2079     		ldrb	r0, [r4, #4]	@ zero_extendqisi2
 1512              	.LVL113:
 448:ad5940lib/ad5940.c ****     {
 1513              		.loc 1 448 8 view .LVU416
 1514 007c FFF7FEFF 		bl	_is_value_in_table
 1515              	.LVL114:
 448:ad5940lib/ad5940.c ****     {
 1516              		.loc 1 448 7 view .LVU417
 1517 0080 0028     		cmp	r0, #0
ARM GAS  C:\Users\root\AppData\Local\Temp\ccjNHqBU.s 			page 48


 1518 0082 EBD0     		beq	.L107
 450:ad5940lib/ad5940.c ****       return bTRUE;
 1519              		.loc 1 450 7 is_stmt 1 view .LVU418
 450:ad5940lib/ad5940.c ****       return bTRUE;
 1520              		.loc 1 450 20 is_stmt 0 view .LVU419
 1521 0084 9DF80730 		ldrb	r3, [sp, #7]	@ zero_extendqisi2
 1522 0088 06AA     		add	r2, sp, #24
 1523 008a 1344     		add	r3, r3, r2
 1524 008c 13F8083C 		ldrb	r3, [r3, #-8]	@ zero_extendqisi2
 450:ad5940lib/ad5940.c ****       return bTRUE;
 1525              		.loc 1 450 11 view .LVU420
 1526 0090 2B70     		strb	r3, [r5]
 451:ad5940lib/ad5940.c ****     }
 1527              		.loc 1 451 7 is_stmt 1 view .LVU421
 451:ad5940lib/ad5940.c ****     }
 1528              		.loc 1 451 14 is_stmt 0 view .LVU422
 1529 0092 0120     		movs	r0, #1
 1530 0094 E4E7     		b	.L106
 1531              	.LVL115:
 1532              	.L114:
 451:ad5940lib/ad5940.c ****     }
 1533              		.loc 1 451 14 view .LVU423
 1534              	.LBE7:
 454:ad5940lib/ad5940.c ****   {
 1535              		.loc 1 454 64 discriminator 1 view .LVU424
 1536 0096 2368     		ldr	r3, [r4]
 454:ad5940lib/ad5940.c ****   {
 1537              		.loc 1 454 50 discriminator 1 view .LVU425
 1538 0098 022B     		cmp	r3, #2
 1539 009a DFD0     		beq	.L107
 1540              	.LBB8:
 458:ad5940lib/ad5940.c ****                                     ADCSINC2OSR_889, ADCSINC2OSR_1333};
 1541              		.loc 1 458 5 is_stmt 1 view .LVU426
 458:ad5940lib/ad5940.c ****                                     ADCSINC2OSR_889, ADCSINC2OSR_1333};
 1542              		.loc 1 458 19 is_stmt 0 view .LVU427
 1543 009c 0E4B     		ldr	r3, .L115
 1544 009e 93E80300 		ldm	r3, {r0, r1}
 1545              	.LVL116:
 458:ad5940lib/ad5940.c ****                                     ADCSINC2OSR_889, ADCSINC2OSR_1333};
 1546              		.loc 1 458 19 view .LVU428
 1547 00a2 0290     		str	r0, [sp, #8]
 1548 00a4 ADF80C10 		strh	r1, [sp, #12]	@ movhi
 460:ad5940lib/ad5940.c ****     uint8_t index;
 1549              		.loc 1 460 5 is_stmt 1 view .LVU429
 460:ad5940lib/ad5940.c ****     uint8_t index;
 1550              		.loc 1 460 19 is_stmt 0 view .LVU430
 1551 00a8 0C4B     		ldr	r3, .L115+4
 1552 00aa 93E80300 		ldm	r3, {r0, r1}
 1553 00ae 0490     		str	r0, [sp, #16]
 1554 00b0 ADF81410 		strh	r1, [sp, #20]	@ movhi
 461:ad5940lib/ad5940.c ****     if(_is_value_in_table(pFilterInfo->ADCSinc2Osr, available_sinc2_osr, sizeof(available_sinc2_osr
 1555              		.loc 1 461 5 is_stmt 1 view .LVU431
 462:ad5940lib/ad5940.c ****     {
 1556              		.loc 1 462 5 view .LVU432
 462:ad5940lib/ad5940.c ****     {
 1557              		.loc 1 462 8 is_stmt 0 view .LVU433
 1558 00b4 0DF10703 		add	r3, sp, #7
ARM GAS  C:\Users\root\AppData\Local\Temp\ccjNHqBU.s 			page 49


 1559 00b8 0622     		movs	r2, #6
 1560 00ba 02A9     		add	r1, sp, #8
 1561 00bc 2079     		ldrb	r0, [r4, #4]	@ zero_extendqisi2
 1562 00be FFF7FEFF 		bl	_is_value_in_table
 1563              	.LVL117:
 462:ad5940lib/ad5940.c ****     {
 1564              		.loc 1 462 7 view .LVU434
 1565 00c2 0028     		cmp	r0, #0
 1566 00c4 CAD0     		beq	.L107
 464:ad5940lib/ad5940.c ****       return bTRUE;
 1567              		.loc 1 464 7 is_stmt 1 view .LVU435
 464:ad5940lib/ad5940.c ****       return bTRUE;
 1568              		.loc 1 464 20 is_stmt 0 view .LVU436
 1569 00c6 9DF80730 		ldrb	r3, [sp, #7]	@ zero_extendqisi2
 1570 00ca 06AA     		add	r2, sp, #24
 1571 00cc 1344     		add	r3, r3, r2
 1572 00ce 13F8083C 		ldrb	r3, [r3, #-8]	@ zero_extendqisi2
 464:ad5940lib/ad5940.c ****       return bTRUE;
 1573              		.loc 1 464 11 view .LVU437
 1574 00d2 2B70     		strb	r3, [r5]
 465:ad5940lib/ad5940.c ****     }
 1575              		.loc 1 465 7 is_stmt 1 view .LVU438
 465:ad5940lib/ad5940.c ****     }
 1576              		.loc 1 465 14 is_stmt 0 view .LVU439
 1577 00d4 0120     		movs	r0, #1
 1578 00d6 C3E7     		b	.L106
 1579              	.L116:
 1580              		.align	2
 1581              	.L115:
 1582 00d8 00000000 		.word	.LC13
 1583 00dc 08000000 		.word	.LC14
 1584              	.LBE8:
 1585              		.cfi_endproc
 1586              	.LFE15:
 1588              		.section	.text.AD5940_ClksCalculate,"ax",%progbits
 1589              		.align	1
 1590              		.global	AD5940_ClksCalculate
 1591              		.syntax unified
 1592              		.thumb
 1593              		.thumb_func
 1594              		.fpu fpv5-d16
 1596              	AD5940_ClksCalculate:
 1597              	.LVL118:
 1598              	.LFB16:
 481:ad5940lib/ad5940.c ****   uint32_t temp = 0;
 1599              		.loc 1 481 1 is_stmt 1 view -0
 1600              		.cfi_startproc
 1601              		@ args = 0, pretend = 0, frame = 96
 1602              		@ frame_needed = 0, uses_anonymous_args = 0
 481:ad5940lib/ad5940.c ****   uint32_t temp = 0;
 1603              		.loc 1 481 1 is_stmt 0 view .LVU441
 1604 0000 F0B5     		push	{r4, r5, r6, r7, lr}
 1605              	.LCFI33:
 1606              		.cfi_def_cfa_offset 20
 1607              		.cfi_offset 4, -20
 1608              		.cfi_offset 5, -16
 1609              		.cfi_offset 6, -12
ARM GAS  C:\Users\root\AppData\Local\Temp\ccjNHqBU.s 			page 50


 1610              		.cfi_offset 7, -8
 1611              		.cfi_offset 14, -4
 1612 0002 99B0     		sub	sp, sp, #100
 1613              	.LCFI34:
 1614              		.cfi_def_cfa_offset 120
 1615 0004 8446     		mov	ip, r0
 1616 0006 0F46     		mov	r7, r1
 482:ad5940lib/ad5940.c ****   const uint32_t sinc2osr_table[] = {22,44,89,178,267,533,640,667,800,889,1067,1333,0};
 1617              		.loc 1 482 3 is_stmt 1 view .LVU442
 482:ad5940lib/ad5940.c ****   const uint32_t sinc2osr_table[] = {22,44,89,178,267,533,640,667,800,889,1067,1333,0};
 1618              		.loc 1 482 12 is_stmt 0 view .LVU443
 1619 0008 4FF0000E 		mov	lr, #0
 1620 000c CDF85CE0 		str	lr, [sp, #92]
 483:ad5940lib/ad5940.c ****   const uint32_t sinc3osr_table[] = {5,4,2,0};
 1621              		.loc 1 483 3 is_stmt 1 view .LVU444
 483:ad5940lib/ad5940.c ****   const uint32_t sinc3osr_table[] = {5,4,2,0};
 1622              		.loc 1 483 18 is_stmt 0 view .LVU445
 1623 0010 724E     		ldr	r6, .L138
 1624 0012 0AAC     		add	r4, sp, #40
 1625 0014 3546     		mov	r5, r6
 1626 0016 0FCD     		ldmia	r5!, {r0, r1, r2, r3}
 1627              	.LVL119:
 483:ad5940lib/ad5940.c ****   const uint32_t sinc3osr_table[] = {5,4,2,0};
 1628              		.loc 1 483 18 view .LVU446
 1629 0018 0FC4     		stmia	r4!, {r0, r1, r2, r3}
 1630 001a 0FCD     		ldmia	r5!, {r0, r1, r2, r3}
 1631 001c 0FC4     		stmia	r4!, {r0, r1, r2, r3}
 1632 001e 0FCD     		ldmia	r5!, {r0, r1, r2, r3}
 1633 0020 0FC4     		stmia	r4!, {r0, r1, r2, r3}
 1634 0022 2B68     		ldr	r3, [r5]
 1635 0024 2360     		str	r3, [r4]
 484:ad5940lib/ad5940.c **** 
 1636              		.loc 1 484 3 is_stmt 1 view .LVU447
 484:ad5940lib/ad5940.c **** 
 1637              		.loc 1 484 18 is_stmt 0 view .LVU448
 1638 0026 06AC     		add	r4, sp, #24
 1639 0028 06F13403 		add	r3, r6, #52
 1640 002c 0FCB     		ldm	r3, {r0, r1, r2, r3}
 1641 002e 84E80F00 		stm	r4, {r0, r1, r2, r3}
 486:ad5940lib/ad5940.c ****   if(pFilterInfo == NULL) return;
 1642              		.loc 1 486 3 is_stmt 1 view .LVU449
 486:ad5940lib/ad5940.c ****   if(pFilterInfo == NULL) return;
 1643              		.loc 1 486 12 is_stmt 0 view .LVU450
 1644 0032 C7F800E0 		str	lr, [r7]
 487:ad5940lib/ad5940.c ****   if(pClocks == NULL) return;
 1645              		.loc 1 487 3 is_stmt 1 view .LVU451
 487:ad5940lib/ad5940.c ****   if(pClocks == NULL) return;
 1646              		.loc 1 487 5 is_stmt 0 view .LVU452
 1647 0036 BCF1000F 		cmp	ip, #0
 1648 003a 29D0     		beq	.L117
 1649 003c 6446     		mov	r4, ip
 488:ad5940lib/ad5940.c ****   if(pFilterInfo->ADCSinc2Osr > ADCSINC2OSR_1333) return;
 1650              		.loc 1 488 3 is_stmt 1 view .LVU453
 488:ad5940lib/ad5940.c ****   if(pFilterInfo->ADCSinc2Osr > ADCSINC2OSR_1333) return;
 1651              		.loc 1 488 5 is_stmt 0 view .LVU454
 1652 003e 3FB3     		cbz	r7, .L117
 489:ad5940lib/ad5940.c ****   if(pFilterInfo->ADCSinc3Osr > 2)  return; /* 0: OSR5, 1:OSR4, 2:OSR2 */
ARM GAS  C:\Users\root\AppData\Local\Temp\ccjNHqBU.s 			page 51


 1653              		.loc 1 489 3 is_stmt 1 view .LVU455
 489:ad5940lib/ad5940.c ****   if(pFilterInfo->ADCSinc3Osr > 2)  return; /* 0: OSR5, 1:OSR4, 2:OSR2 */
 1654              		.loc 1 489 17 is_stmt 0 view .LVU456
 1655 0040 DCF80C30 		ldr	r3, [ip, #12]
 489:ad5940lib/ad5940.c ****   if(pFilterInfo->ADCSinc3Osr > 2)  return; /* 0: OSR5, 1:OSR4, 2:OSR2 */
 1656              		.loc 1 489 5 view .LVU457
 1657 0044 0B2B     		cmp	r3, #11
 1658 0046 23D8     		bhi	.L117
 490:ad5940lib/ad5940.c ****   if(pFilterInfo->ADCAvgNum > ADCAVGNUM_16) return; /* Average number index:0,1,2,3 */
 1659              		.loc 1 490 3 is_stmt 1 view .LVU458
 490:ad5940lib/ad5940.c ****   if(pFilterInfo->ADCAvgNum > ADCAVGNUM_16) return; /* Average number index:0,1,2,3 */
 1660              		.loc 1 490 17 is_stmt 0 view .LVU459
 1661 0048 DCF80820 		ldr	r2, [ip, #8]
 490:ad5940lib/ad5940.c ****   if(pFilterInfo->ADCAvgNum > ADCAVGNUM_16) return; /* Average number index:0,1,2,3 */
 1662              		.loc 1 490 5 view .LVU460
 1663 004c 022A     		cmp	r2, #2
 1664 004e 1FD8     		bhi	.L117
 491:ad5940lib/ad5940.c ****   switch(pFilterInfo->DataType)
 1665              		.loc 1 491 3 is_stmt 1 view .LVU461
 491:ad5940lib/ad5940.c ****   switch(pFilterInfo->DataType)
 1666              		.loc 1 491 17 is_stmt 0 view .LVU462
 1667 0050 DCF81010 		ldr	r1, [ip, #16]
 491:ad5940lib/ad5940.c ****   switch(pFilterInfo->DataType)
 1668              		.loc 1 491 5 view .LVU463
 1669 0054 0329     		cmp	r1, #3
 1670 0056 1BD8     		bhi	.L117
 492:ad5940lib/ad5940.c ****   {
 1671              		.loc 1 492 3 is_stmt 1 view .LVU464
 492:ad5940lib/ad5940.c ****   {
 1672              		.loc 1 492 21 is_stmt 0 view .LVU465
 1673 0058 DCF80000 		ldr	r0, [ip]
 1674 005c 0428     		cmp	r0, #4
 1675 005e 15D8     		bhi	.L119
 1676 0060 DFE800F0 		tbb	[pc, r0]
 1677              	.L121:
 1678 0064 03       		.byte	(.L125-.L121)/2
 1679 0065 18       		.byte	(.L124-.L121)/2
 1680 0066 37       		.byte	(.L123-.L121)/2
 1681 0067 80       		.byte	(.L122-.L121)/2
 1682 0068 51       		.byte	(.L120-.L121)/2
 1683 0069 00       		.p2align 1
 1684              	.L125:
 495:ad5940lib/ad5940.c ****       break;
 1685              		.loc 1 495 7 is_stmt 1 view .LVU466
 495:ad5940lib/ad5940.c ****       break;
 1686              		.loc 1 495 39 is_stmt 0 view .LVU467
 1687 006a DCF80430 		ldr	r3, [ip, #4]
 495:ad5940lib/ad5940.c ****       break;
 1688              		.loc 1 495 27 view .LVU468
 1689 006e 03EB8303 		add	r3, r3, r3, lsl #2
 1690 0072 9B00     		lsls	r3, r3, #2
 495:ad5940lib/ad5940.c ****       break;
 1691              		.loc 1 495 62 view .LVU469
 1692 0074 9CED077A 		vldr.32	s14, [ip, #28]
 495:ad5940lib/ad5940.c ****       break;
 1693              		.loc 1 495 50 view .LVU470
 1694 0078 07EE903A 		vmov	s15, r3	@ int
ARM GAS  C:\Users\root\AppData\Local\Temp\ccjNHqBU.s 			page 52


 1695 007c F8EE677A 		vcvt.f32.u32	s15, s15
 1696 0080 67EE877A 		vmul.f32	s15, s15, s14
 495:ad5940lib/ad5940.c ****       break;
 1697              		.loc 1 495 14 view .LVU471
 1698 0084 FCEEE77A 		vcvt.u32.f32	s15, s15
 495:ad5940lib/ad5940.c ****       break;
 1699              		.loc 1 495 12 view .LVU472
 1700 0088 CDED177A 		vstr.32	s15, [sp, #92]	@ int
 496:ad5940lib/ad5940.c ****     case DATATYPE_SINC3:
 1701              		.loc 1 496 7 is_stmt 1 view .LVU473
 1702              	.LVL120:
 1703              	.L119:
 561:ad5940lib/ad5940.c **** }
 1704              		.loc 1 561 3 discriminator 1 view .LVU474
 561:ad5940lib/ad5940.c **** }
 1705              		.loc 1 561 12 is_stmt 0 discriminator 1 view .LVU475
 1706 008c 179B     		ldr	r3, [sp, #92]
 1707 008e 3B60     		str	r3, [r7]
 1708              	.LVL121:
 1709              	.L117:
 562:ad5940lib/ad5940.c **** 
 1710              		.loc 1 562 1 view .LVU476
 1711 0090 19B0     		add	sp, sp, #100
 1712              	.LCFI35:
 1713              		.cfi_remember_state
 1714              		.cfi_def_cfa_offset 20
 1715              		@ sp needed
 1716 0092 F0BD     		pop	{r4, r5, r6, r7, pc}
 1717              	.LVL122:
 1718              	.L124:
 1719              	.LCFI36:
 1720              		.cfi_restore_state
 498:ad5940lib/ad5940.c ****       break;
 1721              		.loc 1 498 7 is_stmt 1 view .LVU477
 498:ad5940lib/ad5940.c ****       break;
 1722              		.loc 1 498 38 is_stmt 0 view .LVU478
 1723 0094 DCF80410 		ldr	r1, [ip, #4]
 498:ad5940lib/ad5940.c ****       break;
 1724              		.loc 1 498 67 view .LVU479
 1725 0098 18AB     		add	r3, sp, #96
 1726 009a 03EB8202 		add	r2, r3, r2, lsl #2
 1727 009e 52F8483C 		ldr	r3, [r2, #-72]
 498:ad5940lib/ad5940.c ****       break;
 1728              		.loc 1 498 96 view .LVU480
 1729 00a2 01EB8102 		add	r2, r1, r1, lsl #2
 1730 00a6 9200     		lsls	r2, r2, #2
 1731 00a8 2832     		adds	r2, r2, #40
 1732 00aa 03FB02F3 		mul	r3, r3, r2
 1733 00ae 1433     		adds	r3, r3, #20
 1734 00b0 07EE903A 		vmov	s15, r3	@ int
 498:ad5940lib/ad5940.c ****       break;
 1735              		.loc 1 498 111 view .LVU481
 1736 00b4 9CED077A 		vldr.32	s14, [ip, #28]
 498:ad5940lib/ad5940.c ****       break;
 1737              		.loc 1 498 99 view .LVU482
 1738 00b8 F8EE677A 		vcvt.f32.u32	s15, s15
 1739 00bc 67EE877A 		vmul.f32	s15, s15, s14
ARM GAS  C:\Users\root\AppData\Local\Temp\ccjNHqBU.s 			page 53


 498:ad5940lib/ad5940.c ****       break;
 1740              		.loc 1 498 129 view .LVU483
 1741 00c0 B6EE007A 		vmov.f32	s14, #5.0e-1
 1742 00c4 77EE877A 		vadd.f32	s15, s15, s14
 498:ad5940lib/ad5940.c ****       break;
 1743              		.loc 1 498 14 view .LVU484
 1744 00c8 FCEEE77A 		vcvt.u32.f32	s15, s15
 498:ad5940lib/ad5940.c ****       break;
 1745              		.loc 1 498 12 view .LVU485
 1746 00cc CDED177A 		vstr.32	s15, [sp, #92]	@ int
 499:ad5940lib/ad5940.c ****     case DATATYPE_SINC2: 
 1747              		.loc 1 499 7 is_stmt 1 view .LVU486
 1748 00d0 DCE7     		b	.L119
 1749              	.L123:
 501:ad5940lib/ad5940.c ****       pFilterInfo->DataType = DATATYPE_SINC3;
 1750              		.loc 1 501 7 view .LVU487
 501:ad5940lib/ad5940.c ****       pFilterInfo->DataType = DATATYPE_SINC3;
 1751              		.loc 1 501 26 is_stmt 0 view .LVU488
 1752 00d2 DCF80420 		ldr	r2, [ip, #4]
 501:ad5940lib/ad5940.c ****       pFilterInfo->DataType = DATATYPE_SINC3;
 1753              		.loc 1 501 55 view .LVU489
 1754 00d6 18A9     		add	r1, sp, #96
 1755 00d8 01EB8303 		add	r3, r1, r3, lsl #2
 1756 00dc 53F8383C 		ldr	r3, [r3, #-56]
 501:ad5940lib/ad5940.c ****       pFilterInfo->DataType = DATATYPE_SINC3;
 1757              		.loc 1 501 40 view .LVU490
 1758 00e0 02FB0333 		mla	r3, r2, r3, r3
 501:ad5940lib/ad5940.c ****       pFilterInfo->DataType = DATATYPE_SINC3;
 1759              		.loc 1 501 82 view .LVU491
 1760 00e4 0133     		adds	r3, r3, #1
 501:ad5940lib/ad5940.c ****       pFilterInfo->DataType = DATATYPE_SINC3;
 1761              		.loc 1 501 12 view .LVU492
 1762 00e6 1793     		str	r3, [sp, #92]
 502:ad5940lib/ad5940.c ****       pFilterInfo->DataCount = temp;
 1763              		.loc 1 502 7 is_stmt 1 view .LVU493
 502:ad5940lib/ad5940.c ****       pFilterInfo->DataCount = temp;
 1764              		.loc 1 502 29 is_stmt 0 view .LVU494
 1765 00e8 0122     		movs	r2, #1
 1766 00ea CCF80020 		str	r2, [ip]
 503:ad5940lib/ad5940.c ****       AD5940_ClksCalculate(pFilterInfo, &temp);
 1767              		.loc 1 503 7 is_stmt 1 view .LVU495
 503:ad5940lib/ad5940.c ****       AD5940_ClksCalculate(pFilterInfo, &temp);
 1768              		.loc 1 503 30 is_stmt 0 view .LVU496
 1769 00ee CCF80430 		str	r3, [ip, #4]
 504:ad5940lib/ad5940.c ****       pFilterInfo->DataType = DATATYPE_SINC2;
 1770              		.loc 1 504 7 is_stmt 1 view .LVU497
 1771 00f2 17A9     		add	r1, sp, #92
 1772 00f4 6046     		mov	r0, ip
 1773 00f6 FFF7FEFF 		bl	AD5940_ClksCalculate
 1774              	.LVL123:
 505:ad5940lib/ad5940.c ****       temp += 15;   /* Need extra 15 clocks for FIFO etc. Just to be safe. */
 1775              		.loc 1 505 7 view .LVU498
 505:ad5940lib/ad5940.c ****       temp += 15;   /* Need extra 15 clocks for FIFO etc. Just to be safe. */
 1776              		.loc 1 505 29 is_stmt 0 view .LVU499
 1777 00fa 0223     		movs	r3, #2
 1778 00fc 2360     		str	r3, [r4]
 506:ad5940lib/ad5940.c ****       break;
ARM GAS  C:\Users\root\AppData\Local\Temp\ccjNHqBU.s 			page 54


 1779              		.loc 1 506 7 is_stmt 1 view .LVU500
 506:ad5940lib/ad5940.c ****       break;
 1780              		.loc 1 506 12 is_stmt 0 view .LVU501
 1781 00fe 179B     		ldr	r3, [sp, #92]
 1782 0100 0F33     		adds	r3, r3, #15
 1783 0102 1793     		str	r3, [sp, #92]
 507:ad5940lib/ad5940.c ****     case DATATYPE_NOTCH:
 1784              		.loc 1 507 7 is_stmt 1 view .LVU502
 1785 0104 C2E7     		b	.L119
 1786              	.L120:
 1787              	.LBB9:
 510:ad5940lib/ad5940.c ****       filter.ADCRate = pFilterInfo->ADCRate;
 1788              		.loc 1 510 7 view .LVU503
 511:ad5940lib/ad5940.c ****       filter.ADCSinc3Osr = pFilterInfo->ADCSinc3Osr;
 1789              		.loc 1 511 7 view .LVU504
 511:ad5940lib/ad5940.c ****       filter.ADCSinc3Osr = pFilterInfo->ADCSinc3Osr;
 1790              		.loc 1 511 35 is_stmt 0 view .LVU505
 1791 0106 9CF81830 		ldrb	r3, [ip, #24]	@ zero_extendqisi2
 511:ad5940lib/ad5940.c ****       filter.ADCSinc3Osr = pFilterInfo->ADCSinc3Osr;
 1792              		.loc 1 511 22 view .LVU506
 1793 010a 0493     		str	r3, [sp, #16]
 512:ad5940lib/ad5940.c ****       filter.ADCSinc2Osr = pFilterInfo->ADCSinc2Osr;
 1794              		.loc 1 512 7 is_stmt 1 view .LVU507
 512:ad5940lib/ad5940.c ****       filter.ADCSinc2Osr = pFilterInfo->ADCSinc2Osr;
 1795              		.loc 1 512 39 is_stmt 0 view .LVU508
 1796 010c DCF80830 		ldr	r3, [ip, #8]
 512:ad5940lib/ad5940.c ****       filter.ADCSinc2Osr = pFilterInfo->ADCSinc2Osr;
 1797              		.loc 1 512 26 view .LVU509
 1798 0110 0193     		str	r3, [sp, #4]
 513:ad5940lib/ad5940.c ****       uint8_t dl=0, dl_50, dl_60;
 1799              		.loc 1 513 7 is_stmt 1 view .LVU510
 513:ad5940lib/ad5940.c ****       uint8_t dl=0, dl_50, dl_60;
 1800              		.loc 1 513 39 is_stmt 0 view .LVU511
 1801 0112 DCF80C30 		ldr	r3, [ip, #12]
 513:ad5940lib/ad5940.c ****       uint8_t dl=0, dl_50, dl_60;
 1802              		.loc 1 513 26 view .LVU512
 1803 0116 0293     		str	r3, [sp, #8]
 514:ad5940lib/ad5940.c ****       if(AD5940_Notch50HzAvailable(&filter, &dl_50)){
 1804              		.loc 1 514 7 is_stmt 1 view .LVU513
 1805              	.LVL124:
 515:ad5940lib/ad5940.c ****         dl += dl_50 - 1;
 1806              		.loc 1 515 7 view .LVU514
 515:ad5940lib/ad5940.c ****         dl += dl_50 - 1;
 1807              		.loc 1 515 10 is_stmt 0 view .LVU515
 1808 0118 0DF10201 		add	r1, sp, #2
 1809 011c 01A8     		add	r0, sp, #4
 1810 011e FFF7FEFF 		bl	AD5940_Notch50HzAvailable
 1811              	.LVL125:
 515:ad5940lib/ad5940.c ****         dl += dl_50 - 1;
 1812              		.loc 1 515 9 view .LVU516
 1813 0122 0546     		mov	r5, r0
 1814 0124 18B1     		cbz	r0, .L126
 516:ad5940lib/ad5940.c ****       }
 1815              		.loc 1 516 9 is_stmt 1 view .LVU517
 516:ad5940lib/ad5940.c ****       }
 1816              		.loc 1 516 12 is_stmt 0 view .LVU518
 1817 0126 9DF80250 		ldrb	r5, [sp, #2]	@ zero_extendqisi2
ARM GAS  C:\Users\root\AppData\Local\Temp\ccjNHqBU.s 			page 55


 1818 012a 013D     		subs	r5, r5, #1
 1819 012c EDB2     		uxtb	r5, r5
 1820              	.LVL126:
 1821              	.L126:
 518:ad5940lib/ad5940.c ****         dl += dl_60 - 1;
 1822              		.loc 1 518 7 is_stmt 1 view .LVU519
 518:ad5940lib/ad5940.c ****         dl += dl_60 - 1;
 1823              		.loc 1 518 10 is_stmt 0 view .LVU520
 1824 012e 0DF10301 		add	r1, sp, #3
 1825 0132 01A8     		add	r0, sp, #4
 1826 0134 FFF7FEFF 		bl	AD5940_Notch60HzAvailable
 1827              	.LVL127:
 518:ad5940lib/ad5940.c ****         dl += dl_60 - 1;
 1828              		.loc 1 518 9 view .LVU521
 1829 0138 28B1     		cbz	r0, .L127
 519:ad5940lib/ad5940.c ****       }
 1830              		.loc 1 519 9 is_stmt 1 view .LVU522
 519:ad5940lib/ad5940.c ****       }
 1831              		.loc 1 519 12 is_stmt 0 view .LVU523
 1832 013a 9DF80330 		ldrb	r3, [sp, #3]	@ zero_extendqisi2
 1833 013e 1D44     		add	r5, r5, r3
 1834              	.LVL128:
 519:ad5940lib/ad5940.c ****       }
 1835              		.loc 1 519 12 view .LVU524
 1836 0140 EDB2     		uxtb	r5, r5
 1837 0142 013D     		subs	r5, r5, #1
 1838 0144 EDB2     		uxtb	r5, r5
 1839              	.LVL129:
 1840              	.L127:
 521:ad5940lib/ad5940.c ****       pFilterInfo->DataCount += dl; //DL is the extra data input needed for filter to output first 
 1841              		.loc 1 521 7 is_stmt 1 view .LVU525
 521:ad5940lib/ad5940.c ****       pFilterInfo->DataCount += dl; //DL is the extra data input needed for filter to output first 
 1842              		.loc 1 521 29 is_stmt 0 view .LVU526
 1843 0146 0223     		movs	r3, #2
 1844 0148 2360     		str	r3, [r4]
 522:ad5940lib/ad5940.c ****       AD5940_ClksCalculate(pFilterInfo,&temp);
 1845              		.loc 1 522 7 is_stmt 1 view .LVU527
 522:ad5940lib/ad5940.c ****       AD5940_ClksCalculate(pFilterInfo,&temp);
 1846              		.loc 1 522 30 is_stmt 0 view .LVU528
 1847 014a 6368     		ldr	r3, [r4, #4]
 1848 014c 2B44     		add	r3, r3, r5
 1849 014e 6360     		str	r3, [r4, #4]
 523:ad5940lib/ad5940.c ****       //restore the filter info.
 1850              		.loc 1 523 7 is_stmt 1 view .LVU529
 1851 0150 17A9     		add	r1, sp, #92
 1852 0152 2046     		mov	r0, r4
 1853 0154 FFF7FEFF 		bl	AD5940_ClksCalculate
 1854              	.LVL130:
 525:ad5940lib/ad5940.c ****       pFilterInfo->DataCount -= dl;
 1855              		.loc 1 525 7 view .LVU530
 525:ad5940lib/ad5940.c ****       pFilterInfo->DataCount -= dl;
 1856              		.loc 1 525 29 is_stmt 0 view .LVU531
 1857 0158 0423     		movs	r3, #4
 1858 015a 2360     		str	r3, [r4]
 526:ad5940lib/ad5940.c ****       break;
 1859              		.loc 1 526 7 is_stmt 1 view .LVU532
 526:ad5940lib/ad5940.c ****       break;
ARM GAS  C:\Users\root\AppData\Local\Temp\ccjNHqBU.s 			page 56


 1860              		.loc 1 526 30 is_stmt 0 view .LVU533
 1861 015c 6368     		ldr	r3, [r4, #4]
 1862 015e 5D1B     		subs	r5, r3, r5
 1863              	.LVL131:
 526:ad5940lib/ad5940.c ****       break;
 1864              		.loc 1 526 30 view .LVU534
 1865 0160 6560     		str	r5, [r4, #4]
 527:ad5940lib/ad5940.c ****     }
 1866              		.loc 1 527 7 is_stmt 1 view .LVU535
 1867 0162 93E7     		b	.L119
 1868              	.L122:
 527:ad5940lib/ad5940.c ****     }
 1869              		.loc 1 527 7 is_stmt 0 view .LVU536
 1870              	.LBE9:
 530:ad5940lib/ad5940.c ****       {
 1871              		.loc 1 530 7 is_stmt 1 view .LVU537
 530:ad5940lib/ad5940.c ****       {
 1872              		.loc 1 530 25 is_stmt 0 view .LVU538
 1873 0164 DCF81430 		ldr	r3, [ip, #20]
 1874 0168 032B     		cmp	r3, #3
 1875 016a 0AD8     		bhi	.L128
 1876 016c DFE803F0 		tbb	[pc, r3]
 1877              	.L130:
 1878 0170 17       		.byte	(.L133-.L130)/2
 1879 0171 0F       		.byte	(.L132-.L130)/2
 1880 0172 02       		.byte	(.L131-.L130)/2
 1881 0173 26       		.byte	(.L129-.L130)/2
 1882              		.p2align 1
 1883              	.L131:
 533:ad5940lib/ad5940.c ****           AD5940_ClksCalculate(pFilterInfo, &temp);
 1884              		.loc 1 533 11 is_stmt 1 view .LVU539
 533:ad5940lib/ad5940.c ****           AD5940_ClksCalculate(pFilterInfo, &temp);
 1885              		.loc 1 533 33 is_stmt 0 view .LVU540
 1886 0174 0023     		movs	r3, #0
 1887 0176 CCF80030 		str	r3, [ip]
 534:ad5940lib/ad5940.c ****           break;
 1888              		.loc 1 534 11 is_stmt 1 view .LVU541
 1889 017a 17A9     		add	r1, sp, #92
 1890 017c 6046     		mov	r0, ip
 1891 017e FFF7FEFF 		bl	AD5940_ClksCalculate
 1892              	.LVL132:
 535:ad5940lib/ad5940.c ****         case DFTSRC_SINC3:
 1893              		.loc 1 535 11 view .LVU542
 1894              	.L128:
 555:ad5940lib/ad5940.c ****       temp += 25; /* add margin */
 1895              		.loc 1 555 7 view .LVU543
 555:ad5940lib/ad5940.c ****       temp += 25; /* add margin */
 1896              		.loc 1 555 29 is_stmt 0 view .LVU544
 1897 0182 0323     		movs	r3, #3
 1898 0184 2360     		str	r3, [r4]
 556:ad5940lib/ad5940.c ****       break;
 1899              		.loc 1 556 7 is_stmt 1 view .LVU545
 556:ad5940lib/ad5940.c ****       break;
 1900              		.loc 1 556 12 is_stmt 0 view .LVU546
 1901 0186 179B     		ldr	r3, [sp, #92]
 1902 0188 1933     		adds	r3, r3, #25
 1903 018a 1793     		str	r3, [sp, #92]
ARM GAS  C:\Users\root\AppData\Local\Temp\ccjNHqBU.s 			page 57


 557:ad5940lib/ad5940.c ****     default:
 1904              		.loc 1 557 7 is_stmt 1 view .LVU547
 1905 018c 7EE7     		b	.L119
 1906              	.L132:
 537:ad5940lib/ad5940.c ****           AD5940_ClksCalculate(pFilterInfo, &temp);
 1907              		.loc 1 537 11 view .LVU548
 537:ad5940lib/ad5940.c ****           AD5940_ClksCalculate(pFilterInfo, &temp);
 1908              		.loc 1 537 33 is_stmt 0 view .LVU549
 1909 018e 0123     		movs	r3, #1
 1910 0190 CCF80030 		str	r3, [ip]
 538:ad5940lib/ad5940.c ****           break;
 1911              		.loc 1 538 11 is_stmt 1 view .LVU550
 1912 0194 17A9     		add	r1, sp, #92
 1913 0196 6046     		mov	r0, ip
 1914 0198 FFF7FEFF 		bl	AD5940_ClksCalculate
 1915              	.LVL133:
 539:ad5940lib/ad5940.c ****         case DFTSRC_SINC2NOTCH:
 1916              		.loc 1 539 11 view .LVU551
 1917 019c F1E7     		b	.L128
 1918              	.L133:
 541:ad5940lib/ad5940.c ****             pFilterInfo->DataType = DATATYPE_SINC2;
 1919              		.loc 1 541 11 view .LVU552
 541:ad5940lib/ad5940.c ****             pFilterInfo->DataType = DATATYPE_SINC2;
 1920              		.loc 1 541 25 is_stmt 0 view .LVU553
 1921 019e 9CF81930 		ldrb	r3, [ip, #25]	@ zero_extendqisi2
 541:ad5940lib/ad5940.c ****             pFilterInfo->DataType = DATATYPE_SINC2;
 1922              		.loc 1 541 13 view .LVU554
 1923 01a2 3BB1     		cbz	r3, .L134
 542:ad5940lib/ad5940.c ****           else
 1924              		.loc 1 542 13 is_stmt 1 view .LVU555
 542:ad5940lib/ad5940.c ****           else
 1925              		.loc 1 542 35 is_stmt 0 view .LVU556
 1926 01a4 0223     		movs	r3, #2
 1927 01a6 CCF80030 		str	r3, [ip]
 1928              	.L135:
 545:ad5940lib/ad5940.c ****           break;
 1929              		.loc 1 545 11 is_stmt 1 view .LVU557
 1930 01aa 17A9     		add	r1, sp, #92
 1931 01ac 2046     		mov	r0, r4
 1932 01ae FFF7FEFF 		bl	AD5940_ClksCalculate
 1933              	.LVL134:
 546:ad5940lib/ad5940.c ****         case DFTSRC_AVG:
 1934              		.loc 1 546 11 view .LVU558
 1935 01b2 E6E7     		b	.L128
 1936              	.L134:
 544:ad5940lib/ad5940.c ****           AD5940_ClksCalculate(pFilterInfo, &temp);
 1937              		.loc 1 544 13 view .LVU559
 544:ad5940lib/ad5940.c ****           AD5940_ClksCalculate(pFilterInfo, &temp);
 1938              		.loc 1 544 35 is_stmt 0 view .LVU560
 1939 01b4 0423     		movs	r3, #4
 1940 01b6 CCF80030 		str	r3, [ip]
 1941 01ba F6E7     		b	.L135
 1942              	.L129:
 548:ad5940lib/ad5940.c ****           pFilterInfo->DataCount *= 1L<<(pFilterInfo->ADCAvgNum+1); /* 0: average2, 1: average4, 2:
 1943              		.loc 1 548 11 is_stmt 1 view .LVU561
 548:ad5940lib/ad5940.c ****           pFilterInfo->DataCount *= 1L<<(pFilterInfo->ADCAvgNum+1); /* 0: average2, 1: average4, 2:
 1944              		.loc 1 548 33 is_stmt 0 view .LVU562
ARM GAS  C:\Users\root\AppData\Local\Temp\ccjNHqBU.s 			page 58


 1945 01bc 0123     		movs	r3, #1
 1946 01be CCF80030 		str	r3, [ip]
 549:ad5940lib/ad5940.c ****           AD5940_ClksCalculate(pFilterInfo, &temp);
 1947              		.loc 1 549 11 is_stmt 1 view .LVU563
 549:ad5940lib/ad5940.c ****           AD5940_ClksCalculate(pFilterInfo, &temp);
 1948              		.loc 1 549 64 is_stmt 0 view .LVU564
 1949 01c2 1944     		add	r1, r1, r3
 549:ad5940lib/ad5940.c ****           AD5940_ClksCalculate(pFilterInfo, &temp);
 1950              		.loc 1 549 34 view .LVU565
 1951 01c4 DCF80430 		ldr	r3, [ip, #4]
 1952 01c8 03FA01F1 		lsl	r1, r3, r1
 1953 01cc CCF80410 		str	r1, [ip, #4]
 550:ad5940lib/ad5940.c ****           break;
 1954              		.loc 1 550 11 is_stmt 1 view .LVU566
 1955 01d0 17A9     		add	r1, sp, #92
 1956 01d2 6046     		mov	r0, ip
 1957 01d4 FFF7FEFF 		bl	AD5940_ClksCalculate
 1958              	.LVL135:
 551:ad5940lib/ad5940.c ****         default:
 1959              		.loc 1 551 11 view .LVU567
 1960 01d8 D3E7     		b	.L128
 1961              	.L139:
 1962 01da 00BF     		.align	2
 1963              	.L138:
 1964 01dc 00000000 		.word	.LANCHOR0
 1965              		.cfi_endproc
 1966              	.LFE16:
 1968              		.section	.text.AD5940_SweepNext,"ax",%progbits
 1969              		.align	1
 1970              		.global	AD5940_SweepNext
 1971              		.syntax unified
 1972              		.thumb
 1973              		.thumb_func
 1974              		.fpu fpv5-d16
 1976              	AD5940_SweepNext:
 1977              	.LVL136:
 1978              	.LFB17:
 570:ad5940lib/ad5940.c ****    float frequency;
 1979              		.loc 1 570 1 view -0
 1980              		.cfi_startproc
 1981              		@ args = 0, pretend = 0, frame = 0
 1982              		@ frame_needed = 0, uses_anonymous_args = 0
 570:ad5940lib/ad5940.c ****    float frequency;
 1983              		.loc 1 570 1 is_stmt 0 view .LVU569
 1984 0000 70B5     		push	{r4, r5, r6, lr}
 1985              	.LCFI37:
 1986              		.cfi_def_cfa_offset 16
 1987              		.cfi_offset 4, -16
 1988              		.cfi_offset 5, -12
 1989              		.cfi_offset 6, -8
 1990              		.cfi_offset 14, -4
 1991 0002 2DED028B 		vpush.64	{d8}
 1992              	.LCFI38:
 1993              		.cfi_def_cfa_offset 24
 1994              		.cfi_offset 80, -24
 1995              		.cfi_offset 81, -20
 1996 0006 0446     		mov	r4, r0
ARM GAS  C:\Users\root\AppData\Local\Temp\ccjNHqBU.s 			page 59


 1997 0008 0D46     		mov	r5, r1
 571:ad5940lib/ad5940.c **** 
 1998              		.loc 1 571 4 is_stmt 1 view .LVU570
 573:ad5940lib/ad5940.c ****    {
 1999              		.loc 1 573 4 view .LVU571
 573:ad5940lib/ad5940.c ****    {
 2000              		.loc 1 573 16 is_stmt 0 view .LVU572
 2001 000a 037C     		ldrb	r3, [r0, #16]	@ zero_extendqisi2
 573:ad5940lib/ad5940.c ****    {
 2002              		.loc 1 573 6 view .LVU573
 2003 000c 002B     		cmp	r3, #0
 2004 000e 5DD0     		beq	.L141
 575:ad5940lib/ad5940.c ****       {
 2005              		.loc 1 575 7 is_stmt 1 view .LVU574
 575:ad5940lib/ad5940.c ****       {
 2006              		.loc 1 575 19 is_stmt 0 view .LVU575
 2007 0010 90ED017A 		vldr.32	s14, [r0, #4]
 575:ad5940lib/ad5940.c ****       {
 2008              		.loc 1 575 41 view .LVU576
 2009 0014 D0ED027A 		vldr.32	s15, [r0, #8]
 575:ad5940lib/ad5940.c ****       {
 2010              		.loc 1 575 9 view .LVU577
 2011 0018 B4EEE77A 		vcmpe.f32	s14, s15
 2012 001c F1EE10FA 		vmrs	APSR_nzcv, FPSCR
 2013 0020 2CD5     		bpl	.L153
 577:ad5940lib/ad5940.c ****             pSweepCfg->SweepIndex = 0;
 2014              		.loc 1 577 10 is_stmt 1 view .LVU578
 577:ad5940lib/ad5940.c ****             pSweepCfg->SweepIndex = 0;
 2015              		.loc 1 577 24 is_stmt 0 view .LVU579
 2016 0022 4369     		ldr	r3, [r0, #20]
 577:ad5940lib/ad5940.c ****             pSweepCfg->SweepIndex = 0;
 2017              		.loc 1 577 13 view .LVU580
 2018 0024 0133     		adds	r3, r3, #1
 577:ad5940lib/ad5940.c ****             pSweepCfg->SweepIndex = 0;
 2019              		.loc 1 577 12 view .LVU581
 2020 0026 4361     		str	r3, [r0, #20]
 577:ad5940lib/ad5940.c ****             pSweepCfg->SweepIndex = 0;
 2021              		.loc 1 577 49 view .LVU582
 2022 0028 C268     		ldr	r2, [r0, #12]
 577:ad5940lib/ad5940.c ****             pSweepCfg->SweepIndex = 0;
 2023              		.loc 1 577 12 view .LVU583
 2024 002a 9342     		cmp	r3, r2
 2025 002c 23D0     		beq	.L156
 2026              	.L144:
 579:ad5940lib/ad5940.c ****       }
 2027              		.loc 1 579 10 is_stmt 1 view .LVU584
 579:ad5940lib/ad5940.c ****       }
 2028              		.loc 1 579 31 is_stmt 0 view .LVU585
 2029 002e B7EEC78A 		vcvt.f64.f32	d8, s14
 579:ad5940lib/ad5940.c ****       }
 2030              		.loc 1 579 60 view .LVU586
 2031 0032 6669     		ldr	r6, [r4, #20]
 579:ad5940lib/ad5940.c ****       }
 2032              		.loc 1 579 99 view .LVU587
 2033 0034 87EE870A 		vdiv.f32	s0, s15, s14
 579:ad5940lib/ad5940.c ****       }
 2034              		.loc 1 579 73 view .LVU588
ARM GAS  C:\Users\root\AppData\Local\Temp\ccjNHqBU.s 			page 60


 2035 0038 B7EEC00A 		vcvt.f64.f32	d0, s0
 2036 003c FFF7FEFF 		bl	log10
 2037              	.LVL137:
 579:ad5940lib/ad5940.c ****       }
 2038              		.loc 1 579 72 view .LVU589
 2039 0040 07EE906A 		vmov	s15, r6	@ int
 2040 0044 B8EE671B 		vcvt.f64.u32	d1, s15
 2041 0048 21EE001B 		vmul.f64	d1, d1, d0
 579:ad5940lib/ad5940.c ****       }
 2042              		.loc 1 579 133 view .LVU590
 2043 004c E368     		ldr	r3, [r4, #12]
 579:ad5940lib/ad5940.c ****       }
 2044              		.loc 1 579 146 view .LVU591
 2045 004e 013B     		subs	r3, r3, #1
 579:ad5940lib/ad5940.c ****       }
 2046              		.loc 1 579 44 view .LVU592
 2047 0050 07EE903A 		vmov	s15, r3	@ int
 2048 0054 B8EE677B 		vcvt.f64.u32	d7, s15
 2049 0058 81EE071B 		vdiv.f64	d1, d1, d7
 2050 005c B2EE040B 		vmov.f64	d0, #1.0e+1
 2051 0060 FFF7FEFF 		bl	pow
 2052              	.LVL138:
 579:ad5940lib/ad5940.c ****       }
 2053              		.loc 1 579 43 view .LVU593
 2054 0064 28EE008B 		vmul.f64	d8, d8, d0
 579:ad5940lib/ad5940.c ****       }
 2055              		.loc 1 579 20 view .LVU594
 2056 0068 B7EEC88B 		vcvt.f32.f64	s16, d8
 2057              	.LVL139:
 2058              	.L145:
 607:ad5940lib/ad5940.c **** }
 2059              		.loc 1 607 4 is_stmt 1 view .LVU595
 607:ad5940lib/ad5940.c **** }
 2060              		.loc 1 607 15 is_stmt 0 view .LVU596
 2061 006c 85ED008A 		vstr.32	s16, [r5]
 608:ad5940lib/ad5940.c **** 
 2062              		.loc 1 608 1 view .LVU597
 2063 0070 BDEC028B 		vldm	sp!, {d8}
 2064              	.LCFI39:
 2065              		.cfi_remember_state
 2066              		.cfi_restore 80
 2067              		.cfi_restore 81
 2068              		.cfi_def_cfa_offset 16
 2069              	.LVL140:
 608:ad5940lib/ad5940.c **** 
 2070              		.loc 1 608 1 view .LVU598
 2071 0074 70BD     		pop	{r4, r5, r6, pc}
 2072              	.LVL141:
 2073              	.L156:
 2074              	.LCFI40:
 2075              		.cfi_restore_state
 578:ad5940lib/ad5940.c ****          frequency = pSweepCfg->SweepStart*pow(10,pSweepCfg->SweepIndex*log10(pSweepCfg->SweepStop/
 2076              		.loc 1 578 13 is_stmt 1 view .LVU599
 578:ad5940lib/ad5940.c ****          frequency = pSweepCfg->SweepStart*pow(10,pSweepCfg->SweepIndex*log10(pSweepCfg->SweepStop/
 2077              		.loc 1 578 35 is_stmt 0 view .LVU600
 2078 0076 0023     		movs	r3, #0
 2079 0078 4361     		str	r3, [r0, #20]
ARM GAS  C:\Users\root\AppData\Local\Temp\ccjNHqBU.s 			page 61


 2080 007a D8E7     		b	.L144
 2081              	.L153:
 583:ad5940lib/ad5940.c ****          if(pSweepCfg->SweepIndex >= pSweepCfg->SweepPoints)
 2082              		.loc 1 583 10 is_stmt 1 view .LVU601
 583:ad5940lib/ad5940.c ****          if(pSweepCfg->SweepIndex >= pSweepCfg->SweepPoints)
 2083              		.loc 1 583 19 is_stmt 0 view .LVU602
 2084 007c 4369     		ldr	r3, [r0, #20]
 583:ad5940lib/ad5940.c ****          if(pSweepCfg->SweepIndex >= pSweepCfg->SweepPoints)
 2085              		.loc 1 583 32 view .LVU603
 2086 007e 013B     		subs	r3, r3, #1
 2087 0080 4361     		str	r3, [r0, #20]
 584:ad5940lib/ad5940.c ****             pSweepCfg->SweepIndex = pSweepCfg->SweepPoints-1;
 2088              		.loc 1 584 10 is_stmt 1 view .LVU604
 584:ad5940lib/ad5940.c ****             pSweepCfg->SweepIndex = pSweepCfg->SweepPoints-1;
 2089              		.loc 1 584 47 is_stmt 0 view .LVU605
 2090 0082 C268     		ldr	r2, [r0, #12]
 584:ad5940lib/ad5940.c ****             pSweepCfg->SweepIndex = pSweepCfg->SweepPoints-1;
 2091              		.loc 1 584 12 view .LVU606
 2092 0084 9342     		cmp	r3, r2
 2093 0086 01D3     		bcc	.L146
 585:ad5940lib/ad5940.c ****          frequency = pSweepCfg->SweepStop*pow(10,pSweepCfg->SweepIndex*
 2094              		.loc 1 585 13 is_stmt 1 view .LVU607
 585:ad5940lib/ad5940.c ****          frequency = pSweepCfg->SweepStop*pow(10,pSweepCfg->SweepIndex*
 2095              		.loc 1 585 59 is_stmt 0 view .LVU608
 2096 0088 013A     		subs	r2, r2, #1
 585:ad5940lib/ad5940.c ****          frequency = pSweepCfg->SweepStop*pow(10,pSweepCfg->SweepIndex*
 2097              		.loc 1 585 35 view .LVU609
 2098 008a 4261     		str	r2, [r0, #20]
 2099              	.L146:
 586:ad5940lib/ad5940.c ****                                      (log10(pSweepCfg->SweepStart/pSweepCfg->SweepStop)/(pSweepCfg-
 2100              		.loc 1 586 10 is_stmt 1 view .LVU610
 586:ad5940lib/ad5940.c ****                                      (log10(pSweepCfg->SweepStart/pSweepCfg->SweepStop)/(pSweepCfg-
 2101              		.loc 1 586 31 is_stmt 0 view .LVU611
 2102 008c B7EEE78A 		vcvt.f64.f32	d8, s15
 586:ad5940lib/ad5940.c ****                                      (log10(pSweepCfg->SweepStart/pSweepCfg->SweepStop)/(pSweepCfg-
 2103              		.loc 1 586 59 view .LVU612
 2104 0090 6669     		ldr	r6, [r4, #20]
 587:ad5940lib/ad5940.c ****       }
 2105              		.loc 1 587 66 view .LVU613
 2106 0092 87EE270A 		vdiv.f32	s0, s14, s15
 587:ad5940lib/ad5940.c ****       }
 2107              		.loc 1 587 39 view .LVU614
 2108 0096 B7EEC00A 		vcvt.f64.f32	d0, s0
 2109 009a FFF7FEFF 		bl	log10
 2110              	.LVL142:
 587:ad5940lib/ad5940.c ****       }
 2111              		.loc 1 587 99 view .LVU615
 2112 009e E368     		ldr	r3, [r4, #12]
 587:ad5940lib/ad5940.c ****       }
 2113              		.loc 1 587 112 view .LVU616
 2114 00a0 013B     		subs	r3, r3, #1
 587:ad5940lib/ad5940.c ****       }
 2115              		.loc 1 587 88 view .LVU617
 2116 00a2 07EE903A 		vmov	s15, r3	@ int
 2117 00a6 B8EE677B 		vcvt.f64.u32	d7, s15
 2118 00aa 80EE071B 		vdiv.f64	d1, d0, d7
 586:ad5940lib/ad5940.c ****                                      (log10(pSweepCfg->SweepStart/pSweepCfg->SweepStop)/(pSweepCfg-
ARM GAS  C:\Users\root\AppData\Local\Temp\ccjNHqBU.s 			page 62


 2119              		.loc 1 586 43 view .LVU618
 2120 00ae 07EE906A 		vmov	s15, r6	@ int
 2121 00b2 B8EE677B 		vcvt.f64.u32	d7, s15
 2122 00b6 27EE011B 		vmul.f64	d1, d7, d1
 2123 00ba B2EE040B 		vmov.f64	d0, #1.0e+1
 2124 00be FFF7FEFF 		bl	pow
 2125              	.LVL143:
 586:ad5940lib/ad5940.c ****                                      (log10(pSweepCfg->SweepStart/pSweepCfg->SweepStop)/(pSweepCfg-
 2126              		.loc 1 586 42 view .LVU619
 2127 00c2 28EE008B 		vmul.f64	d8, d8, d0
 586:ad5940lib/ad5940.c ****                                      (log10(pSweepCfg->SweepStart/pSweepCfg->SweepStop)/(pSweepCfg-
 2128              		.loc 1 586 20 view .LVU620
 2129 00c6 B7EEC88B 		vcvt.f32.f64	s16, d8
 2130              	.LVL144:
 586:ad5940lib/ad5940.c ****                                      (log10(pSweepCfg->SweepStart/pSweepCfg->SweepStop)/(pSweepCfg-
 2131              		.loc 1 586 20 view .LVU621
 2132 00ca CFE7     		b	.L145
 2133              	.LVL145:
 2134              	.L141:
 592:ad5940lib/ad5940.c ****       {
 2135              		.loc 1 592 7 is_stmt 1 view .LVU622
 592:ad5940lib/ad5940.c ****       {
 2136              		.loc 1 592 19 is_stmt 0 view .LVU623
 2137 00cc D0ED017A 		vldr.32	s15, [r0, #4]
 592:ad5940lib/ad5940.c ****       {
 2138              		.loc 1 592 41 view .LVU624
 2139 00d0 90ED027A 		vldr.32	s14, [r0, #8]
 592:ad5940lib/ad5940.c ****       {
 2140              		.loc 1 592 9 view .LVU625
 2141 00d4 F4EEC77A 		vcmpe.f32	s15, s14
 2142 00d8 F1EE10FA 		vmrs	APSR_nzcv, FPSCR
 2143 00dc 20D5     		bpl	.L154
 594:ad5940lib/ad5940.c ****             pSweepCfg->SweepIndex = 0;
 2144              		.loc 1 594 10 is_stmt 1 view .LVU626
 594:ad5940lib/ad5940.c ****             pSweepCfg->SweepIndex = 0;
 2145              		.loc 1 594 24 is_stmt 0 view .LVU627
 2146 00de 4269     		ldr	r2, [r0, #20]
 594:ad5940lib/ad5940.c ****             pSweepCfg->SweepIndex = 0;
 2147              		.loc 1 594 13 view .LVU628
 2148 00e0 0132     		adds	r2, r2, #1
 594:ad5940lib/ad5940.c ****             pSweepCfg->SweepIndex = 0;
 2149              		.loc 1 594 12 view .LVU629
 2150 00e2 4261     		str	r2, [r0, #20]
 594:ad5940lib/ad5940.c ****             pSweepCfg->SweepIndex = 0;
 2151              		.loc 1 594 49 view .LVU630
 2152 00e4 C368     		ldr	r3, [r0, #12]
 594:ad5940lib/ad5940.c ****             pSweepCfg->SweepIndex = 0;
 2153              		.loc 1 594 12 view .LVU631
 2154 00e6 9A42     		cmp	r2, r3
 2155 00e8 17D0     		beq	.L157
 2156              	.L149:
 596:ad5940lib/ad5940.c ****       }
 2157              		.loc 1 596 10 is_stmt 1 view .LVU632
 596:ad5940lib/ad5940.c ****       }
 2158              		.loc 1 596 31 is_stmt 0 view .LVU633
 2159 00ea B7EEE78A 		vcvt.f64.f32	d8, s15
 596:ad5940lib/ad5940.c ****       }
ARM GAS  C:\Users\root\AppData\Local\Temp\ccjNHqBU.s 			page 63


 2160              		.loc 1 596 55 view .LVU634
 2161 00ee 94ED056A 		vldr.32	s12, [r4, #20]	@ int
 596:ad5940lib/ad5940.c ****       }
 2162              		.loc 1 596 97 view .LVU635
 2163 00f2 77EE677A 		vsub.f32	s15, s14, s15
 596:ad5940lib/ad5940.c ****       }
 2164              		.loc 1 596 68 view .LVU636
 2165 00f6 B7EEE77A 		vcvt.f64.f32	d7, s15
 596:ad5940lib/ad5940.c ****       }
 2166              		.loc 1 596 67 view .LVU637
 2167 00fa B8EE466B 		vcvt.f64.u32	d6, s12
 2168 00fe 26EE077B 		vmul.f64	d7, d6, d7
 596:ad5940lib/ad5940.c ****       }
 2169              		.loc 1 596 144 view .LVU638
 2170 0102 013B     		subs	r3, r3, #1
 596:ad5940lib/ad5940.c ****       }
 2171              		.loc 1 596 120 view .LVU639
 2172 0104 06EE903A 		vmov	s13, r3	@ int
 2173 0108 B8EE666B 		vcvt.f64.u32	d6, s13
 2174 010c 87EE065B 		vdiv.f64	d5, d7, d6
 596:ad5940lib/ad5940.c ****       }
 2175              		.loc 1 596 44 view .LVU640
 2176 0110 38EE058B 		vadd.f64	d8, d8, d5
 596:ad5940lib/ad5940.c ****       }
 2177              		.loc 1 596 20 view .LVU641
 2178 0114 B7EEC88B 		vcvt.f32.f64	s16, d8
 2179              	.LVL146:
 596:ad5940lib/ad5940.c ****       }
 2180              		.loc 1 596 20 view .LVU642
 2181 0118 A8E7     		b	.L145
 2182              	.LVL147:
 2183              	.L157:
 595:ad5940lib/ad5940.c ****          frequency = pSweepCfg->SweepStart + pSweepCfg->SweepIndex*(double)(pSweepCfg->SweepStop-pS
 2184              		.loc 1 595 13 is_stmt 1 view .LVU643
 595:ad5940lib/ad5940.c ****          frequency = pSweepCfg->SweepStart + pSweepCfg->SweepIndex*(double)(pSweepCfg->SweepStop-pS
 2185              		.loc 1 595 35 is_stmt 0 view .LVU644
 2186 011a 0022     		movs	r2, #0
 2187 011c 4261     		str	r2, [r0, #20]
 2188 011e E4E7     		b	.L149
 2189              	.L154:
 600:ad5940lib/ad5940.c ****          if(pSweepCfg->SweepIndex >= pSweepCfg->SweepPoints)
 2190              		.loc 1 600 10 is_stmt 1 view .LVU645
 600:ad5940lib/ad5940.c ****          if(pSweepCfg->SweepIndex >= pSweepCfg->SweepPoints)
 2191              		.loc 1 600 19 is_stmt 0 view .LVU646
 2192 0120 4269     		ldr	r2, [r0, #20]
 600:ad5940lib/ad5940.c ****          if(pSweepCfg->SweepIndex >= pSweepCfg->SweepPoints)
 2193              		.loc 1 600 32 view .LVU647
 2194 0122 013A     		subs	r2, r2, #1
 2195 0124 4261     		str	r2, [r0, #20]
 601:ad5940lib/ad5940.c ****             pSweepCfg->SweepIndex = pSweepCfg->SweepPoints-1;
 2196              		.loc 1 601 10 is_stmt 1 view .LVU648
 601:ad5940lib/ad5940.c ****             pSweepCfg->SweepIndex = pSweepCfg->SweepPoints-1;
 2197              		.loc 1 601 47 is_stmt 0 view .LVU649
 2198 0126 C368     		ldr	r3, [r0, #12]
 601:ad5940lib/ad5940.c ****             pSweepCfg->SweepIndex = pSweepCfg->SweepPoints-1;
 2199              		.loc 1 601 12 view .LVU650
 2200 0128 9A42     		cmp	r2, r3
ARM GAS  C:\Users\root\AppData\Local\Temp\ccjNHqBU.s 			page 64


 2201 012a 01D3     		bcc	.L150
 602:ad5940lib/ad5940.c ****          frequency = pSweepCfg->SweepStop + pSweepCfg->SweepIndex*(double)(pSweepCfg->SweepStart - 
 2202              		.loc 1 602 13 is_stmt 1 view .LVU651
 602:ad5940lib/ad5940.c ****          frequency = pSweepCfg->SweepStop + pSweepCfg->SweepIndex*(double)(pSweepCfg->SweepStart - 
 2203              		.loc 1 602 59 is_stmt 0 view .LVU652
 2204 012c 5A1E     		subs	r2, r3, #1
 602:ad5940lib/ad5940.c ****          frequency = pSweepCfg->SweepStop + pSweepCfg->SweepIndex*(double)(pSweepCfg->SweepStart - 
 2205              		.loc 1 602 35 view .LVU653
 2206 012e 4261     		str	r2, [r0, #20]
 2207              	.L150:
 603:ad5940lib/ad5940.c ****       }
 2208              		.loc 1 603 10 is_stmt 1 view .LVU654
 603:ad5940lib/ad5940.c ****       }
 2209              		.loc 1 603 31 is_stmt 0 view .LVU655
 2210 0130 B7EEC78A 		vcvt.f64.f32	d8, s14
 603:ad5940lib/ad5940.c ****       }
 2211              		.loc 1 603 54 view .LVU656
 2212 0134 94ED056A 		vldr.32	s12, [r4, #20]	@ int
 603:ad5940lib/ad5940.c ****       }
 2213              		.loc 1 603 98 view .LVU657
 2214 0138 77EEC77A 		vsub.f32	s15, s15, s14
 603:ad5940lib/ad5940.c ****       }
 2215              		.loc 1 603 67 view .LVU658
 2216 013c B7EEE77A 		vcvt.f64.f32	d7, s15
 603:ad5940lib/ad5940.c ****       }
 2217              		.loc 1 603 66 view .LVU659
 2218 0140 B8EE466B 		vcvt.f64.u32	d6, s12
 2219 0144 26EE077B 		vmul.f64	d7, d6, d7
 603:ad5940lib/ad5940.c ****       }
 2220              		.loc 1 603 145 view .LVU660
 2221 0148 013B     		subs	r3, r3, #1
 603:ad5940lib/ad5940.c ****       }
 2222              		.loc 1 603 121 view .LVU661
 2223 014a 06EE903A 		vmov	s13, r3	@ int
 2224 014e B8EE666B 		vcvt.f64.u32	d6, s13
 2225 0152 87EE065B 		vdiv.f64	d5, d7, d6
 603:ad5940lib/ad5940.c ****       }
 2226              		.loc 1 603 43 view .LVU662
 2227 0156 38EE058B 		vadd.f64	d8, d8, d5
 603:ad5940lib/ad5940.c ****       }
 2228              		.loc 1 603 20 view .LVU663
 2229 015a B7EEC88B 		vcvt.f32.f64	s16, d8
 2230              	.LVL148:
 603:ad5940lib/ad5940.c ****       }
 2231              		.loc 1 603 20 view .LVU664
 2232 015e 85E7     		b	.L145
 2233              		.cfi_endproc
 2234              	.LFE17:
 2236              		.section	.text.AD5940_StructInit,"ax",%progbits
 2237              		.align	1
 2238              		.global	AD5940_StructInit
 2239              		.syntax unified
 2240              		.thumb
 2241              		.thumb_func
 2242              		.fpu fpv5-d16
 2244              	AD5940_StructInit:
 2245              	.LVL149:
ARM GAS  C:\Users\root\AppData\Local\Temp\ccjNHqBU.s 			page 65


 2246              	.LFB18:
 617:ad5940lib/ad5940.c ****   memset(pStruct, 0, StructSize);
 2247              		.loc 1 617 1 is_stmt 1 view -0
 2248              		.cfi_startproc
 2249              		@ args = 0, pretend = 0, frame = 0
 2250              		@ frame_needed = 0, uses_anonymous_args = 0
 617:ad5940lib/ad5940.c ****   memset(pStruct, 0, StructSize);
 2251              		.loc 1 617 1 is_stmt 0 view .LVU666
 2252 0000 08B5     		push	{r3, lr}
 2253              	.LCFI41:
 2254              		.cfi_def_cfa_offset 8
 2255              		.cfi_offset 3, -8
 2256              		.cfi_offset 14, -4
 2257 0002 0A46     		mov	r2, r1
 618:ad5940lib/ad5940.c **** }
 2258              		.loc 1 618 3 is_stmt 1 view .LVU667
 2259 0004 0021     		movs	r1, #0
 2260              	.LVL150:
 618:ad5940lib/ad5940.c **** }
 2261              		.loc 1 618 3 is_stmt 0 view .LVU668
 2262 0006 FFF7FEFF 		bl	memset
 2263              	.LVL151:
 619:ad5940lib/ad5940.c **** 
 2264              		.loc 1 619 1 view .LVU669
 2265 000a 08BD     		pop	{r3, pc}
 2266              		.cfi_endproc
 2267              	.LFE18:
 2269              		.section	.text.AD5940_ADCCode2Volt,"ax",%progbits
 2270              		.align	1
 2271              		.global	AD5940_ADCCode2Volt
 2272              		.syntax unified
 2273              		.thumb
 2274              		.thumb_func
 2275              		.fpu fpv5-d16
 2277              	AD5940_ADCCode2Volt:
 2278              	.LVL152:
 2279              	.LFB19:
 629:ad5940lib/ad5940.c ****   float kFactor = 1.835/1.82;
 2280              		.loc 1 629 1 is_stmt 1 view -0
 2281              		.cfi_startproc
 2282              		@ args = 0, pretend = 0, frame = 0
 2283              		@ frame_needed = 0, uses_anonymous_args = 0
 2284              		@ link register save eliminated.
 630:ad5940lib/ad5940.c ****   float fVolt = 0.0;
 2285              		.loc 1 630 3 view .LVU671
 631:ad5940lib/ad5940.c ****   float tmp = 0;
 2286              		.loc 1 631 3 view .LVU672
 632:ad5940lib/ad5940.c ****   tmp = (int32_t)code - 32768;
 2287              		.loc 1 632 3 view .LVU673
 633:ad5940lib/ad5940.c ****   switch(ADCPga)
 2288              		.loc 1 633 3 view .LVU674
 633:ad5940lib/ad5940.c ****   switch(ADCPga)
 2289              		.loc 1 633 23 is_stmt 0 view .LVU675
 2290 0000 A0F50040 		sub	r0, r0, #32768
 2291              	.LVL153:
 633:ad5940lib/ad5940.c ****   switch(ADCPga)
 2292              		.loc 1 633 7 view .LVU676
ARM GAS  C:\Users\root\AppData\Local\Temp\ccjNHqBU.s 			page 66


 2293 0004 07EE900A 		vmov	s15, r0	@ int
 2294 0008 F8EEE77A 		vcvt.f32.s32	s15, s15
 2295              	.LVL154:
 634:ad5940lib/ad5940.c ****   {
 2296              		.loc 1 634 3 is_stmt 1 view .LVU677
 2297 000c 0139     		subs	r1, r1, #1
 2298              	.LVL155:
 634:ad5940lib/ad5940.c ****   {
 2299              		.loc 1 634 3 is_stmt 0 view .LVU678
 2300 000e 0329     		cmp	r1, #3
 2301 0010 07D8     		bhi	.L161
 2302 0012 DFE801F0 		tbb	[pc, r1]
 2303              	.L163:
 2304 0016 02       		.byte	(.L166-.L163)/2
 2305 0017 11       		.byte	(.L165-.L163)/2
 2306 0018 16       		.byte	(.L164-.L163)/2
 2307 0019 1B       		.byte	(.L162-.L163)/2
 2308              		.p2align 1
 2309              	.L166:
 639:ad5940lib/ad5940.c ****     break;
 2310              		.loc 1 639 5 is_stmt 1 view .LVU679
 639:ad5940lib/ad5940.c ****     break;
 2311              		.loc 1 639 9 is_stmt 0 view .LVU680
 2312 001a B7EE087A 		vmov.f32	s14, #1.5e+0
 2313 001e C7EE877A 		vdiv.f32	s15, s15, s14
 2314              	.LVL156:
 640:ad5940lib/ad5940.c ****   case ADCPGA_2:
 2315              		.loc 1 640 5 is_stmt 1 view .LVU681
 2316              	.L161:
 652:ad5940lib/ad5940.c ****   return fVolt;
 2317              		.loc 1 652 3 view .LVU682
 652:ad5940lib/ad5940.c ****   return fVolt;
 2318              		.loc 1 652 14 is_stmt 0 view .LVU683
 2319 0022 67EE807A 		vmul.f32	s15, s15, s0
 2320              	.LVL157:
 652:ad5940lib/ad5940.c ****   return fVolt;
 2321              		.loc 1 652 23 view .LVU684
 2322 0026 9FED0C0A 		vldr.32	s0, .L167
 2323              	.LVL158:
 652:ad5940lib/ad5940.c ****   return fVolt;
 2324              		.loc 1 652 23 view .LVU685
 2325 002a 67EE807A 		vmul.f32	s15, s15, s0
 2326              	.LVL159:
 653:ad5940lib/ad5940.c **** }
 2327              		.loc 1 653 3 is_stmt 1 view .LVU686
 654:ad5940lib/ad5940.c **** 
 2328              		.loc 1 654 1 is_stmt 0 view .LVU687
 2329 002e 9FED0B0A 		vldr.32	s0, .L167+4
 2330 0032 27EE800A 		vmul.f32	s0, s15, s0
 2331              	.LVL160:
 654:ad5940lib/ad5940.c **** 
 2332              		.loc 1 654 1 view .LVU688
 2333 0036 7047     		bx	lr
 2334              	.LVL161:
 2335              	.L165:
 642:ad5940lib/ad5940.c ****     break;
 2336              		.loc 1 642 5 is_stmt 1 view .LVU689
ARM GAS  C:\Users\root\AppData\Local\Temp\ccjNHqBU.s 			page 67


 642:ad5940lib/ad5940.c ****     break;
 2337              		.loc 1 642 9 is_stmt 0 view .LVU690
 2338 0038 B6EE007A 		vmov.f32	s14, #5.0e-1
 2339 003c 67EE877A 		vmul.f32	s15, s15, s14
 2340              	.LVL162:
 643:ad5940lib/ad5940.c ****   case ADCPGA_4:
 2341              		.loc 1 643 5 is_stmt 1 view .LVU691
 2342 0040 EFE7     		b	.L161
 2343              	.L164:
 645:ad5940lib/ad5940.c ****     break;
 2344              		.loc 1 645 5 view .LVU692
 645:ad5940lib/ad5940.c ****     break;
 2345              		.loc 1 645 9 is_stmt 0 view .LVU693
 2346 0042 B5EE007A 		vmov.f32	s14, #2.5e-1
 2347 0046 67EE877A 		vmul.f32	s15, s15, s14
 2348              	.LVL163:
 646:ad5940lib/ad5940.c ****   case ADCPGA_9:
 2349              		.loc 1 646 5 is_stmt 1 view .LVU694
 2350 004a EAE7     		b	.L161
 2351              	.L162:
 648:ad5940lib/ad5940.c ****     break;
 2352              		.loc 1 648 5 view .LVU695
 648:ad5940lib/ad5940.c ****     break;
 2353              		.loc 1 648 9 is_stmt 0 view .LVU696
 2354 004c B2EE027A 		vmov.f32	s14, #9.0e+0
 2355 0050 C7EE877A 		vdiv.f32	s15, s15, s14
 2356              	.LVL164:
 649:ad5940lib/ad5940.c ****   default:break;
 2357              		.loc 1 649 5 is_stmt 1 view .LVU697
 2358 0054 E5E7     		b	.L161
 2359              	.L168:
 2360 0056 00BF     		.align	2
 2361              	.L167:
 2362 0058 00000038 		.word	939524096
 2363 005c 110E813F 		.word	1065422353
 2364              		.cfi_endproc
 2365              	.LFE19:
 2367              		.section	.text.AD5940_ComplexDivFloat,"ax",%progbits
 2368              		.align	1
 2369              		.global	AD5940_ComplexDivFloat
 2370              		.syntax unified
 2371              		.thumb
 2372              		.thumb_func
 2373              		.fpu fpv5-d16
 2375              	AD5940_ComplexDivFloat:
 2376              	.LVL165:
 2377              	.LFB20:
 663:ad5940lib/ad5940.c ****   fImpCar_Type res;
 2378              		.loc 1 663 1 view -0
 2379              		.cfi_startproc
 2380              		@ args = 0, pretend = 0, frame = 24
 2381              		@ frame_needed = 0, uses_anonymous_args = 0
 2382              		@ link register save eliminated.
 663:ad5940lib/ad5940.c ****   fImpCar_Type res;
 2383              		.loc 1 663 1 is_stmt 0 view .LVU699
 2384 0000 86B0     		sub	sp, sp, #24
 2385              	.LCFI42:
ARM GAS  C:\Users\root\AppData\Local\Temp\ccjNHqBU.s 			page 68


 2386              		.cfi_def_cfa_offset 24
 664:ad5940lib/ad5940.c ****   float temp;
 2387              		.loc 1 664 3 is_stmt 1 view .LVU700
 665:ad5940lib/ad5940.c ****   temp = b->Real*b->Real + b->Image*b->Image;
 2388              		.loc 1 665 3 view .LVU701
 666:ad5940lib/ad5940.c ****   res.Real = a->Real*b->Real + a->Image*b->Image;
 2389              		.loc 1 666 3 view .LVU702
 666:ad5940lib/ad5940.c ****   res.Real = a->Real*b->Real + a->Image*b->Image;
 2390              		.loc 1 666 11 is_stmt 0 view .LVU703
 2391 0002 D1ED007A 		vldr.32	s15, [r1]
 666:ad5940lib/ad5940.c ****   res.Real = a->Real*b->Real + a->Image*b->Image;
 2392              		.loc 1 666 17 view .LVU704
 2393 0006 67EEA76A 		vmul.f32	s13, s15, s15
 666:ad5940lib/ad5940.c ****   res.Real = a->Real*b->Real + a->Image*b->Image;
 2394              		.loc 1 666 29 view .LVU705
 2395 000a 91ED017A 		vldr.32	s14, [r1, #4]
 666:ad5940lib/ad5940.c ****   res.Real = a->Real*b->Real + a->Image*b->Image;
 2396              		.loc 1 666 36 view .LVU706
 2397 000e 27EE076A 		vmul.f32	s12, s14, s14
 666:ad5940lib/ad5940.c ****   res.Real = a->Real*b->Real + a->Image*b->Image;
 2398              		.loc 1 666 8 view .LVU707
 2399 0012 76EE866A 		vadd.f32	s13, s13, s12
 2400              	.LVL166:
 667:ad5940lib/ad5940.c ****   res.Real /= temp;
 2401              		.loc 1 667 3 is_stmt 1 view .LVU708
 667:ad5940lib/ad5940.c ****   res.Real /= temp;
 2402              		.loc 1 667 15 is_stmt 0 view .LVU709
 2403 0016 D0ED005A 		vldr.32	s11, [r0]
 667:ad5940lib/ad5940.c ****   res.Real /= temp;
 2404              		.loc 1 667 21 view .LVU710
 2405 001a 27EEA56A 		vmul.f32	s12, s15, s11
 667:ad5940lib/ad5940.c ****   res.Real /= temp;
 2406              		.loc 1 667 33 view .LVU711
 2407 001e 90ED015A 		vldr.32	s10, [r0, #4]
 667:ad5940lib/ad5940.c ****   res.Real /= temp;
 2408              		.loc 1 667 40 view .LVU712
 2409 0022 67EE054A 		vmul.f32	s9, s14, s10
 667:ad5940lib/ad5940.c ****   res.Real /= temp;
 2410              		.loc 1 667 30 view .LVU713
 2411 0026 36EE246A 		vadd.f32	s12, s12, s9
 668:ad5940lib/ad5940.c ****   res.Image = a->Image*b->Real - a->Real*b->Image;
 2412              		.loc 1 668 3 is_stmt 1 view .LVU714
 668:ad5940lib/ad5940.c ****   res.Image = a->Image*b->Real - a->Real*b->Image;
 2413              		.loc 1 668 12 is_stmt 0 view .LVU715
 2414 002a C6EE264A 		vdiv.f32	s9, s12, s13
 2415 002e CDED024A 		vstr.32	s9, [sp, #8]
 669:ad5940lib/ad5940.c ****   res.Image /= temp;
 2416              		.loc 1 669 3 is_stmt 1 view .LVU716
 669:ad5940lib/ad5940.c ****   res.Image /= temp;
 2417              		.loc 1 669 23 is_stmt 0 view .LVU717
 2418 0032 67EE857A 		vmul.f32	s15, s15, s10
 669:ad5940lib/ad5940.c ****   res.Image /= temp;
 2419              		.loc 1 669 41 view .LVU718
 2420 0036 27EE257A 		vmul.f32	s14, s14, s11
 669:ad5940lib/ad5940.c ****   res.Image /= temp;
 2421              		.loc 1 669 32 view .LVU719
 2422 003a 77EEC77A 		vsub.f32	s15, s15, s14
ARM GAS  C:\Users\root\AppData\Local\Temp\ccjNHqBU.s 			page 69


 670:ad5940lib/ad5940.c ****   return res;
 2423              		.loc 1 670 3 is_stmt 1 view .LVU720
 670:ad5940lib/ad5940.c ****   return res;
 2424              		.loc 1 670 13 is_stmt 0 view .LVU721
 2425 003e 87EEA67A 		vdiv.f32	s14, s15, s13
 2426 0042 8DED037A 		vstr.32	s14, [sp, #12]
 671:ad5940lib/ad5940.c **** }
 2427              		.loc 1 671 3 is_stmt 1 view .LVU722
 671:ad5940lib/ad5940.c **** }
 2428              		.loc 1 671 10 is_stmt 0 view .LVU723
 2429 0046 0399     		ldr	r1, [sp, #12]
 2430              	.LVL167:
 671:ad5940lib/ad5940.c **** }
 2431              		.loc 1 671 10 view .LVU724
 2432 0048 0298     		ldr	r0, [sp, #8]
 2433              	.LVL168:
 671:ad5940lib/ad5940.c **** }
 2434              		.loc 1 671 10 view .LVU725
 2435 004a 06AB     		add	r3, sp, #24
 2436 004c 03E90300 		stmdb	r3, {r0, r1}
 672:ad5940lib/ad5940.c **** 
 2437              		.loc 1 672 1 view .LVU726
 2438 0050 9DED040A 		vldr.32	s0, [sp, #16]
 2439 0054 DDED050A 		vldr.32	s1, [sp, #20]
 2440 0058 06B0     		add	sp, sp, #24
 2441              	.LCFI43:
 2442              		.cfi_def_cfa_offset 0
 2443              		@ sp needed
 2444 005a 7047     		bx	lr
 2445              		.cfi_endproc
 2446              	.LFE20:
 2448              		.section	.text.AD5940_ComplexMulFloat,"ax",%progbits
 2449              		.align	1
 2450              		.global	AD5940_ComplexMulFloat
 2451              		.syntax unified
 2452              		.thumb
 2453              		.thumb_func
 2454              		.fpu fpv5-d16
 2456              	AD5940_ComplexMulFloat:
 2457              	.LVL169:
 2458              	.LFB21:
 681:ad5940lib/ad5940.c ****   fImpCar_Type res;
 2459              		.loc 1 681 1 is_stmt 1 view -0
 2460              		.cfi_startproc
 2461              		@ args = 0, pretend = 0, frame = 24
 2462              		@ frame_needed = 0, uses_anonymous_args = 0
 2463              		@ link register save eliminated.
 681:ad5940lib/ad5940.c ****   fImpCar_Type res;
 2464              		.loc 1 681 1 is_stmt 0 view .LVU728
 2465 0000 86B0     		sub	sp, sp, #24
 2466              	.LCFI44:
 2467              		.cfi_def_cfa_offset 24
 682:ad5940lib/ad5940.c ****   
 2468              		.loc 1 682 3 is_stmt 1 view .LVU729
 684:ad5940lib/ad5940.c ****   res.Image = a->Image*b->Real + a->Real*b->Image;
 2469              		.loc 1 684 3 view .LVU730
 684:ad5940lib/ad5940.c ****   res.Image = a->Image*b->Real + a->Real*b->Image;
ARM GAS  C:\Users\root\AppData\Local\Temp\ccjNHqBU.s 			page 70


 2470              		.loc 1 684 15 is_stmt 0 view .LVU731
 2471 0002 90ED007A 		vldr.32	s14, [r0]
 684:ad5940lib/ad5940.c ****   res.Image = a->Image*b->Real + a->Real*b->Image;
 2472              		.loc 1 684 23 view .LVU732
 2473 0006 D1ED007A 		vldr.32	s15, [r1]
 684:ad5940lib/ad5940.c ****   res.Image = a->Image*b->Real + a->Real*b->Image;
 2474              		.loc 1 684 21 view .LVU733
 2475 000a 67EE276A 		vmul.f32	s13, s14, s15
 684:ad5940lib/ad5940.c ****   res.Image = a->Image*b->Real + a->Real*b->Image;
 2476              		.loc 1 684 33 view .LVU734
 2477 000e D0ED015A 		vldr.32	s11, [r0, #4]
 684:ad5940lib/ad5940.c ****   res.Image = a->Image*b->Real + a->Real*b->Image;
 2478              		.loc 1 684 42 view .LVU735
 2479 0012 91ED016A 		vldr.32	s12, [r1, #4]
 684:ad5940lib/ad5940.c ****   res.Image = a->Image*b->Real + a->Real*b->Image;
 2480              		.loc 1 684 40 view .LVU736
 2481 0016 25EE865A 		vmul.f32	s10, s11, s12
 684:ad5940lib/ad5940.c ****   res.Image = a->Image*b->Real + a->Real*b->Image;
 2482              		.loc 1 684 30 view .LVU737
 2483 001a 76EEC56A 		vsub.f32	s13, s13, s10
 684:ad5940lib/ad5940.c ****   res.Image = a->Image*b->Real + a->Real*b->Image;
 2484              		.loc 1 684 12 view .LVU738
 2485 001e CDED026A 		vstr.32	s13, [sp, #8]
 685:ad5940lib/ad5940.c **** 
 2486              		.loc 1 685 3 is_stmt 1 view .LVU739
 685:ad5940lib/ad5940.c **** 
 2487              		.loc 1 685 23 is_stmt 0 view .LVU740
 2488 0022 67EEA57A 		vmul.f32	s15, s15, s11
 685:ad5940lib/ad5940.c **** 
 2489              		.loc 1 685 41 view .LVU741
 2490 0026 27EE067A 		vmul.f32	s14, s14, s12
 685:ad5940lib/ad5940.c **** 
 2491              		.loc 1 685 32 view .LVU742
 2492 002a 77EE877A 		vadd.f32	s15, s15, s14
 685:ad5940lib/ad5940.c **** 
 2493              		.loc 1 685 13 view .LVU743
 2494 002e CDED037A 		vstr.32	s15, [sp, #12]
 687:ad5940lib/ad5940.c **** }
 2495              		.loc 1 687 3 is_stmt 1 view .LVU744
 687:ad5940lib/ad5940.c **** }
 2496              		.loc 1 687 10 is_stmt 0 view .LVU745
 2497 0032 0399     		ldr	r1, [sp, #12]
 2498              	.LVL170:
 687:ad5940lib/ad5940.c **** }
 2499              		.loc 1 687 10 view .LVU746
 2500 0034 0298     		ldr	r0, [sp, #8]
 2501              	.LVL171:
 687:ad5940lib/ad5940.c **** }
 2502              		.loc 1 687 10 view .LVU747
 2503 0036 06AB     		add	r3, sp, #24
 2504 0038 03E90300 		stmdb	r3, {r0, r1}
 688:ad5940lib/ad5940.c **** /**
 2505              		.loc 1 688 1 view .LVU748
 2506 003c 9DED040A 		vldr.32	s0, [sp, #16]
 2507 0040 DDED050A 		vldr.32	s1, [sp, #20]
 2508 0044 06B0     		add	sp, sp, #24
 2509              	.LCFI45:
ARM GAS  C:\Users\root\AppData\Local\Temp\ccjNHqBU.s 			page 71


 2510              		.cfi_def_cfa_offset 0
 2511              		@ sp needed
 2512 0046 7047     		bx	lr
 2513              		.cfi_endproc
 2514              	.LFE21:
 2516              		.section	.text.AD5940_ComplexAddFloat,"ax",%progbits
 2517              		.align	1
 2518              		.global	AD5940_ComplexAddFloat
 2519              		.syntax unified
 2520              		.thumb
 2521              		.thumb_func
 2522              		.fpu fpv5-d16
 2524              	AD5940_ComplexAddFloat:
 2525              	.LVL172:
 2526              	.LFB22:
 696:ad5940lib/ad5940.c ****   fImpCar_Type res;
 2527              		.loc 1 696 1 is_stmt 1 view -0
 2528              		.cfi_startproc
 2529              		@ args = 0, pretend = 0, frame = 24
 2530              		@ frame_needed = 0, uses_anonymous_args = 0
 2531              		@ link register save eliminated.
 696:ad5940lib/ad5940.c ****   fImpCar_Type res;
 2532              		.loc 1 696 1 is_stmt 0 view .LVU750
 2533 0000 86B0     		sub	sp, sp, #24
 2534              	.LCFI46:
 2535              		.cfi_def_cfa_offset 24
 697:ad5940lib/ad5940.c ****   
 2536              		.loc 1 697 3 is_stmt 1 view .LVU751
 699:ad5940lib/ad5940.c ****   res.Image = a->Image + b->Image;
 2537              		.loc 1 699 3 view .LVU752
 699:ad5940lib/ad5940.c ****   res.Image = a->Image + b->Image;
 2538              		.loc 1 699 15 is_stmt 0 view .LVU753
 2539 0002 D0ED007A 		vldr.32	s15, [r0]
 699:ad5940lib/ad5940.c ****   res.Image = a->Image + b->Image;
 2540              		.loc 1 699 25 view .LVU754
 2541 0006 91ED007A 		vldr.32	s14, [r1]
 699:ad5940lib/ad5940.c ****   res.Image = a->Image + b->Image;
 2542              		.loc 1 699 22 view .LVU755
 2543 000a 77EE877A 		vadd.f32	s15, s15, s14
 699:ad5940lib/ad5940.c ****   res.Image = a->Image + b->Image;
 2544              		.loc 1 699 12 view .LVU756
 2545 000e CDED027A 		vstr.32	s15, [sp, #8]
 700:ad5940lib/ad5940.c **** 
 2546              		.loc 1 700 3 is_stmt 1 view .LVU757
 700:ad5940lib/ad5940.c **** 
 2547              		.loc 1 700 16 is_stmt 0 view .LVU758
 2548 0012 D0ED017A 		vldr.32	s15, [r0, #4]
 700:ad5940lib/ad5940.c **** 
 2549              		.loc 1 700 27 view .LVU759
 2550 0016 91ED017A 		vldr.32	s14, [r1, #4]
 700:ad5940lib/ad5940.c **** 
 2551              		.loc 1 700 24 view .LVU760
 2552 001a 77EE877A 		vadd.f32	s15, s15, s14
 700:ad5940lib/ad5940.c **** 
 2553              		.loc 1 700 13 view .LVU761
 2554 001e CDED037A 		vstr.32	s15, [sp, #12]
 702:ad5940lib/ad5940.c **** }
ARM GAS  C:\Users\root\AppData\Local\Temp\ccjNHqBU.s 			page 72


 2555              		.loc 1 702 3 is_stmt 1 view .LVU762
 702:ad5940lib/ad5940.c **** }
 2556              		.loc 1 702 10 is_stmt 0 view .LVU763
 2557 0022 0399     		ldr	r1, [sp, #12]
 2558              	.LVL173:
 702:ad5940lib/ad5940.c **** }
 2559              		.loc 1 702 10 view .LVU764
 2560 0024 0298     		ldr	r0, [sp, #8]
 2561              	.LVL174:
 702:ad5940lib/ad5940.c **** }
 2562              		.loc 1 702 10 view .LVU765
 2563 0026 06AB     		add	r3, sp, #24
 2564 0028 03E90300 		stmdb	r3, {r0, r1}
 703:ad5940lib/ad5940.c **** 
 2565              		.loc 1 703 1 view .LVU766
 2566 002c 9DED040A 		vldr.32	s0, [sp, #16]
 2567 0030 DDED050A 		vldr.32	s1, [sp, #20]
 2568 0034 06B0     		add	sp, sp, #24
 2569              	.LCFI47:
 2570              		.cfi_def_cfa_offset 0
 2571              		@ sp needed
 2572 0036 7047     		bx	lr
 2573              		.cfi_endproc
 2574              	.LFE22:
 2576              		.section	.text.AD5940_ComplexSubFloat,"ax",%progbits
 2577              		.align	1
 2578              		.global	AD5940_ComplexSubFloat
 2579              		.syntax unified
 2580              		.thumb
 2581              		.thumb_func
 2582              		.fpu fpv5-d16
 2584              	AD5940_ComplexSubFloat:
 2585              	.LVL175:
 2586              	.LFB23:
 712:ad5940lib/ad5940.c ****   fImpCar_Type res;
 2587              		.loc 1 712 1 is_stmt 1 view -0
 2588              		.cfi_startproc
 2589              		@ args = 0, pretend = 0, frame = 24
 2590              		@ frame_needed = 0, uses_anonymous_args = 0
 2591              		@ link register save eliminated.
 712:ad5940lib/ad5940.c ****   fImpCar_Type res;
 2592              		.loc 1 712 1 is_stmt 0 view .LVU768
 2593 0000 86B0     		sub	sp, sp, #24
 2594              	.LCFI48:
 2595              		.cfi_def_cfa_offset 24
 713:ad5940lib/ad5940.c ****   
 2596              		.loc 1 713 3 is_stmt 1 view .LVU769
 715:ad5940lib/ad5940.c ****   res.Image = a->Image - b->Image;
 2597              		.loc 1 715 3 view .LVU770
 715:ad5940lib/ad5940.c ****   res.Image = a->Image - b->Image;
 2598              		.loc 1 715 15 is_stmt 0 view .LVU771
 2599 0002 D0ED007A 		vldr.32	s15, [r0]
 715:ad5940lib/ad5940.c ****   res.Image = a->Image - b->Image;
 2600              		.loc 1 715 25 view .LVU772
 2601 0006 91ED007A 		vldr.32	s14, [r1]
 715:ad5940lib/ad5940.c ****   res.Image = a->Image - b->Image;
 2602              		.loc 1 715 22 view .LVU773
ARM GAS  C:\Users\root\AppData\Local\Temp\ccjNHqBU.s 			page 73


 2603 000a 77EEC77A 		vsub.f32	s15, s15, s14
 715:ad5940lib/ad5940.c ****   res.Image = a->Image - b->Image;
 2604              		.loc 1 715 12 view .LVU774
 2605 000e CDED027A 		vstr.32	s15, [sp, #8]
 716:ad5940lib/ad5940.c **** 
 2606              		.loc 1 716 3 is_stmt 1 view .LVU775
 716:ad5940lib/ad5940.c **** 
 2607              		.loc 1 716 16 is_stmt 0 view .LVU776
 2608 0012 D0ED017A 		vldr.32	s15, [r0, #4]
 716:ad5940lib/ad5940.c **** 
 2609              		.loc 1 716 27 view .LVU777
 2610 0016 91ED017A 		vldr.32	s14, [r1, #4]
 716:ad5940lib/ad5940.c **** 
 2611              		.loc 1 716 24 view .LVU778
 2612 001a 77EEC77A 		vsub.f32	s15, s15, s14
 716:ad5940lib/ad5940.c **** 
 2613              		.loc 1 716 13 view .LVU779
 2614 001e CDED037A 		vstr.32	s15, [sp, #12]
 718:ad5940lib/ad5940.c **** }
 2615              		.loc 1 718 3 is_stmt 1 view .LVU780
 718:ad5940lib/ad5940.c **** }
 2616              		.loc 1 718 10 is_stmt 0 view .LVU781
 2617 0022 0399     		ldr	r1, [sp, #12]
 2618              	.LVL176:
 718:ad5940lib/ad5940.c **** }
 2619              		.loc 1 718 10 view .LVU782
 2620 0024 0298     		ldr	r0, [sp, #8]
 2621              	.LVL177:
 718:ad5940lib/ad5940.c **** }
 2622              		.loc 1 718 10 view .LVU783
 2623 0026 06AB     		add	r3, sp, #24
 2624 0028 03E90300 		stmdb	r3, {r0, r1}
 719:ad5940lib/ad5940.c **** 
 2625              		.loc 1 719 1 view .LVU784
 2626 002c 9DED040A 		vldr.32	s0, [sp, #16]
 2627 0030 DDED050A 		vldr.32	s1, [sp, #20]
 2628 0034 06B0     		add	sp, sp, #24
 2629              	.LCFI49:
 2630              		.cfi_def_cfa_offset 0
 2631              		@ sp needed
 2632 0036 7047     		bx	lr
 2633              		.cfi_endproc
 2634              	.LFE23:
 2636              		.section	.text.AD5940_ComplexDivInt,"ax",%progbits
 2637              		.align	1
 2638              		.global	AD5940_ComplexDivInt
 2639              		.syntax unified
 2640              		.thumb
 2641              		.thumb_func
 2642              		.fpu fpv5-d16
 2644              	AD5940_ComplexDivInt:
 2645              	.LVL178:
 2646              	.LFB24:
 728:ad5940lib/ad5940.c ****   fImpCar_Type res;
 2647              		.loc 1 728 1 is_stmt 1 view -0
 2648              		.cfi_startproc
 2649              		@ args = 0, pretend = 0, frame = 24
ARM GAS  C:\Users\root\AppData\Local\Temp\ccjNHqBU.s 			page 74


 2650              		@ frame_needed = 0, uses_anonymous_args = 0
 2651              		@ link register save eliminated.
 728:ad5940lib/ad5940.c ****   fImpCar_Type res;
 2652              		.loc 1 728 1 is_stmt 0 view .LVU786
 2653 0000 86B0     		sub	sp, sp, #24
 2654              	.LCFI50:
 2655              		.cfi_def_cfa_offset 24
 729:ad5940lib/ad5940.c ****   float temp;
 2656              		.loc 1 729 3 is_stmt 1 view .LVU787
 730:ad5940lib/ad5940.c ****   temp = (float)b->Real*b->Real + (float)b->Image*b->Image;
 2657              		.loc 1 730 3 view .LVU788
 731:ad5940lib/ad5940.c ****   res.Real = (float)a->Real*b->Real + (float)a->Image*b->Image;
 2658              		.loc 1 731 3 view .LVU789
 731:ad5940lib/ad5940.c ****   res.Real = (float)a->Real*b->Real + (float)a->Image*b->Image;
 2659              		.loc 1 731 10 is_stmt 0 view .LVU790
 2660 0002 D1ED007A 		vldr.32	s15, [r1]	@ int
 2661 0006 F8EEE77A 		vcvt.f32.s32	s15, s15
 731:ad5940lib/ad5940.c ****   res.Real = (float)a->Real*b->Real + (float)a->Image*b->Image;
 2662              		.loc 1 731 24 view .LVU791
 2663 000a 67EEA76A 		vmul.f32	s13, s15, s15
 731:ad5940lib/ad5940.c ****   res.Real = (float)a->Real*b->Real + (float)a->Image*b->Image;
 2664              		.loc 1 731 43 view .LVU792
 2665 000e 91ED017A 		vldr.32	s14, [r1, #4]	@ int
 731:ad5940lib/ad5940.c ****   res.Real = (float)a->Real*b->Real + (float)a->Image*b->Image;
 2666              		.loc 1 731 35 view .LVU793
 2667 0012 B8EEC77A 		vcvt.f32.s32	s14, s14
 731:ad5940lib/ad5940.c ****   res.Real = (float)a->Real*b->Real + (float)a->Image*b->Image;
 2668              		.loc 1 731 50 view .LVU794
 2669 0016 27EE076A 		vmul.f32	s12, s14, s14
 731:ad5940lib/ad5940.c ****   res.Real = (float)a->Real*b->Real + (float)a->Image*b->Image;
 2670              		.loc 1 731 8 view .LVU795
 2671 001a 76EE866A 		vadd.f32	s13, s13, s12
 2672              	.LVL179:
 732:ad5940lib/ad5940.c ****   res.Real /= temp;
 2673              		.loc 1 732 3 is_stmt 1 view .LVU796
 732:ad5940lib/ad5940.c ****   res.Real /= temp;
 2674              		.loc 1 732 14 is_stmt 0 view .LVU797
 2675 001e 90ED006A 		vldr.32	s12, [r0]	@ int
 2676 0022 B8EEC66A 		vcvt.f32.s32	s12, s12
 732:ad5940lib/ad5940.c ****   res.Real /= temp;
 2677              		.loc 1 732 28 view .LVU798
 2678 0026 27EE865A 		vmul.f32	s10, s15, s12
 732:ad5940lib/ad5940.c ****   res.Real /= temp;
 2679              		.loc 1 732 47 view .LVU799
 2680 002a D0ED015A 		vldr.32	s11, [r0, #4]	@ int
 732:ad5940lib/ad5940.c ****   res.Real /= temp;
 2681              		.loc 1 732 39 view .LVU800
 2682 002e F8EEE55A 		vcvt.f32.s32	s11, s11
 732:ad5940lib/ad5940.c ****   res.Real /= temp;
 2683              		.loc 1 732 54 view .LVU801
 2684 0032 67EE254A 		vmul.f32	s9, s14, s11
 732:ad5940lib/ad5940.c ****   res.Real /= temp;
 2685              		.loc 1 732 37 view .LVU802
 2686 0036 35EE245A 		vadd.f32	s10, s10, s9
 733:ad5940lib/ad5940.c ****   res.Image = (float)a->Image*b->Real - (float)a->Real*b->Image;
 2687              		.loc 1 733 3 is_stmt 1 view .LVU803
 733:ad5940lib/ad5940.c ****   res.Image = (float)a->Image*b->Real - (float)a->Real*b->Image;
ARM GAS  C:\Users\root\AppData\Local\Temp\ccjNHqBU.s 			page 75


 2688              		.loc 1 733 12 is_stmt 0 view .LVU804
 2689 003a C5EE264A 		vdiv.f32	s9, s10, s13
 2690 003e CDED024A 		vstr.32	s9, [sp, #8]
 734:ad5940lib/ad5940.c ****   res.Image /= temp;
 2691              		.loc 1 734 3 is_stmt 1 view .LVU805
 734:ad5940lib/ad5940.c ****   res.Image /= temp;
 2692              		.loc 1 734 30 is_stmt 0 view .LVU806
 2693 0042 67EEA57A 		vmul.f32	s15, s15, s11
 734:ad5940lib/ad5940.c ****   res.Image /= temp;
 2694              		.loc 1 734 55 view .LVU807
 2695 0046 27EE067A 		vmul.f32	s14, s14, s12
 734:ad5940lib/ad5940.c ****   res.Image /= temp;
 2696              		.loc 1 734 39 view .LVU808
 2697 004a 77EEC77A 		vsub.f32	s15, s15, s14
 735:ad5940lib/ad5940.c ****   return res;
 2698              		.loc 1 735 3 is_stmt 1 view .LVU809
 735:ad5940lib/ad5940.c ****   return res;
 2699              		.loc 1 735 13 is_stmt 0 view .LVU810
 2700 004e 87EEA67A 		vdiv.f32	s14, s15, s13
 2701 0052 8DED037A 		vstr.32	s14, [sp, #12]
 736:ad5940lib/ad5940.c **** }
 2702              		.loc 1 736 3 is_stmt 1 view .LVU811
 736:ad5940lib/ad5940.c **** }
 2703              		.loc 1 736 10 is_stmt 0 view .LVU812
 2704 0056 0399     		ldr	r1, [sp, #12]
 2705              	.LVL180:
 736:ad5940lib/ad5940.c **** }
 2706              		.loc 1 736 10 view .LVU813
 2707 0058 0298     		ldr	r0, [sp, #8]
 2708              	.LVL181:
 736:ad5940lib/ad5940.c **** }
 2709              		.loc 1 736 10 view .LVU814
 2710 005a 06AB     		add	r3, sp, #24
 2711 005c 03E90300 		stmdb	r3, {r0, r1}
 737:ad5940lib/ad5940.c **** 
 2712              		.loc 1 737 1 view .LVU815
 2713 0060 9DED040A 		vldr.32	s0, [sp, #16]
 2714 0064 DDED050A 		vldr.32	s1, [sp, #20]
 2715 0068 06B0     		add	sp, sp, #24
 2716              	.LCFI51:
 2717              		.cfi_def_cfa_offset 0
 2718              		@ sp needed
 2719 006a 7047     		bx	lr
 2720              		.cfi_endproc
 2721              	.LFE24:
 2723              		.section	.text.AD5940_ComplexMulInt,"ax",%progbits
 2724              		.align	1
 2725              		.global	AD5940_ComplexMulInt
 2726              		.syntax unified
 2727              		.thumb
 2728              		.thumb_func
 2729              		.fpu fpv5-d16
 2731              	AD5940_ComplexMulInt:
 2732              	.LVL182:
 2733              	.LFB25:
 746:ad5940lib/ad5940.c ****   fImpCar_Type res;
 2734              		.loc 1 746 1 is_stmt 1 view -0
ARM GAS  C:\Users\root\AppData\Local\Temp\ccjNHqBU.s 			page 76


 2735              		.cfi_startproc
 2736              		@ args = 0, pretend = 0, frame = 24
 2737              		@ frame_needed = 0, uses_anonymous_args = 0
 2738              		@ link register save eliminated.
 746:ad5940lib/ad5940.c ****   fImpCar_Type res;
 2739              		.loc 1 746 1 is_stmt 0 view .LVU817
 2740 0000 86B0     		sub	sp, sp, #24
 2741              	.LCFI52:
 2742              		.cfi_def_cfa_offset 24
 747:ad5940lib/ad5940.c ****   
 2743              		.loc 1 747 3 is_stmt 1 view .LVU818
 749:ad5940lib/ad5940.c ****   res.Image = (float)a->Image*b->Real + (float)a->Real*b->Image;
 2744              		.loc 1 749 3 view .LVU819
 749:ad5940lib/ad5940.c ****   res.Image = (float)a->Image*b->Real + (float)a->Real*b->Image;
 2745              		.loc 1 749 14 is_stmt 0 view .LVU820
 2746 0002 D0ED007A 		vldr.32	s15, [r0]	@ int
 2747 0006 B8EEE77A 		vcvt.f32.s32	s14, s15
 749:ad5940lib/ad5940.c ****   res.Image = (float)a->Image*b->Real + (float)a->Real*b->Image;
 2748              		.loc 1 749 28 view .LVU821
 2749 000a D1ED007A 		vldr.32	s15, [r1]	@ int
 2750 000e F8EEE77A 		vcvt.f32.s32	s15, s15
 2751 0012 67EE275A 		vmul.f32	s11, s14, s15
 749:ad5940lib/ad5940.c ****   res.Image = (float)a->Image*b->Real + (float)a->Real*b->Image;
 2752              		.loc 1 749 47 view .LVU822
 2753 0016 90ED016A 		vldr.32	s12, [r0, #4]	@ int
 749:ad5940lib/ad5940.c ****   res.Image = (float)a->Image*b->Real + (float)a->Real*b->Image;
 2754              		.loc 1 749 39 view .LVU823
 2755 001a B8EEC66A 		vcvt.f32.s32	s12, s12
 749:ad5940lib/ad5940.c ****   res.Image = (float)a->Image*b->Real + (float)a->Real*b->Image;
 2756              		.loc 1 749 56 view .LVU824
 2757 001e D1ED016A 		vldr.32	s13, [r1, #4]	@ int
 749:ad5940lib/ad5940.c ****   res.Image = (float)a->Image*b->Real + (float)a->Real*b->Image;
 2758              		.loc 1 749 54 view .LVU825
 2759 0022 F8EEE66A 		vcvt.f32.s32	s13, s13
 2760 0026 26EE265A 		vmul.f32	s10, s12, s13
 749:ad5940lib/ad5940.c ****   res.Image = (float)a->Image*b->Real + (float)a->Real*b->Image;
 2761              		.loc 1 749 37 view .LVU826
 2762 002a 75EEC55A 		vsub.f32	s11, s11, s10
 749:ad5940lib/ad5940.c ****   res.Image = (float)a->Image*b->Real + (float)a->Real*b->Image;
 2763              		.loc 1 749 12 view .LVU827
 2764 002e CDED025A 		vstr.32	s11, [sp, #8]
 750:ad5940lib/ad5940.c **** 
 2765              		.loc 1 750 3 is_stmt 1 view .LVU828
 750:ad5940lib/ad5940.c **** 
 2766              		.loc 1 750 30 is_stmt 0 view .LVU829
 2767 0032 67EE867A 		vmul.f32	s15, s15, s12
 750:ad5940lib/ad5940.c **** 
 2768              		.loc 1 750 55 view .LVU830
 2769 0036 27EE267A 		vmul.f32	s14, s14, s13
 750:ad5940lib/ad5940.c **** 
 2770              		.loc 1 750 39 view .LVU831
 2771 003a 77EE877A 		vadd.f32	s15, s15, s14
 750:ad5940lib/ad5940.c **** 
 2772              		.loc 1 750 13 view .LVU832
 2773 003e CDED037A 		vstr.32	s15, [sp, #12]
 752:ad5940lib/ad5940.c **** }
 2774              		.loc 1 752 3 is_stmt 1 view .LVU833
ARM GAS  C:\Users\root\AppData\Local\Temp\ccjNHqBU.s 			page 77


 752:ad5940lib/ad5940.c **** }
 2775              		.loc 1 752 10 is_stmt 0 view .LVU834
 2776 0042 0399     		ldr	r1, [sp, #12]
 2777              	.LVL183:
 752:ad5940lib/ad5940.c **** }
 2778              		.loc 1 752 10 view .LVU835
 2779 0044 0298     		ldr	r0, [sp, #8]
 2780              	.LVL184:
 752:ad5940lib/ad5940.c **** }
 2781              		.loc 1 752 10 view .LVU836
 2782 0046 06AB     		add	r3, sp, #24
 2783 0048 03E90300 		stmdb	r3, {r0, r1}
 753:ad5940lib/ad5940.c **** 
 2784              		.loc 1 753 1 view .LVU837
 2785 004c 9DED040A 		vldr.32	s0, [sp, #16]
 2786 0050 DDED050A 		vldr.32	s1, [sp, #20]
 2787 0054 06B0     		add	sp, sp, #24
 2788              	.LCFI53:
 2789              		.cfi_def_cfa_offset 0
 2790              		@ sp needed
 2791 0056 7047     		bx	lr
 2792              		.cfi_endproc
 2793              	.LFE25:
 2795              		.section	.text.AD5940_ComplexMag,"ax",%progbits
 2796              		.align	1
 2797              		.global	AD5940_ComplexMag
 2798              		.syntax unified
 2799              		.thumb
 2800              		.thumb_func
 2801              		.fpu fpv5-d16
 2803              	AD5940_ComplexMag:
 2804              	.LVL185:
 2805              	.LFB26:
 761:ad5940lib/ad5940.c ****   return sqrt(a->Real*a->Real + a->Image*a->Image);
 2806              		.loc 1 761 1 is_stmt 1 view -0
 2807              		.cfi_startproc
 2808              		@ args = 0, pretend = 0, frame = 0
 2809              		@ frame_needed = 0, uses_anonymous_args = 0
 761:ad5940lib/ad5940.c ****   return sqrt(a->Real*a->Real + a->Image*a->Image);
 2810              		.loc 1 761 1 is_stmt 0 view .LVU839
 2811 0000 08B5     		push	{r3, lr}
 2812              	.LCFI54:
 2813              		.cfi_def_cfa_offset 8
 2814              		.cfi_offset 3, -8
 2815              		.cfi_offset 14, -4
 762:ad5940lib/ad5940.c **** }
 2816              		.loc 1 762 3 is_stmt 1 view .LVU840
 762:ad5940lib/ad5940.c **** }
 2817              		.loc 1 762 16 is_stmt 0 view .LVU841
 2818 0002 90ED000A 		vldr.32	s0, [r0]
 762:ad5940lib/ad5940.c **** }
 2819              		.loc 1 762 22 view .LVU842
 2820 0006 20EE000A 		vmul.f32	s0, s0, s0
 762:ad5940lib/ad5940.c **** }
 2821              		.loc 1 762 34 view .LVU843
 2822 000a D0ED017A 		vldr.32	s15, [r0, #4]
 762:ad5940lib/ad5940.c **** }
ARM GAS  C:\Users\root\AppData\Local\Temp\ccjNHqBU.s 			page 78


 2823              		.loc 1 762 41 view .LVU844
 2824 000e 67EEA77A 		vmul.f32	s15, s15, s15
 762:ad5940lib/ad5940.c **** }
 2825              		.loc 1 762 31 view .LVU845
 2826 0012 30EE270A 		vadd.f32	s0, s0, s15
 762:ad5940lib/ad5940.c **** }
 2827              		.loc 1 762 10 view .LVU846
 2828 0016 B7EEC00A 		vcvt.f64.f32	d0, s0
 2829 001a FFF7FEFF 		bl	sqrt
 2830              	.LVL186:
 763:ad5940lib/ad5940.c **** 
 2831              		.loc 1 763 1 view .LVU847
 2832 001e B7EEC00B 		vcvt.f32.f64	s0, d0
 2833 0022 08BD     		pop	{r3, pc}
 2834              		.cfi_endproc
 2835              	.LFE26:
 2837              		.section	.text.AD5940_ComplexPhase,"ax",%progbits
 2838              		.align	1
 2839              		.global	AD5940_ComplexPhase
 2840              		.syntax unified
 2841              		.thumb
 2842              		.thumb_func
 2843              		.fpu fpv5-d16
 2845              	AD5940_ComplexPhase:
 2846              	.LVL187:
 2847              	.LFB27:
 771:ad5940lib/ad5940.c ****   return atan2(a->Image, a->Real);
 2848              		.loc 1 771 1 is_stmt 1 view -0
 2849              		.cfi_startproc
 2850              		@ args = 0, pretend = 0, frame = 0
 2851              		@ frame_needed = 0, uses_anonymous_args = 0
 771:ad5940lib/ad5940.c ****   return atan2(a->Image, a->Real);
 2852              		.loc 1 771 1 is_stmt 0 view .LVU849
 2853 0000 08B5     		push	{r3, lr}
 2854              	.LCFI55:
 2855              		.cfi_def_cfa_offset 8
 2856              		.cfi_offset 3, -8
 2857              		.cfi_offset 14, -4
 772:ad5940lib/ad5940.c **** }
 2858              		.loc 1 772 3 is_stmt 1 view .LVU850
 772:ad5940lib/ad5940.c **** }
 2859              		.loc 1 772 17 is_stmt 0 view .LVU851
 2860 0002 90ED010A 		vldr.32	s0, [r0, #4]
 772:ad5940lib/ad5940.c **** }
 2861              		.loc 1 772 27 view .LVU852
 2862 0006 90ED001A 		vldr.32	s2, [r0]
 772:ad5940lib/ad5940.c **** }
 2863              		.loc 1 772 10 view .LVU853
 2864 000a B7EEC11A 		vcvt.f64.f32	d1, s2
 2865 000e B7EEC00A 		vcvt.f64.f32	d0, s0
 2866 0012 FFF7FEFF 		bl	atan2
 2867              	.LVL188:
 773:ad5940lib/ad5940.c **** 
 2868              		.loc 1 773 1 view .LVU854
 2869 0016 B7EEC00B 		vcvt.f32.f64	s0, d0
 2870 001a 08BD     		pop	{r3, pc}
 2871              		.cfi_endproc
ARM GAS  C:\Users\root\AppData\Local\Temp\ccjNHqBU.s 			page 79


 2872              	.LFE27:
 2874              		.section	.text.AD5940_FIFORd,"ax",%progbits
 2875              		.align	1
 2876              		.global	AD5940_FIFORd
 2877              		.syntax unified
 2878              		.thumb
 2879              		.thumb_func
 2880              		.fpu fpv5-d16
 2882              	AD5940_FIFORd:
 2883              	.LVL189:
 2884              	.LFB33:
 911:ad5940lib/ad5940.c **** 
 912:ad5940lib/ad5940.c **** /**
 913:ad5940lib/ad5940.c ****   @brief Read specific number of data from FIFO with optimized SPI access.
 914:ad5940lib/ad5940.c ****   @param pBuffer: Pointer to a buffer that used to store data read back.
 915:ad5940lib/ad5940.c ****   @param uiReadCount: How much data to be read.
 916:ad5940lib/ad5940.c ****   @return none.
 917:ad5940lib/ad5940.c **** **/
 918:ad5940lib/ad5940.c **** void AD5940_FIFORd(uint32_t *pBuffer, uint32_t uiReadCount)   
 919:ad5940lib/ad5940.c **** {
 2885              		.loc 1 919 1 is_stmt 1 view -0
 2886              		.cfi_startproc
 2887              		@ args = 0, pretend = 0, frame = 0
 2888              		@ frame_needed = 0, uses_anonymous_args = 0
 2889              		.loc 1 919 1 is_stmt 0 view .LVU856
 2890 0000 70B5     		push	{r4, r5, r6, lr}
 2891              	.LCFI56:
 2892              		.cfi_def_cfa_offset 16
 2893              		.cfi_offset 4, -16
 2894              		.cfi_offset 5, -12
 2895              		.cfi_offset 6, -8
 2896              		.cfi_offset 14, -4
 2897 0002 0646     		mov	r6, r0
 2898 0004 0D46     		mov	r5, r1
 920:ad5940lib/ad5940.c ****   /* Use function AD5940_SPIReadReg to read REG_AFE_DATAFIFORD is also one method. */
 921:ad5940lib/ad5940.c ****    uint32_t i;
 2899              		.loc 1 921 4 is_stmt 1 view .LVU857
 922:ad5940lib/ad5940.c ****    
 923:ad5940lib/ad5940.c ****    if(uiReadCount < 3)
 2900              		.loc 1 923 4 view .LVU858
 2901              		.loc 1 923 6 is_stmt 0 view .LVU859
 2902 0006 0229     		cmp	r1, #2
 2903 0008 1FD8     		bhi	.L186
 2904              	.LBB10:
 924:ad5940lib/ad5940.c ****    {
 925:ad5940lib/ad5940.c ****       /* This method is more efficient when readcount < 3 */
 926:ad5940lib/ad5940.c ****       uint32_t i;
 2905              		.loc 1 926 7 is_stmt 1 view .LVU860
 927:ad5940lib/ad5940.c ****       AD5940_CsClr();
 2906              		.loc 1 927 7 view .LVU861
 2907 000a FFF7FEFF 		bl	AD5940_CsClr
 2908              	.LVL190:
 928:ad5940lib/ad5940.c ****       AD5940_ReadWrite8B(SPICMD_SETADDR);
 2909              		.loc 1 928 7 view .LVU862
 2910 000e 2020     		movs	r0, #32
 2911 0010 FFF7FEFF 		bl	AD5940_ReadWrite8B
 2912              	.LVL191:
ARM GAS  C:\Users\root\AppData\Local\Temp\ccjNHqBU.s 			page 80


 929:ad5940lib/ad5940.c ****       AD5940_ReadWrite16B(REG_AFE_DATAFIFORD);
 2913              		.loc 1 929 7 view .LVU863
 2914 0014 42F26C00 		movw	r0, #8300
 2915 0018 FFF7FEFF 		bl	AD5940_ReadWrite16B
 2916              	.LVL192:
 930:ad5940lib/ad5940.c ****       AD5940_CsSet();
 2917              		.loc 1 930 7 view .LVU864
 2918 001c FFF7FEFF 		bl	AD5940_CsSet
 2919              	.LVL193:
 931:ad5940lib/ad5940.c ****       for(i=0;i<uiReadCount;i++)
 2920              		.loc 1 931 7 view .LVU865
 2921              		.loc 1 931 12 is_stmt 0 view .LVU866
 2922 0020 0024     		movs	r4, #0
 2923              		.loc 1 931 7 view .LVU867
 2924 0022 0FE0     		b	.L187
 2925              	.LVL194:
 2926              	.L188:
 932:ad5940lib/ad5940.c ****       {
 933:ad5940lib/ad5940.c ****          AD5940_CsClr();
 2927              		.loc 1 933 10 is_stmt 1 discriminator 3 view .LVU868
 2928 0024 FFF7FEFF 		bl	AD5940_CsClr
 2929              	.LVL195:
 934:ad5940lib/ad5940.c ****          AD5940_ReadWrite8B(SPICMD_READREG);
 2930              		.loc 1 934 10 discriminator 3 view .LVU869
 2931 0028 6D20     		movs	r0, #109
 2932 002a FFF7FEFF 		bl	AD5940_ReadWrite8B
 2933              	.LVL196:
 935:ad5940lib/ad5940.c ****          AD5940_ReadWrite8B(0);//Write Host status/Don't care
 2934              		.loc 1 935 10 discriminator 3 view .LVU870
 2935 002e 0020     		movs	r0, #0
 2936 0030 FFF7FEFF 		bl	AD5940_ReadWrite8B
 2937              	.LVL197:
 936:ad5940lib/ad5940.c ****          pBuffer[i] = AD5940_ReadWrite32B(0);
 2938              		.loc 1 936 10 discriminator 3 view .LVU871
 2939              		.loc 1 936 23 is_stmt 0 discriminator 3 view .LVU872
 2940 0034 0020     		movs	r0, #0
 2941 0036 FFF7FEFF 		bl	AD5940_ReadWrite32B
 2942              	.LVL198:
 2943              		.loc 1 936 21 discriminator 3 view .LVU873
 2944 003a 46F82400 		str	r0, [r6, r4, lsl #2]
 937:ad5940lib/ad5940.c ****          AD5940_CsSet();
 2945              		.loc 1 937 10 is_stmt 1 discriminator 3 view .LVU874
 2946 003e FFF7FEFF 		bl	AD5940_CsSet
 2947              	.LVL199:
 931:ad5940lib/ad5940.c ****       {
 2948              		.loc 1 931 29 discriminator 3 view .LVU875
 931:ad5940lib/ad5940.c ****       {
 2949              		.loc 1 931 30 is_stmt 0 discriminator 3 view .LVU876
 2950 0042 0134     		adds	r4, r4, #1
 2951              	.LVL200:
 2952              	.L187:
 931:ad5940lib/ad5940.c ****       {
 2953              		.loc 1 931 15 is_stmt 1 discriminator 1 view .LVU877
 931:ad5940lib/ad5940.c ****       {
 2954              		.loc 1 931 7 is_stmt 0 discriminator 1 view .LVU878
 2955 0044 AC42     		cmp	r4, r5
 2956 0046 EDD3     		bcc	.L188
ARM GAS  C:\Users\root\AppData\Local\Temp\ccjNHqBU.s 			page 81


 2957 0048 26E0     		b	.L185
 2958              	.LVL201:
 2959              	.L186:
 931:ad5940lib/ad5940.c ****       {
 2960              		.loc 1 931 7 discriminator 1 view .LVU879
 2961              	.LBE10:
 938:ad5940lib/ad5940.c ****       }
 939:ad5940lib/ad5940.c ****    }
 940:ad5940lib/ad5940.c ****    else
 941:ad5940lib/ad5940.c ****    {
 942:ad5940lib/ad5940.c ****       AD5940_CsClr();
 2962              		.loc 1 942 7 is_stmt 1 view .LVU880
 2963 004a FFF7FEFF 		bl	AD5940_CsClr
 2964              	.LVL202:
 943:ad5940lib/ad5940.c ****       AD5940_ReadWrite8B(SPICMD_READFIFO);
 2965              		.loc 1 943 7 view .LVU881
 2966 004e 5F20     		movs	r0, #95
 2967 0050 FFF7FEFF 		bl	AD5940_ReadWrite8B
 2968              	.LVL203:
 944:ad5940lib/ad5940.c ****       /* 6 dummy write before valid data read back */
 945:ad5940lib/ad5940.c ****       for(i=0;i<6;i++)
 2969              		.loc 1 945 7 view .LVU882
 2970              		.loc 1 945 12 is_stmt 0 view .LVU883
 2971 0054 0024     		movs	r4, #0
 2972              	.LVL204:
 2973              	.L190:
 2974              		.loc 1 945 15 is_stmt 1 discriminator 1 view .LVU884
 2975              		.loc 1 945 7 is_stmt 0 discriminator 1 view .LVU885
 2976 0056 052C     		cmp	r4, #5
 2977 0058 04D8     		bhi	.L195
 946:ad5940lib/ad5940.c ****          AD5940_ReadWrite8B(0);
 2978              		.loc 1 946 10 is_stmt 1 discriminator 3 view .LVU886
 2979 005a 0020     		movs	r0, #0
 2980 005c FFF7FEFF 		bl	AD5940_ReadWrite8B
 2981              	.LVL205:
 945:ad5940lib/ad5940.c ****          AD5940_ReadWrite8B(0);
 2982              		.loc 1 945 19 discriminator 3 view .LVU887
 945:ad5940lib/ad5940.c ****          AD5940_ReadWrite8B(0);
 2983              		.loc 1 945 20 is_stmt 0 discriminator 3 view .LVU888
 2984 0060 0134     		adds	r4, r4, #1
 2985              	.LVL206:
 945:ad5940lib/ad5940.c ****          AD5940_ReadWrite8B(0);
 2986              		.loc 1 945 20 discriminator 3 view .LVU889
 2987 0062 F8E7     		b	.L190
 2988              	.L195:
 947:ad5940lib/ad5940.c ****       /* Continuously read DATAFIFORD register with offset 0 */
 948:ad5940lib/ad5940.c ****       for(i=0;i<uiReadCount-2;i++)
 2989              		.loc 1 948 12 view .LVU890
 2990 0064 0024     		movs	r4, #0
 2991              	.LVL207:
 2992              		.loc 1 948 12 view .LVU891
 2993 0066 05E0     		b	.L192
 2994              	.LVL208:
 2995              	.L193:
 949:ad5940lib/ad5940.c ****       {
 950:ad5940lib/ad5940.c ****          pBuffer[i] = AD5940_ReadWrite32B(0); /*Offset is 0, so we always read DATAFIFORD register 
 2996              		.loc 1 950 10 is_stmt 1 discriminator 3 view .LVU892
ARM GAS  C:\Users\root\AppData\Local\Temp\ccjNHqBU.s 			page 82


 2997              		.loc 1 950 23 is_stmt 0 discriminator 3 view .LVU893
 2998 0068 0020     		movs	r0, #0
 2999 006a FFF7FEFF 		bl	AD5940_ReadWrite32B
 3000              	.LVL209:
 3001              		.loc 1 950 21 discriminator 3 view .LVU894
 3002 006e 46F82400 		str	r0, [r6, r4, lsl #2]
 948:ad5940lib/ad5940.c ****       {
 3003              		.loc 1 948 31 is_stmt 1 discriminator 3 view .LVU895
 948:ad5940lib/ad5940.c ****       {
 3004              		.loc 1 948 32 is_stmt 0 discriminator 3 view .LVU896
 3005 0072 0134     		adds	r4, r4, #1
 3006              	.LVL210:
 3007              	.L192:
 948:ad5940lib/ad5940.c ****       {
 3008              		.loc 1 948 15 is_stmt 1 discriminator 1 view .LVU897
 948:ad5940lib/ad5940.c ****       {
 3009              		.loc 1 948 28 is_stmt 0 discriminator 1 view .LVU898
 3010 0074 AB1E     		subs	r3, r5, #2
 948:ad5940lib/ad5940.c ****       {
 3011              		.loc 1 948 7 discriminator 1 view .LVU899
 3012 0076 A342     		cmp	r3, r4
 3013 0078 F6D8     		bhi	.L193
 951:ad5940lib/ad5940.c ****       }
 952:ad5940lib/ad5940.c ****       /* Read back last two FIFO data with none-zero offset*/
 953:ad5940lib/ad5940.c ****       pBuffer[i++] = AD5940_ReadWrite32B(0x44444444);
 3014              		.loc 1 953 7 is_stmt 1 view .LVU900
 3015              		.loc 1 953 16 is_stmt 0 view .LVU901
 3016 007a 651C     		adds	r5, r4, #1
 3017              	.LVL211:
 3018              		.loc 1 953 22 view .LVU902
 3019 007c 4FF04430 		mov	r0, #1145324612
 3020 0080 FFF7FEFF 		bl	AD5940_ReadWrite32B
 3021              	.LVL212:
 3022              		.loc 1 953 20 view .LVU903
 3023 0084 46F82400 		str	r0, [r6, r4, lsl #2]
 954:ad5940lib/ad5940.c ****       pBuffer[i] = AD5940_ReadWrite32B(0x44444444);
 3024              		.loc 1 954 7 is_stmt 1 view .LVU904
 3025              		.loc 1 954 20 is_stmt 0 view .LVU905
 3026 0088 4FF04430 		mov	r0, #1145324612
 3027 008c FFF7FEFF 		bl	AD5940_ReadWrite32B
 3028              	.LVL213:
 3029              		.loc 1 954 18 view .LVU906
 3030 0090 46F82500 		str	r0, [r6, r5, lsl #2]
 955:ad5940lib/ad5940.c ****       AD5940_CsSet();
 3031              		.loc 1 955 7 is_stmt 1 view .LVU907
 3032 0094 FFF7FEFF 		bl	AD5940_CsSet
 3033              	.LVL214:
 3034              	.L185:
 956:ad5940lib/ad5940.c ****    }
 957:ad5940lib/ad5940.c **** }
 3035              		.loc 1 957 1 is_stmt 0 view .LVU908
 3036 0098 70BD     		pop	{r4, r5, r6, pc}
 3037              		.loc 1 957 1 view .LVU909
 3038              		.cfi_endproc
 3039              	.LFE33:
 3041              		.section	.text.AD5940_WriteReg,"ax",%progbits
 3042              		.align	1
ARM GAS  C:\Users\root\AppData\Local\Temp\ccjNHqBU.s 			page 83


 3043              		.global	AD5940_WriteReg
 3044              		.syntax unified
 3045              		.thumb
 3046              		.thumb_func
 3047              		.fpu fpv5-d16
 3049              	AD5940_WriteReg:
 3050              	.LVL215:
 3051              	.LFB34:
 958:ad5940lib/ad5940.c **** 
 959:ad5940lib/ad5940.c **** /**
 960:ad5940lib/ad5940.c ****  * @} SPI_Block_Functions
 961:ad5940lib/ad5940.c ****  * @} SPI_Block
 962:ad5940lib/ad5940.c **** */
 963:ad5940lib/ad5940.c **** #endif
 964:ad5940lib/ad5940.c **** 
 965:ad5940lib/ad5940.c **** /**
 966:ad5940lib/ad5940.c ****  * @brief Write register. If sequencer generator is enabled, the register write is recorded. 
 967:ad5940lib/ad5940.c ****  *        Otherwise, the data is written to AD5940 by SPI.
 968:ad5940lib/ad5940.c ****  * @param RegAddr: The register address.
 969:ad5940lib/ad5940.c ****  * @param RegData: The register data.
 970:ad5940lib/ad5940.c ****  * @return Return None.
 971:ad5940lib/ad5940.c **** **/
 972:ad5940lib/ad5940.c **** void AD5940_WriteReg(uint16_t RegAddr, uint32_t RegData)
 973:ad5940lib/ad5940.c **** {
 3052              		.loc 1 973 1 is_stmt 1 view -0
 3053              		.cfi_startproc
 3054              		@ args = 0, pretend = 0, frame = 0
 3055              		@ frame_needed = 0, uses_anonymous_args = 0
 3056              		.loc 1 973 1 is_stmt 0 view .LVU911
 3057 0000 08B5     		push	{r3, lr}
 3058              	.LCFI57:
 3059              		.cfi_def_cfa_offset 8
 3060              		.cfi_offset 3, -8
 3061              		.cfi_offset 14, -4
 974:ad5940lib/ad5940.c **** #ifdef SEQUENCE_GENERATOR
 975:ad5940lib/ad5940.c ****   if(SeqGenDB.EngineStart == bTRUE)
 3062              		.loc 1 975 3 is_stmt 1 view .LVU912
 3063              		.loc 1 975 14 is_stmt 0 view .LVU913
 3064 0002 054B     		ldr	r3, .L201
 3065 0004 1B78     		ldrb	r3, [r3]	@ zero_extendqisi2
 3066              		.loc 1 975 5 view .LVU914
 3067 0006 012B     		cmp	r3, #1
 3068 0008 02D0     		beq	.L200
 976:ad5940lib/ad5940.c ****     AD5940_SEQWriteReg(RegAddr, RegData);
 977:ad5940lib/ad5940.c ****   else
 978:ad5940lib/ad5940.c **** #endif
 979:ad5940lib/ad5940.c **** #ifdef CHIPSEL_M355
 980:ad5940lib/ad5940.c ****     AD5940_D2DWriteReg(RegAddr, RegData);
 981:ad5940lib/ad5940.c **** #else
 982:ad5940lib/ad5940.c ****     AD5940_SPIWriteReg(RegAddr, RegData);
 3069              		.loc 1 982 5 is_stmt 1 view .LVU915
 3070 000a FFF7FEFF 		bl	AD5940_SPIWriteReg
 3071              	.LVL216:
 3072              	.L196:
 983:ad5940lib/ad5940.c **** #endif
 984:ad5940lib/ad5940.c **** }
 3073              		.loc 1 984 1 is_stmt 0 view .LVU916
ARM GAS  C:\Users\root\AppData\Local\Temp\ccjNHqBU.s 			page 84


 3074 000e 08BD     		pop	{r3, pc}
 3075              	.LVL217:
 3076              	.L200:
 976:ad5940lib/ad5940.c ****     AD5940_SEQWriteReg(RegAddr, RegData);
 3077              		.loc 1 976 5 is_stmt 1 view .LVU917
 3078 0010 FFF7FEFF 		bl	AD5940_SEQWriteReg
 3079              	.LVL218:
 976:ad5940lib/ad5940.c ****     AD5940_SEQWriteReg(RegAddr, RegData);
 3080              		.loc 1 976 5 is_stmt 0 view .LVU918
 3081 0014 FBE7     		b	.L196
 3082              	.L202:
 3083 0016 00BF     		.align	2
 3084              	.L201:
 3085 0018 00000000 		.word	SeqGenDB
 3086              		.cfi_endproc
 3087              	.LFE34:
 3089              		.section	.text.__AD5940_SetDExRTIA,"ax",%progbits
 3090              		.align	1
 3091              		.syntax unified
 3092              		.thumb
 3093              		.thumb_func
 3094              		.fpu fpv5-d16
 3096              	__AD5940_SetDExRTIA:
 3097              	.LVL219:
 3098              	.LFB44:
 985:ad5940lib/ad5940.c **** 
 986:ad5940lib/ad5940.c **** /**
 987:ad5940lib/ad5940.c ****  * @brief Read register. If sequencer generator is enabled, read current register value from data-b
 988:ad5940lib/ad5940.c ****  *        Otherwise, read register value by SPI.
 989:ad5940lib/ad5940.c ****  * @param RegAddr: The register address.
 990:ad5940lib/ad5940.c ****  * @return Return register value.
 991:ad5940lib/ad5940.c **** **/
 992:ad5940lib/ad5940.c **** uint32_t AD5940_ReadReg(uint16_t RegAddr)
 993:ad5940lib/ad5940.c **** {
 994:ad5940lib/ad5940.c **** #ifdef SEQUENCE_GENERATOR
 995:ad5940lib/ad5940.c ****   if(SeqGenDB.EngineStart == bTRUE)
 996:ad5940lib/ad5940.c ****     return AD5940_SEQReadReg(RegAddr);
 997:ad5940lib/ad5940.c ****   else
 998:ad5940lib/ad5940.c **** #endif
 999:ad5940lib/ad5940.c **** #ifdef CHIPSEL_M355
1000:ad5940lib/ad5940.c ****     return AD5940_D2DReadReg(RegAddr);
1001:ad5940lib/ad5940.c **** #else
1002:ad5940lib/ad5940.c ****     return AD5940_SPIReadReg(RegAddr);
1003:ad5940lib/ad5940.c **** #endif
1004:ad5940lib/ad5940.c **** }
1005:ad5940lib/ad5940.c **** 
1006:ad5940lib/ad5940.c **** 
1007:ad5940lib/ad5940.c **** /**
1008:ad5940lib/ad5940.c ****  * @defgroup AFE_Control 
1009:ad5940lib/ad5940.c ****  * @brief Some functions to control the whole AFE. They are top level switches.
1010:ad5940lib/ad5940.c ****  * @{
1011:ad5940lib/ad5940.c ****  *    @defgroup AFE_Control_Functions
1012:ad5940lib/ad5940.c ****  *    The top-level control functions for whole AFE perspective. 
1013:ad5940lib/ad5940.c ****  *    @details  This function set is used to control the whole AFE block by block. It's a top-level
1014:ad5940lib/ad5940.c ****  *              It's convenient when do initialization work with the functions called BLOCK**Cfg**.
1015:ad5940lib/ad5940.c ****  *              functions from each block. rather than top-level functions where you need to config
1016:ad5940lib/ad5940.c ****  *    @{
ARM GAS  C:\Users\root\AppData\Local\Temp\ccjNHqBU.s 			page 85


1017:ad5940lib/ad5940.c **** */
1018:ad5940lib/ad5940.c **** 
1019:ad5940lib/ad5940.c **** /**
1020:ad5940lib/ad5940.c ****  * @brief Initialize AD5940. This function must be called whenever there is reset(Software Reset or
1021:ad5940lib/ad5940.c ****  *        This function is used to put AD5940 to correct state.
1022:ad5940lib/ad5940.c ****  * @return return None
1023:ad5940lib/ad5940.c **** **/
1024:ad5940lib/ad5940.c **** void AD5940_Initialize(void)
1025:ad5940lib/ad5940.c **** {
1026:ad5940lib/ad5940.c ****   int i;
1027:ad5940lib/ad5940.c ****   /* Write following registers with its data sequentially whenever there is a reset happened. */
1028:ad5940lib/ad5940.c ****   const struct
1029:ad5940lib/ad5940.c ****   {
1030:ad5940lib/ad5940.c ****     uint16_t reg_addr;
1031:ad5940lib/ad5940.c ****     uint32_t reg_data;
1032:ad5940lib/ad5940.c ****   }RegTable[]=
1033:ad5940lib/ad5940.c ****   {
1034:ad5940lib/ad5940.c ****     {0x0908, 0x02c9},
1035:ad5940lib/ad5940.c ****     {0x0c08, 0x206C},
1036:ad5940lib/ad5940.c ****     {0x21F0, 0x0010},
1037:ad5940lib/ad5940.c **** #ifndef CHIPSEL_M355
1038:ad5940lib/ad5940.c ****     /* This is AD5940 */
1039:ad5940lib/ad5940.c ****     {0x0410, 0x02c9},
1040:ad5940lib/ad5940.c ****     {0x0A28, 0x0009},
1041:ad5940lib/ad5940.c **** #else
1042:ad5940lib/ad5940.c ****     /* This is ADuCM355 */
1043:ad5940lib/ad5940.c ****     {0x0410, 0x001a},
1044:ad5940lib/ad5940.c ****     {0x0A28, 0x0008},
1045:ad5940lib/ad5940.c **** #endif
1046:ad5940lib/ad5940.c ****     {0x238c, 0x0104},
1047:ad5940lib/ad5940.c ****     {0x0a04, 0x4859},
1048:ad5940lib/ad5940.c ****     {0x0a04, 0xF27B},
1049:ad5940lib/ad5940.c ****     {0x0a00, 0x8009},
1050:ad5940lib/ad5940.c ****     {0x22F0, 0x0000},
1051:ad5940lib/ad5940.c ****     //
1052:ad5940lib/ad5940.c ****     {0x2230, 0xDE87A5AF},
1053:ad5940lib/ad5940.c ****     {0x2250, 0x103F},
1054:ad5940lib/ad5940.c ****     {0x22B0, 0x203C},
1055:ad5940lib/ad5940.c ****     {0x2230, 0xDE87A5A0},
1056:ad5940lib/ad5940.c ****   };
1057:ad5940lib/ad5940.c ****   //initialize global variables
1058:ad5940lib/ad5940.c ****   SeqGenDB.SeqLen = 0;
1059:ad5940lib/ad5940.c ****   SeqGenDB.RegCount = 0;
1060:ad5940lib/ad5940.c ****   SeqGenDB.LastError = AD5940ERR_OK;
1061:ad5940lib/ad5940.c ****   SeqGenDB.EngineStart = bFALSE;
1062:ad5940lib/ad5940.c **** #ifndef CHIPSEL_M355
1063:ad5940lib/ad5940.c ****   AD5940_CsSet(); /* Pull high CS in case it's low */
1064:ad5940lib/ad5940.c **** #endif
1065:ad5940lib/ad5940.c ****   for(i=0; i<sizeof(RegTable)/sizeof(RegTable[0]); i++)
1066:ad5940lib/ad5940.c ****     AD5940_WriteReg(RegTable[i].reg_addr, RegTable[i].reg_data);
1067:ad5940lib/ad5940.c ****   i = AD5940_ReadReg(REG_AFECON_CHIPID);  
1068:ad5940lib/ad5940.c ****   if(i == 0x5501)
1069:ad5940lib/ad5940.c **** 	{
1070:ad5940lib/ad5940.c ****     bIsS2silicon = bTRUE;
1071:ad5940lib/ad5940.c **** 		printf("CHIPID read :0x%04x.\n", i);
1072:ad5940lib/ad5940.c **** 	}
1073:ad5940lib/ad5940.c ****   else if(i == 0x5502)  /* S3 chip-id is 0x5502. The is no difference with S2. */
ARM GAS  C:\Users\root\AppData\Local\Temp\ccjNHqBU.s 			page 86


1074:ad5940lib/ad5940.c **** 	{
1075:ad5940lib/ad5940.c ****     bIsS2silicon = bTRUE;
1076:ad5940lib/ad5940.c **** 		printf("CHIPID read :0x%04x.\n", i);
1077:ad5940lib/ad5940.c **** 	}
1078:ad5940lib/ad5940.c ****   else if(i == 0x5500)
1079:ad5940lib/ad5940.c ****     bIsS2silicon = bFALSE;
1080:ad5940lib/ad5940.c **** #ifdef ADI_DEBUG
1081:ad5940lib/ad5940.c ****   else
1082:ad5940lib/ad5940.c ****   {
1083:ad5940lib/ad5940.c ****     printf("CHIPID read error:0x%04x. AD5940 is not present?\n", i);
1084:ad5940lib/ad5940.c ****     while(1);
1085:ad5940lib/ad5940.c ****   }
1086:ad5940lib/ad5940.c **** #ifdef CHIPSEL_M355
1087:ad5940lib/ad5940.c ****   ADI_Print("This ADuCM355!\n");
1088:ad5940lib/ad5940.c **** #else
1089:ad5940lib/ad5940.c ****   //ADI_Print("This AD594x!\n");
1090:ad5940lib/ad5940.c **** #endif
1091:ad5940lib/ad5940.c ****   //ADI_Print("Note: Current Silicon is %s\n", bIsS2silicon?"S2":"S1");
1092:ad5940lib/ad5940.c ****   //ADI_Print("AD5940LIB Version:v%d.%d.%d\n", AD5940LIB_VER_MAJOR, AD5940LIB_VER_MINOR, AD5940LIB_
1093:ad5940lib/ad5940.c **** #endif
1094:ad5940lib/ad5940.c **** }
1095:ad5940lib/ad5940.c **** 
1096:ad5940lib/ad5940.c **** /**
1097:ad5940lib/ad5940.c ****  * @brief Control most AFE digital and analog block within one register access.
1098:ad5940lib/ad5940.c ****  * @param AfeCtrlSet: A set of blocks that will be controlled select it from @ref AFECTRL_Const Bel
1099:ad5940lib/ad5940.c ****  *        - AFECTRL_HPREFPWR: Control high power reference(bandgap).
1100:ad5940lib/ad5940.c ****  *        - AFECTRL_WG|AFECTRL_ADCPWR: The OR'ed control set. Control Waveform generator and ADC po
1101:ad5940lib/ad5940.c ****  * @param State: Enable or disable selected control set signal. Select from @BoolFlag
1102:ad5940lib/ad5940.c ****  *        - bFALSE: Disable or power down selected block(s).
1103:ad5940lib/ad5940.c ****  *        - bTRUE:  Enable all selected block(s).
1104:ad5940lib/ad5940.c ****    @return return none.
1105:ad5940lib/ad5940.c **** */
1106:ad5940lib/ad5940.c **** void AD5940_AFECtrlS(uint32_t AfeCtrlSet, BoolFlag State)
1107:ad5940lib/ad5940.c **** {
1108:ad5940lib/ad5940.c ****   /* Check parameters */
1109:ad5940lib/ad5940.c ****   uint32_t tempreg;
1110:ad5940lib/ad5940.c ****   tempreg = AD5940_ReadReg(REG_AFE_AFECON);
1111:ad5940lib/ad5940.c ****   if (State == bTRUE) {
1112:ad5940lib/ad5940.c ****     /* Clear bits to enable HPREF and ALDOLimit*/
1113:ad5940lib/ad5940.c ****     if (AfeCtrlSet & AFECTRL_HPREFPWR) {
1114:ad5940lib/ad5940.c ****         tempreg &= ~BITM_AFE_AFECON_HPREFDIS;
1115:ad5940lib/ad5940.c ****         AfeCtrlSet &= ~AFECTRL_HPREFPWR;
1116:ad5940lib/ad5940.c ****     }
1117:ad5940lib/ad5940.c ****     if(AfeCtrlSet & AFECTRL_ALDOLIMIT)
1118:ad5940lib/ad5940.c ****     {
1119:ad5940lib/ad5940.c ****       tempreg &= ~BITM_AFE_AFECON_ALDOILIMITEN;
1120:ad5940lib/ad5940.c ****       AfeCtrlSet &= ~AFECTRL_ALDOLIMIT;
1121:ad5940lib/ad5940.c ****     }
1122:ad5940lib/ad5940.c ****     tempreg |= AfeCtrlSet;
1123:ad5940lib/ad5940.c ****   }
1124:ad5940lib/ad5940.c ****   else
1125:ad5940lib/ad5940.c ****   {
1126:ad5940lib/ad5940.c ****     /* Set bits to Disable HPREF and ALDOLimit*/
1127:ad5940lib/ad5940.c ****     if(AfeCtrlSet & AFECTRL_HPREFPWR)
1128:ad5940lib/ad5940.c ****     {
1129:ad5940lib/ad5940.c ****         tempreg |= BITM_AFE_AFECON_HPREFDIS;
1130:ad5940lib/ad5940.c ****         AfeCtrlSet &= ~AFECTRL_HPREFPWR;
ARM GAS  C:\Users\root\AppData\Local\Temp\ccjNHqBU.s 			page 87


1131:ad5940lib/ad5940.c ****     }
1132:ad5940lib/ad5940.c ****     if(AfeCtrlSet & AFECTRL_ALDOLIMIT)
1133:ad5940lib/ad5940.c ****     {
1134:ad5940lib/ad5940.c ****       tempreg |= BITM_AFE_AFECON_ALDOILIMITEN;
1135:ad5940lib/ad5940.c ****       AfeCtrlSet &= ~AFECTRL_ALDOLIMIT;
1136:ad5940lib/ad5940.c ****     }
1137:ad5940lib/ad5940.c ****     tempreg &= ~AfeCtrlSet;
1138:ad5940lib/ad5940.c ****   }
1139:ad5940lib/ad5940.c ****   AD5940_WriteReg(REG_AFE_AFECON, tempreg);
1140:ad5940lib/ad5940.c **** }
1141:ad5940lib/ad5940.c **** /** When LP mode is enabled, some functions are under control of LPMODECON, rather than original re
1142:ad5940lib/ad5940.c **** /** @warning LPMODE is key protected, this function only takes effect after AD5940_LPModeEnS(bTRUE)
1143:ad5940lib/ad5940.c **** /**
1144:ad5940lib/ad5940.c ****  * @brief For LP mode, use one register to control most AFE digital and analog block.
1145:ad5940lib/ad5940.c ****  * @details The parameter means the blocks. The selected block will be enabled. All others will be 
1146:ad5940lib/ad5940.c ****  *          The method to enable/disable blocks are defined by register LPMODECON, either by cleari
1147:ad5940lib/ad5940.c ****  * @param EnSet: A set of blocks that will be enabled. Select it from @ref LPMODECTRL_Const. All ot
1148:ad5940lib/ad5940.c ****  *        - LPMODECTRL_ALDOPWR|LPMODECTRL_HFOSCEN: Turn on ALDO and HFOSC, disable all others.
1149:ad5940lib/ad5940.c ****  *        - LPMODECTRL_ALL: Enable all blocks.
1150:ad5940lib/ad5940.c ****    @return return none.
1151:ad5940lib/ad5940.c **** */
1152:ad5940lib/ad5940.c **** AD5940Err AD5940_LPModeCtrlS(uint32_t EnSet)
1153:ad5940lib/ad5940.c **** {
1154:ad5940lib/ad5940.c ****   /* Check parameters */
1155:ad5940lib/ad5940.c ****   uint32_t tempreg;
1156:ad5940lib/ad5940.c ****   uint32_t DisSet;    /* The blocks to be disabled */
1157:ad5940lib/ad5940.c ****   DisSet = LPMODECTRL_ALL & (~EnSet);
1158:ad5940lib/ad5940.c ****   tempreg = AD5940_ReadReg(REG_AFE_LPMODECON);
1159:ad5940lib/ad5940.c ****   /* Enable selected set */
1160:ad5940lib/ad5940.c ****   {
1161:ad5940lib/ad5940.c ****     /* Clear bits to enable HFOSC, HPREF, ALDO */
1162:ad5940lib/ad5940.c ****     if (EnSet & LPMODECTRL_HFOSCEN) {
1163:ad5940lib/ad5940.c ****         tempreg &= ~BITM_AFE_LPMODECON_HFOSCPD;
1164:ad5940lib/ad5940.c ****         EnSet &= ~LPMODECTRL_HFOSCEN;
1165:ad5940lib/ad5940.c ****     }
1166:ad5940lib/ad5940.c ****     if(EnSet & LPMODECTRL_HPREFPWR)
1167:ad5940lib/ad5940.c ****     {
1168:ad5940lib/ad5940.c ****       tempreg &= ~BITM_AFE_LPMODECON_HPREFDIS;
1169:ad5940lib/ad5940.c ****       EnSet &= ~LPMODECTRL_HPREFPWR;
1170:ad5940lib/ad5940.c ****     }
1171:ad5940lib/ad5940.c ****     if(EnSet & LPMODECTRL_ALDOPWR)
1172:ad5940lib/ad5940.c ****     {
1173:ad5940lib/ad5940.c ****       tempreg &= ~BITM_AFE_LPMODECON_ALDOEN;
1174:ad5940lib/ad5940.c ****       EnSet &= ~LPMODECTRL_ALDOPWR;
1175:ad5940lib/ad5940.c ****     }
1176:ad5940lib/ad5940.c ****     tempreg |= EnSet; /* Set other bits to enable function */
1177:ad5940lib/ad5940.c ****   }
1178:ad5940lib/ad5940.c ****   /* Disable other blocks */
1179:ad5940lib/ad5940.c ****   {
1180:ad5940lib/ad5940.c ****     /* Set bits to disable HFOSC, HPREF, ALDO */
1181:ad5940lib/ad5940.c ****     if (DisSet & LPMODECTRL_HFOSCEN) {
1182:ad5940lib/ad5940.c ****         tempreg |= BITM_AFE_LPMODECON_HFOSCPD;
1183:ad5940lib/ad5940.c ****         DisSet &= ~LPMODECTRL_HFOSCEN;
1184:ad5940lib/ad5940.c ****     }
1185:ad5940lib/ad5940.c ****     if(DisSet & LPMODECTRL_HPREFPWR)
1186:ad5940lib/ad5940.c ****     {
1187:ad5940lib/ad5940.c ****       tempreg |= BITM_AFE_LPMODECON_HPREFDIS;
ARM GAS  C:\Users\root\AppData\Local\Temp\ccjNHqBU.s 			page 88


1188:ad5940lib/ad5940.c ****       DisSet &= ~LPMODECTRL_HPREFPWR;
1189:ad5940lib/ad5940.c ****     }
1190:ad5940lib/ad5940.c ****     if(DisSet & LPMODECTRL_ALDOPWR)
1191:ad5940lib/ad5940.c ****     {
1192:ad5940lib/ad5940.c ****       tempreg |= BITM_AFE_LPMODECON_ALDOEN;
1193:ad5940lib/ad5940.c ****       DisSet &= ~LPMODECTRL_ALDOPWR;
1194:ad5940lib/ad5940.c ****     }
1195:ad5940lib/ad5940.c ****     tempreg &= ~DisSet; /* Clear other bits to disable function */
1196:ad5940lib/ad5940.c ****   }
1197:ad5940lib/ad5940.c ****   AD5940_WriteReg(REG_AFE_LPMODECON, tempreg);
1198:ad5940lib/ad5940.c **** 
1199:ad5940lib/ad5940.c ****   return AD5940ERR_OK;
1200:ad5940lib/ad5940.c **** }
1201:ad5940lib/ad5940.c **** 
1202:ad5940lib/ad5940.c **** /**
1203:ad5940lib/ad5940.c ****    @brief Set AFE power mode and system bandwidth include HSDAC, Excitation-buffer, HSTIA and ADC e
1204:ad5940lib/ad5940.c ****    @param AfePwr : {AFEPWR_LP, AFEPWR_HP}
1205:ad5940lib/ad5940.c ****           Select parameters from @ref AFEPWR_Const
1206:ad5940lib/ad5940.c ****           - AFEPWR_LP: Set AFE to low power mode
1207:ad5940lib/ad5940.c ****           - AFEPWR_HP: Set AFE to High speed mode to support 200kHz.
1208:ad5940lib/ad5940.c ****    @param AfeBw : {AFEBW_AUTOSET, AFEBW_50KHZ, AFEBW_100KHZ, AFEBW_250KHZ}
1209:ad5940lib/ad5940.c ****           - AFEBW_AUTOSET: Set the bandwidth automatically based on WGFCW frequency word.
1210:ad5940lib/ad5940.c ****           - AFEBW_50KHZ: Set system bandwidth to 50kHz.
1211:ad5940lib/ad5940.c ****           - AFEBW_100KHZ: Set system bandwidth to 100kHz.
1212:ad5940lib/ad5940.c ****           - AFEBW_250KHZ: Set system bandwidth to 250kHz.
1213:ad5940lib/ad5940.c ****    @return return none.
1214:ad5940lib/ad5940.c **** */
1215:ad5940lib/ad5940.c **** void AD5940_AFEPwrBW(uint32_t AfePwr, uint32_t AfeBw)
1216:ad5940lib/ad5940.c **** {
1217:ad5940lib/ad5940.c ****   //check parameters
1218:ad5940lib/ad5940.c ****   uint32_t tempreg;
1219:ad5940lib/ad5940.c ****   tempreg = AfePwr;
1220:ad5940lib/ad5940.c ****   tempreg |= AfeBw << BITP_AFE_PMBW_SYSBW;
1221:ad5940lib/ad5940.c ****   AD5940_WriteReg(REG_AFE_PMBW, tempreg);
1222:ad5940lib/ad5940.c **** }
1223:ad5940lib/ad5940.c **** 
1224:ad5940lib/ad5940.c **** /**
1225:ad5940lib/ad5940.c ****    @brief Configure reference buffer include 1.8V/1.1V high/low power buffers.
1226:ad5940lib/ad5940.c ****    @param pBufCfg :Pointer to buffer configure structure;
1227:ad5940lib/ad5940.c ****    @return return none.
1228:ad5940lib/ad5940.c **** */
1229:ad5940lib/ad5940.c **** void AD5940_REFCfgS(AFERefCfg_Type *pBufCfg)
1230:ad5940lib/ad5940.c **** {
1231:ad5940lib/ad5940.c ****   uint32_t tempreg;
1232:ad5940lib/ad5940.c ****   
1233:ad5940lib/ad5940.c ****   /* HP Reference(bandgap) */
1234:ad5940lib/ad5940.c ****   tempreg = AD5940_ReadReg(REG_AFE_AFECON);
1235:ad5940lib/ad5940.c ****   tempreg &= ~BITM_AFE_AFECON_HPREFDIS;
1236:ad5940lib/ad5940.c ****   if(pBufCfg->HpBandgapEn == bFALSE)
1237:ad5940lib/ad5940.c ****     tempreg |= BITM_AFE_AFECON_HPREFDIS;
1238:ad5940lib/ad5940.c ****   AD5940_WriteReg(REG_AFE_AFECON, tempreg);
1239:ad5940lib/ad5940.c ****   /* Reference buffer configure */
1240:ad5940lib/ad5940.c ****   tempreg = AD5940_ReadReg(REG_AFE_BUFSENCON);
1241:ad5940lib/ad5940.c ****   if(pBufCfg->Hp1V8BuffEn == bTRUE)
1242:ad5940lib/ad5940.c ****     tempreg |= BITM_AFE_BUFSENCON_V1P8HPADCEN;
1243:ad5940lib/ad5940.c ****   if(pBufCfg->Hp1V1BuffEn == bTRUE)
1244:ad5940lib/ad5940.c ****     tempreg |= BITM_AFE_BUFSENCON_V1P1HPADCEN;
ARM GAS  C:\Users\root\AppData\Local\Temp\ccjNHqBU.s 			page 89


1245:ad5940lib/ad5940.c ****   if(pBufCfg->Lp1V8BuffEn == bTRUE)
1246:ad5940lib/ad5940.c ****     tempreg |= BITM_AFE_BUFSENCON_V1P8LPADCEN;
1247:ad5940lib/ad5940.c ****   if(pBufCfg->Lp1V1BuffEn == bTRUE)
1248:ad5940lib/ad5940.c ****     tempreg |= BITM_AFE_BUFSENCON_V1P1LPADCEN;
1249:ad5940lib/ad5940.c ****   if(pBufCfg->Hp1V8ThemBuff == bTRUE)
1250:ad5940lib/ad5940.c ****     tempreg |= BITM_AFE_BUFSENCON_V1P8THERMSTEN;
1251:ad5940lib/ad5940.c ****   if(pBufCfg->Hp1V8Ilimit == bTRUE)
1252:ad5940lib/ad5940.c ****     tempreg |= BITM_AFE_BUFSENCON_V1P8HPADCILIMITEN;
1253:ad5940lib/ad5940.c ****   if(pBufCfg->Disc1V8Cap == bTRUE)
1254:ad5940lib/ad5940.c ****     tempreg |= BITM_AFE_BUFSENCON_V1P8HPADCCHGDIS;
1255:ad5940lib/ad5940.c ****   if(pBufCfg->Disc1V1Cap == bTRUE)
1256:ad5940lib/ad5940.c ****     tempreg |= BITM_AFE_BUFSENCON_V1P1LPADCCHGDIS;
1257:ad5940lib/ad5940.c ****   AD5940_WriteReg(REG_AFE_BUFSENCON, tempreg);
1258:ad5940lib/ad5940.c **** 
1259:ad5940lib/ad5940.c ****   /* LPREFBUFCON */
1260:ad5940lib/ad5940.c ****   tempreg = 0;
1261:ad5940lib/ad5940.c ****   if(pBufCfg->LpRefBufEn == bFALSE)
1262:ad5940lib/ad5940.c ****     tempreg |= BITM_AFE_LPREFBUFCON_LPBUF2P5DIS;
1263:ad5940lib/ad5940.c ****   if(pBufCfg->LpBandgapEn == bFALSE)
1264:ad5940lib/ad5940.c ****     tempreg |= BITM_AFE_LPREFBUFCON_LPREFDIS;
1265:ad5940lib/ad5940.c ****   if(pBufCfg->LpRefBoostEn == bTRUE)
1266:ad5940lib/ad5940.c ****     tempreg |= BITM_AFE_LPREFBUFCON_BOOSTCURRENT;
1267:ad5940lib/ad5940.c ****   AD5940_WriteReg(REG_AFE_LPREFBUFCON, tempreg);
1268:ad5940lib/ad5940.c **** }
1269:ad5940lib/ad5940.c **** /**
1270:ad5940lib/ad5940.c ****  * @} End of AFE_Control_Functions
1271:ad5940lib/ad5940.c ****  * @} End of AFE_Control
1272:ad5940lib/ad5940.c ****  * */
1273:ad5940lib/ad5940.c **** 
1274:ad5940lib/ad5940.c **** /**
1275:ad5940lib/ad5940.c ****  * @defgroup High_Speed_Loop
1276:ad5940lib/ad5940.c ****  * @brief The high speed loop
1277:ad5940lib/ad5940.c ****  * @{
1278:ad5940lib/ad5940.c ****  *    @defgroup High_Speed_Loop_Functions
1279:ad5940lib/ad5940.c ****  *    @{
1280:ad5940lib/ad5940.c **** */
1281:ad5940lib/ad5940.c **** 
1282:ad5940lib/ad5940.c **** /**
