ARM GAS  C:\Users\root\AppData\Local\Temp\ccvogEgx.s 			page 1


   1              		.cpu cortex-m7
   2              		.eabi_attribute 28, 1
   3              		.eabi_attribute 20, 1
   4              		.eabi_attribute 21, 1
   5              		.eabi_attribute 23, 3
   6              		.eabi_attribute 24, 1
   7              		.eabi_attribute 25, 1
   8              		.eabi_attribute 26, 1
   9              		.eabi_attribute 30, 1
  10              		.eabi_attribute 34, 1
  11              		.eabi_attribute 18, 4
  12              		.file	"stm32h7xx_hal_rcc.c"
  13              		.text
  14              	.Ltext0:
  15              		.cfi_sections	.debug_frame
  16              		.section	.text.HAL_RCC_DeInit,"ax",%progbits
  17              		.align	1
  18              		.global	HAL_RCC_DeInit
  19              		.arch armv7e-m
  20              		.syntax unified
  21              		.thumb
  22              		.thumb_func
  23              		.fpu fpv5-d16
  25              	HAL_RCC_DeInit:
  26              	.LFB141:
  27              		.file 1 "Drivers/STM32H7xx_HAL_Driver/Src/stm32h7xx_hal_rcc.c"
   1:Drivers/STM32H7xx_HAL_Driver/Src/stm32h7xx_hal_rcc.c **** /**
   2:Drivers/STM32H7xx_HAL_Driver/Src/stm32h7xx_hal_rcc.c ****   ******************************************************************************
   3:Drivers/STM32H7xx_HAL_Driver/Src/stm32h7xx_hal_rcc.c ****   * @file    stm32h7xx_hal_rcc.c
   4:Drivers/STM32H7xx_HAL_Driver/Src/stm32h7xx_hal_rcc.c ****   * @author  MCD Application Team
   5:Drivers/STM32H7xx_HAL_Driver/Src/stm32h7xx_hal_rcc.c ****   * @brief   RCC HAL module driver.
   6:Drivers/STM32H7xx_HAL_Driver/Src/stm32h7xx_hal_rcc.c ****   *          This file provides firmware functions to manage the following
   7:Drivers/STM32H7xx_HAL_Driver/Src/stm32h7xx_hal_rcc.c ****   *          functionalities of the Reset and Clock Control (RCC) peripheral:
   8:Drivers/STM32H7xx_HAL_Driver/Src/stm32h7xx_hal_rcc.c ****   *           + Initialization and de-initialization functions
   9:Drivers/STM32H7xx_HAL_Driver/Src/stm32h7xx_hal_rcc.c ****   *           + Peripheral Control functions
  10:Drivers/STM32H7xx_HAL_Driver/Src/stm32h7xx_hal_rcc.c ****   *
  11:Drivers/STM32H7xx_HAL_Driver/Src/stm32h7xx_hal_rcc.c ****   @verbatim
  12:Drivers/STM32H7xx_HAL_Driver/Src/stm32h7xx_hal_rcc.c ****   ==============================================================================
  13:Drivers/STM32H7xx_HAL_Driver/Src/stm32h7xx_hal_rcc.c ****                       ##### RCC specific features #####
  14:Drivers/STM32H7xx_HAL_Driver/Src/stm32h7xx_hal_rcc.c ****   ==============================================================================
  15:Drivers/STM32H7xx_HAL_Driver/Src/stm32h7xx_hal_rcc.c ****     [..]
  16:Drivers/STM32H7xx_HAL_Driver/Src/stm32h7xx_hal_rcc.c ****       After reset the device is running from Internal High Speed oscillator
  17:Drivers/STM32H7xx_HAL_Driver/Src/stm32h7xx_hal_rcc.c ****       (HSI 64MHz) with Flash 0 wait state,and all peripherals are off except
  18:Drivers/STM32H7xx_HAL_Driver/Src/stm32h7xx_hal_rcc.c ****       internal SRAM, Flash, JTAG and PWR
  19:Drivers/STM32H7xx_HAL_Driver/Src/stm32h7xx_hal_rcc.c ****       (+) There is no pre-scaler on High speed (AHB) and Low speed (APB) buses;
  20:Drivers/STM32H7xx_HAL_Driver/Src/stm32h7xx_hal_rcc.c ****           all peripherals mapped on these buses are running at HSI speed.
  21:Drivers/STM32H7xx_HAL_Driver/Src/stm32h7xx_hal_rcc.c ****       (+) The clock for all peripherals is switched off, except the SRAM and FLASH.
  22:Drivers/STM32H7xx_HAL_Driver/Src/stm32h7xx_hal_rcc.c ****       (+) All GPIOs are in analogue mode , except the JTAG pins which
  23:Drivers/STM32H7xx_HAL_Driver/Src/stm32h7xx_hal_rcc.c ****           are assigned to be used for debug purpose.
  24:Drivers/STM32H7xx_HAL_Driver/Src/stm32h7xx_hal_rcc.c **** 
  25:Drivers/STM32H7xx_HAL_Driver/Src/stm32h7xx_hal_rcc.c ****     [..]
  26:Drivers/STM32H7xx_HAL_Driver/Src/stm32h7xx_hal_rcc.c ****       Once the device started from reset, the user application has to:
  27:Drivers/STM32H7xx_HAL_Driver/Src/stm32h7xx_hal_rcc.c ****       (+) Configure the clock source to be used to drive the System clock
  28:Drivers/STM32H7xx_HAL_Driver/Src/stm32h7xx_hal_rcc.c ****           (if the application needs higher frequency/performance)
  29:Drivers/STM32H7xx_HAL_Driver/Src/stm32h7xx_hal_rcc.c ****       (+) Configure the System clock frequency and Flash settings
  30:Drivers/STM32H7xx_HAL_Driver/Src/stm32h7xx_hal_rcc.c ****       (+) Configure the AHB and APB buses pre-scalers
  31:Drivers/STM32H7xx_HAL_Driver/Src/stm32h7xx_hal_rcc.c ****       (+) Enable the clock for the peripheral(s) to be used
ARM GAS  C:\Users\root\AppData\Local\Temp\ccvogEgx.s 			page 2


  32:Drivers/STM32H7xx_HAL_Driver/Src/stm32h7xx_hal_rcc.c ****       (+) Configure the clock kernel source(s) for peripherals which clocks are not
  33:Drivers/STM32H7xx_HAL_Driver/Src/stm32h7xx_hal_rcc.c ****           derived from the System clock through :RCC_D1CCIPR,RCC_D2CCIP1R,RCC_D2CCIP2R
  34:Drivers/STM32H7xx_HAL_Driver/Src/stm32h7xx_hal_rcc.c ****           and RCC_D3CCIPR registers
  35:Drivers/STM32H7xx_HAL_Driver/Src/stm32h7xx_hal_rcc.c **** 
  36:Drivers/STM32H7xx_HAL_Driver/Src/stm32h7xx_hal_rcc.c ****                       ##### RCC Limitations #####
  37:Drivers/STM32H7xx_HAL_Driver/Src/stm32h7xx_hal_rcc.c ****   ==============================================================================
  38:Drivers/STM32H7xx_HAL_Driver/Src/stm32h7xx_hal_rcc.c ****     [..]
  39:Drivers/STM32H7xx_HAL_Driver/Src/stm32h7xx_hal_rcc.c ****       A delay between an RCC peripheral clock enable and the effective peripheral
  40:Drivers/STM32H7xx_HAL_Driver/Src/stm32h7xx_hal_rcc.c ****       enabling should be taken into account in order to manage the peripheral read/write
  41:Drivers/STM32H7xx_HAL_Driver/Src/stm32h7xx_hal_rcc.c ****       from/to registers.
  42:Drivers/STM32H7xx_HAL_Driver/Src/stm32h7xx_hal_rcc.c ****       (+) This delay depends on the peripheral mapping.
  43:Drivers/STM32H7xx_HAL_Driver/Src/stm32h7xx_hal_rcc.c ****       (+) If peripheral is mapped on AHB: the delay is 2 AHB clock cycle
  44:Drivers/STM32H7xx_HAL_Driver/Src/stm32h7xx_hal_rcc.c ****           after the clock enable bit is set on the hardware register
  45:Drivers/STM32H7xx_HAL_Driver/Src/stm32h7xx_hal_rcc.c ****       (+) If peripheral is mapped on APB: the delay is 2 APB clock cycle
  46:Drivers/STM32H7xx_HAL_Driver/Src/stm32h7xx_hal_rcc.c ****           after the clock enable bit is set on the hardware register
  47:Drivers/STM32H7xx_HAL_Driver/Src/stm32h7xx_hal_rcc.c **** 
  48:Drivers/STM32H7xx_HAL_Driver/Src/stm32h7xx_hal_rcc.c ****     [..]
  49:Drivers/STM32H7xx_HAL_Driver/Src/stm32h7xx_hal_rcc.c ****       Implemented Workaround:
  50:Drivers/STM32H7xx_HAL_Driver/Src/stm32h7xx_hal_rcc.c ****       (+) For AHB & APB peripherals, a dummy read to the peripheral register has been
  51:Drivers/STM32H7xx_HAL_Driver/Src/stm32h7xx_hal_rcc.c ****           inserted in each __HAL_RCC_PPP_CLK_ENABLE() macro.
  52:Drivers/STM32H7xx_HAL_Driver/Src/stm32h7xx_hal_rcc.c **** 
  53:Drivers/STM32H7xx_HAL_Driver/Src/stm32h7xx_hal_rcc.c ****   @endverbatim
  54:Drivers/STM32H7xx_HAL_Driver/Src/stm32h7xx_hal_rcc.c ****  ******************************************************************************
  55:Drivers/STM32H7xx_HAL_Driver/Src/stm32h7xx_hal_rcc.c ****   * @attention
  56:Drivers/STM32H7xx_HAL_Driver/Src/stm32h7xx_hal_rcc.c ****   *
  57:Drivers/STM32H7xx_HAL_Driver/Src/stm32h7xx_hal_rcc.c ****   * <h2><center>&copy; COPYRIGHT(c) 2017 STMicroelectronics.
  58:Drivers/STM32H7xx_HAL_Driver/Src/stm32h7xx_hal_rcc.c ****   * All rights reserved.</center></h2>
  59:Drivers/STM32H7xx_HAL_Driver/Src/stm32h7xx_hal_rcc.c ****   *
  60:Drivers/STM32H7xx_HAL_Driver/Src/stm32h7xx_hal_rcc.c ****   * This software component is licensed by ST under BSD 3-Clause license,
  61:Drivers/STM32H7xx_HAL_Driver/Src/stm32h7xx_hal_rcc.c ****   * the "License"; You may not use this file except in compliance with the
  62:Drivers/STM32H7xx_HAL_Driver/Src/stm32h7xx_hal_rcc.c ****   * License. You may obtain a copy of the License at:
  63:Drivers/STM32H7xx_HAL_Driver/Src/stm32h7xx_hal_rcc.c ****   *                        opensource.org/licenses/BSD-3-Clause
  64:Drivers/STM32H7xx_HAL_Driver/Src/stm32h7xx_hal_rcc.c ****   *
  65:Drivers/STM32H7xx_HAL_Driver/Src/stm32h7xx_hal_rcc.c ****   ******************************************************************************
  66:Drivers/STM32H7xx_HAL_Driver/Src/stm32h7xx_hal_rcc.c ****   */
  67:Drivers/STM32H7xx_HAL_Driver/Src/stm32h7xx_hal_rcc.c **** 
  68:Drivers/STM32H7xx_HAL_Driver/Src/stm32h7xx_hal_rcc.c **** /* Includes ------------------------------------------------------------------*/
  69:Drivers/STM32H7xx_HAL_Driver/Src/stm32h7xx_hal_rcc.c **** #include "stm32h7xx_hal.h"
  70:Drivers/STM32H7xx_HAL_Driver/Src/stm32h7xx_hal_rcc.c **** 
  71:Drivers/STM32H7xx_HAL_Driver/Src/stm32h7xx_hal_rcc.c **** /** @addtogroup STM32H7xx_HAL_Driver
  72:Drivers/STM32H7xx_HAL_Driver/Src/stm32h7xx_hal_rcc.c ****   * @{
  73:Drivers/STM32H7xx_HAL_Driver/Src/stm32h7xx_hal_rcc.c ****   */
  74:Drivers/STM32H7xx_HAL_Driver/Src/stm32h7xx_hal_rcc.c **** 
  75:Drivers/STM32H7xx_HAL_Driver/Src/stm32h7xx_hal_rcc.c **** /** @defgroup RCC  RCC
  76:Drivers/STM32H7xx_HAL_Driver/Src/stm32h7xx_hal_rcc.c ****   * @brief RCC HAL module driver
  77:Drivers/STM32H7xx_HAL_Driver/Src/stm32h7xx_hal_rcc.c ****   * @{
  78:Drivers/STM32H7xx_HAL_Driver/Src/stm32h7xx_hal_rcc.c ****   */
  79:Drivers/STM32H7xx_HAL_Driver/Src/stm32h7xx_hal_rcc.c **** 
  80:Drivers/STM32H7xx_HAL_Driver/Src/stm32h7xx_hal_rcc.c **** #ifdef HAL_RCC_MODULE_ENABLED
  81:Drivers/STM32H7xx_HAL_Driver/Src/stm32h7xx_hal_rcc.c **** 
  82:Drivers/STM32H7xx_HAL_Driver/Src/stm32h7xx_hal_rcc.c **** /* Private typedef -----------------------------------------------------------*/
  83:Drivers/STM32H7xx_HAL_Driver/Src/stm32h7xx_hal_rcc.c **** /* Private define ------------------------------------------------------------*/
  84:Drivers/STM32H7xx_HAL_Driver/Src/stm32h7xx_hal_rcc.c **** /* Private macro -------------------------------------------------------------*/
  85:Drivers/STM32H7xx_HAL_Driver/Src/stm32h7xx_hal_rcc.c **** /** @defgroup RCC_Private_Macros RCC Private Macros
  86:Drivers/STM32H7xx_HAL_Driver/Src/stm32h7xx_hal_rcc.c ****   * @{
  87:Drivers/STM32H7xx_HAL_Driver/Src/stm32h7xx_hal_rcc.c ****   */
  88:Drivers/STM32H7xx_HAL_Driver/Src/stm32h7xx_hal_rcc.c **** #define MCO1_CLK_ENABLE()     __HAL_RCC_GPIOA_CLK_ENABLE()
ARM GAS  C:\Users\root\AppData\Local\Temp\ccvogEgx.s 			page 3


  89:Drivers/STM32H7xx_HAL_Driver/Src/stm32h7xx_hal_rcc.c **** #define MCO1_GPIO_PORT        GPIOA
  90:Drivers/STM32H7xx_HAL_Driver/Src/stm32h7xx_hal_rcc.c **** #define MCO1_PIN              GPIO_PIN_8
  91:Drivers/STM32H7xx_HAL_Driver/Src/stm32h7xx_hal_rcc.c **** 
  92:Drivers/STM32H7xx_HAL_Driver/Src/stm32h7xx_hal_rcc.c **** #define MCO2_CLK_ENABLE()      __HAL_RCC_GPIOC_CLK_ENABLE()
  93:Drivers/STM32H7xx_HAL_Driver/Src/stm32h7xx_hal_rcc.c **** #define MCO2_GPIO_PORT         GPIOC
  94:Drivers/STM32H7xx_HAL_Driver/Src/stm32h7xx_hal_rcc.c **** #define MCO2_PIN               GPIO_PIN_9
  95:Drivers/STM32H7xx_HAL_Driver/Src/stm32h7xx_hal_rcc.c **** 
  96:Drivers/STM32H7xx_HAL_Driver/Src/stm32h7xx_hal_rcc.c **** /**
  97:Drivers/STM32H7xx_HAL_Driver/Src/stm32h7xx_hal_rcc.c ****   * @}
  98:Drivers/STM32H7xx_HAL_Driver/Src/stm32h7xx_hal_rcc.c ****   */
  99:Drivers/STM32H7xx_HAL_Driver/Src/stm32h7xx_hal_rcc.c **** /* Private variables ---------------------------------------------------------*/
 100:Drivers/STM32H7xx_HAL_Driver/Src/stm32h7xx_hal_rcc.c **** /** @defgroup RCC_Private_Variables RCC Private Variables
 101:Drivers/STM32H7xx_HAL_Driver/Src/stm32h7xx_hal_rcc.c ****   * @{
 102:Drivers/STM32H7xx_HAL_Driver/Src/stm32h7xx_hal_rcc.c ****   */
 103:Drivers/STM32H7xx_HAL_Driver/Src/stm32h7xx_hal_rcc.c **** 
 104:Drivers/STM32H7xx_HAL_Driver/Src/stm32h7xx_hal_rcc.c **** /**
 105:Drivers/STM32H7xx_HAL_Driver/Src/stm32h7xx_hal_rcc.c ****   * @}
 106:Drivers/STM32H7xx_HAL_Driver/Src/stm32h7xx_hal_rcc.c ****   */
 107:Drivers/STM32H7xx_HAL_Driver/Src/stm32h7xx_hal_rcc.c **** /* Private function prototypes -----------------------------------------------*/
 108:Drivers/STM32H7xx_HAL_Driver/Src/stm32h7xx_hal_rcc.c **** /* Exported functions --------------------------------------------------------*/
 109:Drivers/STM32H7xx_HAL_Driver/Src/stm32h7xx_hal_rcc.c **** 
 110:Drivers/STM32H7xx_HAL_Driver/Src/stm32h7xx_hal_rcc.c **** /** @defgroup RCC_Exported_Functions RCC Exported Functions
 111:Drivers/STM32H7xx_HAL_Driver/Src/stm32h7xx_hal_rcc.c ****   * @{
 112:Drivers/STM32H7xx_HAL_Driver/Src/stm32h7xx_hal_rcc.c ****   */
 113:Drivers/STM32H7xx_HAL_Driver/Src/stm32h7xx_hal_rcc.c **** 
 114:Drivers/STM32H7xx_HAL_Driver/Src/stm32h7xx_hal_rcc.c **** /** @defgroup RCC_Exported_Functions_Group1 Initialization and de-initialization functions
 115:Drivers/STM32H7xx_HAL_Driver/Src/stm32h7xx_hal_rcc.c ****  *  @brief    Initialization and Configuration functions
 116:Drivers/STM32H7xx_HAL_Driver/Src/stm32h7xx_hal_rcc.c ****  *
 117:Drivers/STM32H7xx_HAL_Driver/Src/stm32h7xx_hal_rcc.c **** @verbatim
 118:Drivers/STM32H7xx_HAL_Driver/Src/stm32h7xx_hal_rcc.c ****  ===============================================================================
 119:Drivers/STM32H7xx_HAL_Driver/Src/stm32h7xx_hal_rcc.c ****            ##### Initialization and de-initialization functions #####
 120:Drivers/STM32H7xx_HAL_Driver/Src/stm32h7xx_hal_rcc.c ****  ===============================================================================
 121:Drivers/STM32H7xx_HAL_Driver/Src/stm32h7xx_hal_rcc.c ****     [..]
 122:Drivers/STM32H7xx_HAL_Driver/Src/stm32h7xx_hal_rcc.c ****       This section provides functions allowing to configure the internal/external oscillators
 123:Drivers/STM32H7xx_HAL_Driver/Src/stm32h7xx_hal_rcc.c ****       (HSE, HSI, LSE,CSI, LSI,HSI48, PLL, CSS and MCO) and the System buses clocks (SYSCLK, AHB3, A
 124:Drivers/STM32H7xx_HAL_Driver/Src/stm32h7xx_hal_rcc.c ****        AHB2,AHB4,APB3, APB1L, APB1H, APB2, and APB4).
 125:Drivers/STM32H7xx_HAL_Driver/Src/stm32h7xx_hal_rcc.c **** 
 126:Drivers/STM32H7xx_HAL_Driver/Src/stm32h7xx_hal_rcc.c ****     [..] Internal/external clock and PLL configuration
 127:Drivers/STM32H7xx_HAL_Driver/Src/stm32h7xx_hal_rcc.c ****          (#) HSI (high-speed internal), 64 MHz factory-trimmed RC used directly or through
 128:Drivers/STM32H7xx_HAL_Driver/Src/stm32h7xx_hal_rcc.c ****              the PLL as System clock source.
 129:Drivers/STM32H7xx_HAL_Driver/Src/stm32h7xx_hal_rcc.c ****          (#) CSI is a low-power RC oscillator which can be used directly as system clock, periphera
 130:Drivers/STM32H7xx_HAL_Driver/Src/stm32h7xx_hal_rcc.c ****              clock, or PLL input.But even with frequency calibration, is less accurate than an
 131:Drivers/STM32H7xx_HAL_Driver/Src/stm32h7xx_hal_rcc.c ****              external crystal oscillator or ceramic resonator.
 132:Drivers/STM32H7xx_HAL_Driver/Src/stm32h7xx_hal_rcc.c ****          (#) LSI (low-speed internal), 32 KHz low consumption RC used as IWDG and/or RTC
 133:Drivers/STM32H7xx_HAL_Driver/Src/stm32h7xx_hal_rcc.c ****              clock source.
 134:Drivers/STM32H7xx_HAL_Driver/Src/stm32h7xx_hal_rcc.c **** 
 135:Drivers/STM32H7xx_HAL_Driver/Src/stm32h7xx_hal_rcc.c ****          (#) HSE (high-speed external), 4 to 48 MHz crystal oscillator used directly or
 136:Drivers/STM32H7xx_HAL_Driver/Src/stm32h7xx_hal_rcc.c ****              through the PLL as System clock source. Can be used also as RTC clock source.
 137:Drivers/STM32H7xx_HAL_Driver/Src/stm32h7xx_hal_rcc.c **** 
 138:Drivers/STM32H7xx_HAL_Driver/Src/stm32h7xx_hal_rcc.c ****          (#) LSE (low-speed external), 32 KHz oscillator used as RTC clock source.
 139:Drivers/STM32H7xx_HAL_Driver/Src/stm32h7xx_hal_rcc.c **** 
 140:Drivers/STM32H7xx_HAL_Driver/Src/stm32h7xx_hal_rcc.c ****          (#) PLL , The RCC features three independent PLLs (clocked by HSI , HSE or CSI),
 141:Drivers/STM32H7xx_HAL_Driver/Src/stm32h7xx_hal_rcc.c ****              featuring three different output clocks and able  to work either in integer or Fractio
 142:Drivers/STM32H7xx_HAL_Driver/Src/stm32h7xx_hal_rcc.c ****            (++) A main PLL, PLL1, which is generally used to provide clocks to the CPU
 143:Drivers/STM32H7xx_HAL_Driver/Src/stm32h7xx_hal_rcc.c ****                 and to some peripherals.
 144:Drivers/STM32H7xx_HAL_Driver/Src/stm32h7xx_hal_rcc.c ****            (++) Two dedicated PLLs, PLL2 and PLL3, which are used to generate the kernel clock for 
 145:Drivers/STM32H7xx_HAL_Driver/Src/stm32h7xx_hal_rcc.c **** 
ARM GAS  C:\Users\root\AppData\Local\Temp\ccvogEgx.s 			page 4


 146:Drivers/STM32H7xx_HAL_Driver/Src/stm32h7xx_hal_rcc.c **** 
 147:Drivers/STM32H7xx_HAL_Driver/Src/stm32h7xx_hal_rcc.c ****          (#) CSS (Clock security system), once enabled and if a HSE clock failure occurs
 148:Drivers/STM32H7xx_HAL_Driver/Src/stm32h7xx_hal_rcc.c ****             (HSE used directly or through PLL as System clock source), the System clock
 149:Drivers/STM32H7xx_HAL_Driver/Src/stm32h7xx_hal_rcc.c ****              is automatically switched to HSI and an interrupt is generated if enabled.
 150:Drivers/STM32H7xx_HAL_Driver/Src/stm32h7xx_hal_rcc.c ****              The interrupt is linked to the Cortex-M NMI (Non-Mask-able Interrupt)
 151:Drivers/STM32H7xx_HAL_Driver/Src/stm32h7xx_hal_rcc.c ****              exception vector.
 152:Drivers/STM32H7xx_HAL_Driver/Src/stm32h7xx_hal_rcc.c **** 
 153:Drivers/STM32H7xx_HAL_Driver/Src/stm32h7xx_hal_rcc.c ****          (#) MCO1 (micro controller clock output), used to output HSI, LSE, HSE, PLL1(PLL1_Q)
 154:Drivers/STM32H7xx_HAL_Driver/Src/stm32h7xx_hal_rcc.c ****              or HSI48 clock (through a configurable pre-scaler) on PA8 pin.
 155:Drivers/STM32H7xx_HAL_Driver/Src/stm32h7xx_hal_rcc.c **** 
 156:Drivers/STM32H7xx_HAL_Driver/Src/stm32h7xx_hal_rcc.c ****          (#) MCO2 (micro controller clock output), used to output HSE, PLL2(PLL2_P), SYSCLK,
 157:Drivers/STM32H7xx_HAL_Driver/Src/stm32h7xx_hal_rcc.c ****              LSI, CSI, or PLL1(PLL1_P) clock (through a configurable pre-scaler) on PC9 pin.
 158:Drivers/STM32H7xx_HAL_Driver/Src/stm32h7xx_hal_rcc.c **** 
 159:Drivers/STM32H7xx_HAL_Driver/Src/stm32h7xx_hal_rcc.c ****     [..] System, AHB and APB buses clocks configuration
 160:Drivers/STM32H7xx_HAL_Driver/Src/stm32h7xx_hal_rcc.c ****          (#) Several clock sources can be used to drive the System clock (SYSCLK): CSI,HSI,
 161:Drivers/STM32H7xx_HAL_Driver/Src/stm32h7xx_hal_rcc.c ****              HSE and PLL.
 162:Drivers/STM32H7xx_HAL_Driver/Src/stm32h7xx_hal_rcc.c ****              The AHB clock (HCLK) is derived from System core clock through configurable
 163:Drivers/STM32H7xx_HAL_Driver/Src/stm32h7xx_hal_rcc.c ****              pre-scaler and used to clock the CPU, memory and peripherals mapped
 164:Drivers/STM32H7xx_HAL_Driver/Src/stm32h7xx_hal_rcc.c ****              on AHB and APB bus of the 3 Domains (D1, D2, D3)* through configurable pre-scalers
 165:Drivers/STM32H7xx_HAL_Driver/Src/stm32h7xx_hal_rcc.c ****              and used to clock the peripherals mapped on these buses. You can use
 166:Drivers/STM32H7xx_HAL_Driver/Src/stm32h7xx_hal_rcc.c ****              "HAL_RCC_GetSysClockFreq()" function to retrieve system clock frequency.
 167:Drivers/STM32H7xx_HAL_Driver/Src/stm32h7xx_hal_rcc.c **** 
 168:Drivers/STM32H7xx_HAL_Driver/Src/stm32h7xx_hal_rcc.c ****          -@- All the peripheral clocks are derived from the System clock (SYSCLK) except those
 169:Drivers/STM32H7xx_HAL_Driver/Src/stm32h7xx_hal_rcc.c ****              with dual clock domain where kernel source clock could be selected through
 170:Drivers/STM32H7xx_HAL_Driver/Src/stm32h7xx_hal_rcc.c ****              RCC_D1CCIPR,RCC_D2CCIP1R,RCC_D2CCIP2R and RCC_D3CCIPR registers.
 171:Drivers/STM32H7xx_HAL_Driver/Src/stm32h7xx_hal_rcc.c **** 
 172:Drivers/STM32H7xx_HAL_Driver/Src/stm32h7xx_hal_rcc.c ****      (*) : 2 Domains (CD and SRD) for stm32h7a3xx and stm32h7b3xx family lines.
 173:Drivers/STM32H7xx_HAL_Driver/Src/stm32h7xx_hal_rcc.c **** @endverbatim
 174:Drivers/STM32H7xx_HAL_Driver/Src/stm32h7xx_hal_rcc.c ****   * @{
 175:Drivers/STM32H7xx_HAL_Driver/Src/stm32h7xx_hal_rcc.c ****   */
 176:Drivers/STM32H7xx_HAL_Driver/Src/stm32h7xx_hal_rcc.c **** 
 177:Drivers/STM32H7xx_HAL_Driver/Src/stm32h7xx_hal_rcc.c **** /**
 178:Drivers/STM32H7xx_HAL_Driver/Src/stm32h7xx_hal_rcc.c ****   * @brief  Resets the RCC clock configuration to the default reset state.
 179:Drivers/STM32H7xx_HAL_Driver/Src/stm32h7xx_hal_rcc.c ****   * @note   The default reset state of the clock configuration is given below:
 180:Drivers/STM32H7xx_HAL_Driver/Src/stm32h7xx_hal_rcc.c ****   *            - HSI ON and used as system clock source
 181:Drivers/STM32H7xx_HAL_Driver/Src/stm32h7xx_hal_rcc.c ****   *            - HSE, PLL1, PLL2 and PLL3 OFF
 182:Drivers/STM32H7xx_HAL_Driver/Src/stm32h7xx_hal_rcc.c ****   *            - AHB, APB Bus pre-scaler set to 1.
 183:Drivers/STM32H7xx_HAL_Driver/Src/stm32h7xx_hal_rcc.c ****   *            - CSS, MCO1 and MCO2 OFF
 184:Drivers/STM32H7xx_HAL_Driver/Src/stm32h7xx_hal_rcc.c ****   *            - All interrupts disabled
 185:Drivers/STM32H7xx_HAL_Driver/Src/stm32h7xx_hal_rcc.c ****   * @note   This function doesn't modify the configuration of the
 186:Drivers/STM32H7xx_HAL_Driver/Src/stm32h7xx_hal_rcc.c ****   *            - Peripheral clocks
 187:Drivers/STM32H7xx_HAL_Driver/Src/stm32h7xx_hal_rcc.c ****   *            - LSI, LSE and RTC clocks
 188:Drivers/STM32H7xx_HAL_Driver/Src/stm32h7xx_hal_rcc.c ****   * @retval HAL status
 189:Drivers/STM32H7xx_HAL_Driver/Src/stm32h7xx_hal_rcc.c ****   */
 190:Drivers/STM32H7xx_HAL_Driver/Src/stm32h7xx_hal_rcc.c **** HAL_StatusTypeDef HAL_RCC_DeInit(void)
 191:Drivers/STM32H7xx_HAL_Driver/Src/stm32h7xx_hal_rcc.c **** {
  28              		.loc 1 191 1 view -0
  29              		.cfi_startproc
  30              		@ args = 0, pretend = 0, frame = 0
  31              		@ frame_needed = 0, uses_anonymous_args = 0
  32 0000 38B5     		push	{r3, r4, r5, lr}
  33              	.LCFI0:
  34              		.cfi_def_cfa_offset 16
  35              		.cfi_offset 3, -16
  36              		.cfi_offset 4, -12
  37              		.cfi_offset 5, -8
  38              		.cfi_offset 14, -4
ARM GAS  C:\Users\root\AppData\Local\Temp\ccvogEgx.s 			page 5


 192:Drivers/STM32H7xx_HAL_Driver/Src/stm32h7xx_hal_rcc.c ****   uint32_t tickstart;
  39              		.loc 1 192 3 view .LVU1
 193:Drivers/STM32H7xx_HAL_Driver/Src/stm32h7xx_hal_rcc.c **** 
 194:Drivers/STM32H7xx_HAL_Driver/Src/stm32h7xx_hal_rcc.c ****         /* Increasing the CPU frequency */
 195:Drivers/STM32H7xx_HAL_Driver/Src/stm32h7xx_hal_rcc.c ****   if(FLASH_LATENCY_DEFAULT  > __HAL_FLASH_GET_LATENCY())
  40              		.loc 1 195 3 view .LVU2
  41              		.loc 1 195 31 is_stmt 0 view .LVU3
  42 0002 684B     		ldr	r3, .L33
  43 0004 1B68     		ldr	r3, [r3]
  44 0006 03F00F03 		and	r3, r3, #15
  45              		.loc 1 195 5 view .LVU4
  46 000a 062B     		cmp	r3, #6
  47 000c 0CD8     		bhi	.L2
 196:Drivers/STM32H7xx_HAL_Driver/Src/stm32h7xx_hal_rcc.c ****   {
 197:Drivers/STM32H7xx_HAL_Driver/Src/stm32h7xx_hal_rcc.c ****     /* Program the new number of wait states to the LATENCY bits in the FLASH_ACR register */
 198:Drivers/STM32H7xx_HAL_Driver/Src/stm32h7xx_hal_rcc.c ****     __HAL_FLASH_SET_LATENCY(FLASH_LATENCY_DEFAULT);
  48              		.loc 1 198 5 is_stmt 1 view .LVU5
  49 000e 654A     		ldr	r2, .L33
  50 0010 1368     		ldr	r3, [r2]
  51 0012 23F00F03 		bic	r3, r3, #15
  52 0016 43F00703 		orr	r3, r3, #7
  53 001a 1360     		str	r3, [r2]
 199:Drivers/STM32H7xx_HAL_Driver/Src/stm32h7xx_hal_rcc.c **** 
 200:Drivers/STM32H7xx_HAL_Driver/Src/stm32h7xx_hal_rcc.c ****     /* Check that the new number of wait states is taken into account to access the Flash
 201:Drivers/STM32H7xx_HAL_Driver/Src/stm32h7xx_hal_rcc.c ****     memory by reading the FLASH_ACR register */
 202:Drivers/STM32H7xx_HAL_Driver/Src/stm32h7xx_hal_rcc.c ****     if(__HAL_FLASH_GET_LATENCY() != FLASH_LATENCY_DEFAULT)
  54              		.loc 1 202 5 view .LVU6
  55              		.loc 1 202 8 is_stmt 0 view .LVU7
  56 001c 1368     		ldr	r3, [r2]
  57 001e 03F00F03 		and	r3, r3, #15
  58              		.loc 1 202 7 view .LVU8
  59 0022 072B     		cmp	r3, #7
  60 0024 40F0BA80 		bne	.L16
  61              	.L2:
 203:Drivers/STM32H7xx_HAL_Driver/Src/stm32h7xx_hal_rcc.c ****     {
 204:Drivers/STM32H7xx_HAL_Driver/Src/stm32h7xx_hal_rcc.c ****       return HAL_ERROR;
 205:Drivers/STM32H7xx_HAL_Driver/Src/stm32h7xx_hal_rcc.c ****     }
 206:Drivers/STM32H7xx_HAL_Driver/Src/stm32h7xx_hal_rcc.c **** 
 207:Drivers/STM32H7xx_HAL_Driver/Src/stm32h7xx_hal_rcc.c ****   }
 208:Drivers/STM32H7xx_HAL_Driver/Src/stm32h7xx_hal_rcc.c **** 
 209:Drivers/STM32H7xx_HAL_Driver/Src/stm32h7xx_hal_rcc.c **** 
 210:Drivers/STM32H7xx_HAL_Driver/Src/stm32h7xx_hal_rcc.c ****   /* Get Start Tick */
 211:Drivers/STM32H7xx_HAL_Driver/Src/stm32h7xx_hal_rcc.c ****   tickstart = HAL_GetTick();
  62              		.loc 1 211 3 is_stmt 1 view .LVU9
  63              		.loc 1 211 15 is_stmt 0 view .LVU10
  64 0028 FFF7FEFF 		bl	HAL_GetTick
  65              	.LVL0:
  66 002c 0446     		mov	r4, r0
  67              	.LVL1:
 212:Drivers/STM32H7xx_HAL_Driver/Src/stm32h7xx_hal_rcc.c **** 
 213:Drivers/STM32H7xx_HAL_Driver/Src/stm32h7xx_hal_rcc.c ****   /* Set HSION bit */
 214:Drivers/STM32H7xx_HAL_Driver/Src/stm32h7xx_hal_rcc.c ****   SET_BIT(RCC->CR, RCC_CR_HSION);
  68              		.loc 1 214 3 is_stmt 1 view .LVU11
  69 002e 5E4A     		ldr	r2, .L33+4
  70 0030 1368     		ldr	r3, [r2]
  71 0032 43F00103 		orr	r3, r3, #1
  72 0036 1360     		str	r3, [r2]
ARM GAS  C:\Users\root\AppData\Local\Temp\ccvogEgx.s 			page 6


 215:Drivers/STM32H7xx_HAL_Driver/Src/stm32h7xx_hal_rcc.c **** 
 216:Drivers/STM32H7xx_HAL_Driver/Src/stm32h7xx_hal_rcc.c ****   /* Wait till HSI is ready */
 217:Drivers/STM32H7xx_HAL_Driver/Src/stm32h7xx_hal_rcc.c ****   while (READ_BIT(RCC->CR, RCC_CR_HSIRDY) == 0U)
  73              		.loc 1 217 3 view .LVU12
  74              	.LVL2:
  75              	.L4:
  76              		.loc 1 217 9 view .LVU13
  77              		.loc 1 217 10 is_stmt 0 view .LVU14
  78 0038 5B4B     		ldr	r3, .L33+4
  79 003a 1B68     		ldr	r3, [r3]
  80              		.loc 1 217 9 view .LVU15
  81 003c 13F0040F 		tst	r3, #4
  82 0040 06D1     		bne	.L26
 218:Drivers/STM32H7xx_HAL_Driver/Src/stm32h7xx_hal_rcc.c ****   {
 219:Drivers/STM32H7xx_HAL_Driver/Src/stm32h7xx_hal_rcc.c ****     if ((HAL_GetTick() - tickstart) > HSI_TIMEOUT_VALUE)
  83              		.loc 1 219 5 is_stmt 1 view .LVU16
  84              		.loc 1 219 10 is_stmt 0 view .LVU17
  85 0042 FFF7FEFF 		bl	HAL_GetTick
  86              	.LVL3:
  87              		.loc 1 219 24 view .LVU18
  88 0046 001B     		subs	r0, r0, r4
  89              		.loc 1 219 8 view .LVU19
  90 0048 0228     		cmp	r0, #2
  91 004a F5D9     		bls	.L4
 220:Drivers/STM32H7xx_HAL_Driver/Src/stm32h7xx_hal_rcc.c ****     {
 221:Drivers/STM32H7xx_HAL_Driver/Src/stm32h7xx_hal_rcc.c ****       return HAL_TIMEOUT;
  92              		.loc 1 221 14 view .LVU20
  93 004c 0324     		movs	r4, #3
  94              	.LVL4:
  95              		.loc 1 221 14 view .LVU21
  96 004e A6E0     		b	.L3
  97              	.LVL5:
  98              	.L26:
 222:Drivers/STM32H7xx_HAL_Driver/Src/stm32h7xx_hal_rcc.c ****     }
 223:Drivers/STM32H7xx_HAL_Driver/Src/stm32h7xx_hal_rcc.c ****   }
 224:Drivers/STM32H7xx_HAL_Driver/Src/stm32h7xx_hal_rcc.c **** 
 225:Drivers/STM32H7xx_HAL_Driver/Src/stm32h7xx_hal_rcc.c ****   /* Set HSITRIM[6:0] bits to the reset value */
 226:Drivers/STM32H7xx_HAL_Driver/Src/stm32h7xx_hal_rcc.c ****   SET_BIT(RCC->HSICFGR, RCC_HSICFGR_HSITRIM_6);
  99              		.loc 1 226 3 is_stmt 1 view .LVU22
 100 0050 554B     		ldr	r3, .L33+4
 101 0052 5A68     		ldr	r2, [r3, #4]
 102 0054 42F08042 		orr	r2, r2, #1073741824
 103 0058 5A60     		str	r2, [r3, #4]
 227:Drivers/STM32H7xx_HAL_Driver/Src/stm32h7xx_hal_rcc.c **** 
 228:Drivers/STM32H7xx_HAL_Driver/Src/stm32h7xx_hal_rcc.c ****   /* Reset CFGR register */
 229:Drivers/STM32H7xx_HAL_Driver/Src/stm32h7xx_hal_rcc.c ****   CLEAR_REG(RCC->CFGR);
 104              		.loc 1 229 3 view .LVU23
 105 005a 0022     		movs	r2, #0
 106 005c 1A61     		str	r2, [r3, #16]
 230:Drivers/STM32H7xx_HAL_Driver/Src/stm32h7xx_hal_rcc.c **** 
 231:Drivers/STM32H7xx_HAL_Driver/Src/stm32h7xx_hal_rcc.c ****   /* Update the SystemCoreClock and SystemD2Clock global variables */
 232:Drivers/STM32H7xx_HAL_Driver/Src/stm32h7xx_hal_rcc.c ****   SystemCoreClock = HSI_VALUE;
 107              		.loc 1 232 3 view .LVU24
 108              		.loc 1 232 19 is_stmt 0 view .LVU25
 109 005e 534B     		ldr	r3, .L33+8
 110 0060 534A     		ldr	r2, .L33+12
 111 0062 1360     		str	r3, [r2]
ARM GAS  C:\Users\root\AppData\Local\Temp\ccvogEgx.s 			page 7


 233:Drivers/STM32H7xx_HAL_Driver/Src/stm32h7xx_hal_rcc.c ****   SystemD2Clock = HSI_VALUE;
 112              		.loc 1 233 3 is_stmt 1 view .LVU26
 113              		.loc 1 233 17 is_stmt 0 view .LVU27
 114 0064 534A     		ldr	r2, .L33+16
 115 0066 1360     		str	r3, [r2]
 234:Drivers/STM32H7xx_HAL_Driver/Src/stm32h7xx_hal_rcc.c **** 
 235:Drivers/STM32H7xx_HAL_Driver/Src/stm32h7xx_hal_rcc.c ****   /* Adapt Systick interrupt period */
 236:Drivers/STM32H7xx_HAL_Driver/Src/stm32h7xx_hal_rcc.c ****   if(HAL_InitTick(uwTickPrio) != HAL_OK)
 116              		.loc 1 236 3 is_stmt 1 view .LVU28
 117              		.loc 1 236 6 is_stmt 0 view .LVU29
 118 0068 534B     		ldr	r3, .L33+20
 119 006a 1868     		ldr	r0, [r3]
 120 006c FFF7FEFF 		bl	HAL_InitTick
 121              	.LVL6:
 122              		.loc 1 236 5 view .LVU30
 123 0070 0446     		mov	r4, r0
 124              	.LVL7:
 125              		.loc 1 236 5 view .LVU31
 126 0072 08B1     		cbz	r0, .L27
 237:Drivers/STM32H7xx_HAL_Driver/Src/stm32h7xx_hal_rcc.c ****   {
 238:Drivers/STM32H7xx_HAL_Driver/Src/stm32h7xx_hal_rcc.c ****     return HAL_ERROR;
 127              		.loc 1 238 12 view .LVU32
 128 0074 0124     		movs	r4, #1
 129 0076 92E0     		b	.L3
 130              	.L27:
 239:Drivers/STM32H7xx_HAL_Driver/Src/stm32h7xx_hal_rcc.c ****   }
 240:Drivers/STM32H7xx_HAL_Driver/Src/stm32h7xx_hal_rcc.c **** 
 241:Drivers/STM32H7xx_HAL_Driver/Src/stm32h7xx_hal_rcc.c ****   /* Get Start Tick */
 242:Drivers/STM32H7xx_HAL_Driver/Src/stm32h7xx_hal_rcc.c ****   tickstart = HAL_GetTick();
 131              		.loc 1 242 3 is_stmt 1 view .LVU33
 132              		.loc 1 242 15 is_stmt 0 view .LVU34
 133 0078 FFF7FEFF 		bl	HAL_GetTick
 134              	.LVL8:
 135 007c 0546     		mov	r5, r0
 136              	.LVL9:
 243:Drivers/STM32H7xx_HAL_Driver/Src/stm32h7xx_hal_rcc.c **** 
 244:Drivers/STM32H7xx_HAL_Driver/Src/stm32h7xx_hal_rcc.c ****   /* Wait till clock switch is ready */
 245:Drivers/STM32H7xx_HAL_Driver/Src/stm32h7xx_hal_rcc.c ****   while (READ_BIT(RCC->CFGR, RCC_CFGR_SWS) != 0U)
 137              		.loc 1 245 3 is_stmt 1 view .LVU35
 138              	.L6:
 139              		.loc 1 245 9 view .LVU36
 140              		.loc 1 245 10 is_stmt 0 view .LVU37
 141 007e 4A4B     		ldr	r3, .L33+4
 142 0080 1B69     		ldr	r3, [r3, #16]
 143              		.loc 1 245 9 view .LVU38
 144 0082 13F0380F 		tst	r3, #56
 145 0086 08D0     		beq	.L28
 246:Drivers/STM32H7xx_HAL_Driver/Src/stm32h7xx_hal_rcc.c ****   {
 247:Drivers/STM32H7xx_HAL_Driver/Src/stm32h7xx_hal_rcc.c ****     if ((HAL_GetTick() - tickstart) > CLOCKSWITCH_TIMEOUT_VALUE)
 146              		.loc 1 247 5 is_stmt 1 view .LVU39
 147              		.loc 1 247 10 is_stmt 0 view .LVU40
 148 0088 FFF7FEFF 		bl	HAL_GetTick
 149              	.LVL10:
 150              		.loc 1 247 24 view .LVU41
 151 008c 401B     		subs	r0, r0, r5
 152              		.loc 1 247 8 view .LVU42
 153 008e 41F28833 		movw	r3, #5000
ARM GAS  C:\Users\root\AppData\Local\Temp\ccvogEgx.s 			page 8


 154 0092 9842     		cmp	r0, r3
 155 0094 F3D9     		bls	.L6
 248:Drivers/STM32H7xx_HAL_Driver/Src/stm32h7xx_hal_rcc.c ****     {
 249:Drivers/STM32H7xx_HAL_Driver/Src/stm32h7xx_hal_rcc.c ****       return HAL_TIMEOUT;
 156              		.loc 1 249 14 view .LVU43
 157 0096 0324     		movs	r4, #3
 158 0098 81E0     		b	.L3
 159              	.L28:
 250:Drivers/STM32H7xx_HAL_Driver/Src/stm32h7xx_hal_rcc.c ****     }
 251:Drivers/STM32H7xx_HAL_Driver/Src/stm32h7xx_hal_rcc.c ****   }
 252:Drivers/STM32H7xx_HAL_Driver/Src/stm32h7xx_hal_rcc.c **** 
 253:Drivers/STM32H7xx_HAL_Driver/Src/stm32h7xx_hal_rcc.c ****   /* Get Start Tick */
 254:Drivers/STM32H7xx_HAL_Driver/Src/stm32h7xx_hal_rcc.c ****   tickstart = HAL_GetTick();
 160              		.loc 1 254 3 is_stmt 1 view .LVU44
 161              		.loc 1 254 15 is_stmt 0 view .LVU45
 162 009a FFF7FEFF 		bl	HAL_GetTick
 163              	.LVL11:
 164 009e 0546     		mov	r5, r0
 165              	.LVL12:
 255:Drivers/STM32H7xx_HAL_Driver/Src/stm32h7xx_hal_rcc.c **** 
 256:Drivers/STM32H7xx_HAL_Driver/Src/stm32h7xx_hal_rcc.c ****   /* Reset CSION, CSIKERON, HSEON, HSI48ON, HSECSSON, HSIDIV bits */
 257:Drivers/STM32H7xx_HAL_Driver/Src/stm32h7xx_hal_rcc.c ****   CLEAR_BIT(RCC->CR, RCC_CR_HSEON | RCC_CR_HSIKERON| RCC_CR_HSIDIV| RCC_CR_HSIDIVF| RCC_CR_CSION | 
 166              		.loc 1 257 3 is_stmt 1 view .LVU46
 167 00a0 414A     		ldr	r2, .L33+4
 168 00a2 1168     		ldr	r1, [r2]
 169 00a4 454B     		ldr	r3, .L33+24
 170 00a6 0B40     		ands	r3, r3, r1
 171 00a8 1360     		str	r3, [r2]
 258:Drivers/STM32H7xx_HAL_Driver/Src/stm32h7xx_hal_rcc.c ****   | RCC_CR_HSI48ON | RCC_CR_CSSHSEON);
 259:Drivers/STM32H7xx_HAL_Driver/Src/stm32h7xx_hal_rcc.c **** 
 260:Drivers/STM32H7xx_HAL_Driver/Src/stm32h7xx_hal_rcc.c ****   /* Wait till HSE is disabled */
 261:Drivers/STM32H7xx_HAL_Driver/Src/stm32h7xx_hal_rcc.c ****   while (READ_BIT(RCC->CR, RCC_CR_HSERDY) != 0U)
 172              		.loc 1 261 3 view .LVU47
 173              	.LVL13:
 174              	.L8:
 175              		.loc 1 261 9 view .LVU48
 176              		.loc 1 261 10 is_stmt 0 view .LVU49
 177 00aa 3F4B     		ldr	r3, .L33+4
 178 00ac 1B68     		ldr	r3, [r3]
 179              		.loc 1 261 9 view .LVU50
 180 00ae 13F4003F 		tst	r3, #131072
 181 00b2 06D0     		beq	.L29
 262:Drivers/STM32H7xx_HAL_Driver/Src/stm32h7xx_hal_rcc.c ****   {
 263:Drivers/STM32H7xx_HAL_Driver/Src/stm32h7xx_hal_rcc.c ****     if ((HAL_GetTick() - tickstart) > HSE_TIMEOUT_VALUE)
 182              		.loc 1 263 5 is_stmt 1 view .LVU51
 183              		.loc 1 263 10 is_stmt 0 view .LVU52
 184 00b4 FFF7FEFF 		bl	HAL_GetTick
 185              	.LVL14:
 186              		.loc 1 263 24 view .LVU53
 187 00b8 401B     		subs	r0, r0, r5
 188              		.loc 1 263 8 view .LVU54
 189 00ba 6428     		cmp	r0, #100
 190 00bc F5D9     		bls	.L8
 264:Drivers/STM32H7xx_HAL_Driver/Src/stm32h7xx_hal_rcc.c ****     {
 265:Drivers/STM32H7xx_HAL_Driver/Src/stm32h7xx_hal_rcc.c ****       return HAL_TIMEOUT;
 191              		.loc 1 265 14 view .LVU55
 192 00be 0324     		movs	r4, #3
ARM GAS  C:\Users\root\AppData\Local\Temp\ccvogEgx.s 			page 9


 193 00c0 6DE0     		b	.L3
 194              	.L29:
 266:Drivers/STM32H7xx_HAL_Driver/Src/stm32h7xx_hal_rcc.c ****     }
 267:Drivers/STM32H7xx_HAL_Driver/Src/stm32h7xx_hal_rcc.c ****   }
 268:Drivers/STM32H7xx_HAL_Driver/Src/stm32h7xx_hal_rcc.c **** 
 269:Drivers/STM32H7xx_HAL_Driver/Src/stm32h7xx_hal_rcc.c ****   /* Get Start Tick */
 270:Drivers/STM32H7xx_HAL_Driver/Src/stm32h7xx_hal_rcc.c ****   tickstart = HAL_GetTick();
 195              		.loc 1 270 3 is_stmt 1 view .LVU56
 196              		.loc 1 270 15 is_stmt 0 view .LVU57
 197 00c2 FFF7FEFF 		bl	HAL_GetTick
 198              	.LVL15:
 199 00c6 0546     		mov	r5, r0
 200              	.LVL16:
 271:Drivers/STM32H7xx_HAL_Driver/Src/stm32h7xx_hal_rcc.c **** 
 272:Drivers/STM32H7xx_HAL_Driver/Src/stm32h7xx_hal_rcc.c ****   /* Clear PLLON bit */
 273:Drivers/STM32H7xx_HAL_Driver/Src/stm32h7xx_hal_rcc.c ****   CLEAR_BIT(RCC->CR, RCC_CR_PLL1ON);
 201              		.loc 1 273 3 is_stmt 1 view .LVU58
 202 00c8 374A     		ldr	r2, .L33+4
 203 00ca 1368     		ldr	r3, [r2]
 204 00cc 23F08073 		bic	r3, r3, #16777216
 205 00d0 1360     		str	r3, [r2]
 274:Drivers/STM32H7xx_HAL_Driver/Src/stm32h7xx_hal_rcc.c **** 
 275:Drivers/STM32H7xx_HAL_Driver/Src/stm32h7xx_hal_rcc.c ****   /* Wait till PLL is disabled */
 276:Drivers/STM32H7xx_HAL_Driver/Src/stm32h7xx_hal_rcc.c ****   while (READ_BIT(RCC->CR, RCC_CR_PLL1RDY) != 0U)
 206              		.loc 1 276 3 view .LVU59
 207              	.LVL17:
 208              	.L10:
 209              		.loc 1 276 9 view .LVU60
 210              		.loc 1 276 10 is_stmt 0 view .LVU61
 211 00d2 354B     		ldr	r3, .L33+4
 212 00d4 1B68     		ldr	r3, [r3]
 213              		.loc 1 276 9 view .LVU62
 214 00d6 13F0007F 		tst	r3, #33554432
 215 00da 06D0     		beq	.L30
 277:Drivers/STM32H7xx_HAL_Driver/Src/stm32h7xx_hal_rcc.c ****   {
 278:Drivers/STM32H7xx_HAL_Driver/Src/stm32h7xx_hal_rcc.c ****     if ((HAL_GetTick() - tickstart) > PLL_TIMEOUT_VALUE)
 216              		.loc 1 278 5 is_stmt 1 view .LVU63
 217              		.loc 1 278 10 is_stmt 0 view .LVU64
 218 00dc FFF7FEFF 		bl	HAL_GetTick
 219              	.LVL18:
 220              		.loc 1 278 24 view .LVU65
 221 00e0 401B     		subs	r0, r0, r5
 222              		.loc 1 278 8 view .LVU66
 223 00e2 0228     		cmp	r0, #2
 224 00e4 F5D9     		bls	.L10
 279:Drivers/STM32H7xx_HAL_Driver/Src/stm32h7xx_hal_rcc.c ****     {
 280:Drivers/STM32H7xx_HAL_Driver/Src/stm32h7xx_hal_rcc.c ****       return HAL_TIMEOUT;
 225              		.loc 1 280 14 view .LVU67
 226 00e6 0324     		movs	r4, #3
 227 00e8 59E0     		b	.L3
 228              	.L30:
 281:Drivers/STM32H7xx_HAL_Driver/Src/stm32h7xx_hal_rcc.c ****     }
 282:Drivers/STM32H7xx_HAL_Driver/Src/stm32h7xx_hal_rcc.c ****   }
 283:Drivers/STM32H7xx_HAL_Driver/Src/stm32h7xx_hal_rcc.c **** 
 284:Drivers/STM32H7xx_HAL_Driver/Src/stm32h7xx_hal_rcc.c ****   /* Get Start Tick */
 285:Drivers/STM32H7xx_HAL_Driver/Src/stm32h7xx_hal_rcc.c ****   tickstart = HAL_GetTick();
 229              		.loc 1 285 3 is_stmt 1 view .LVU68
ARM GAS  C:\Users\root\AppData\Local\Temp\ccvogEgx.s 			page 10


 230              		.loc 1 285 15 is_stmt 0 view .LVU69
 231 00ea FFF7FEFF 		bl	HAL_GetTick
 232              	.LVL19:
 233 00ee 0546     		mov	r5, r0
 234              	.LVL20:
 286:Drivers/STM32H7xx_HAL_Driver/Src/stm32h7xx_hal_rcc.c **** 
 287:Drivers/STM32H7xx_HAL_Driver/Src/stm32h7xx_hal_rcc.c ****   /* Reset PLL2ON bit */
 288:Drivers/STM32H7xx_HAL_Driver/Src/stm32h7xx_hal_rcc.c ****   CLEAR_BIT(RCC->CR, RCC_CR_PLL2ON);
 235              		.loc 1 288 3 is_stmt 1 view .LVU70
 236 00f0 2D4A     		ldr	r2, .L33+4
 237 00f2 1368     		ldr	r3, [r2]
 238 00f4 23F08063 		bic	r3, r3, #67108864
 239 00f8 1360     		str	r3, [r2]
 289:Drivers/STM32H7xx_HAL_Driver/Src/stm32h7xx_hal_rcc.c **** 
 290:Drivers/STM32H7xx_HAL_Driver/Src/stm32h7xx_hal_rcc.c ****   /* Wait till PLL2 is disabled */
 291:Drivers/STM32H7xx_HAL_Driver/Src/stm32h7xx_hal_rcc.c ****   while (READ_BIT(RCC->CR, RCC_CR_PLL2RDY) != 0U)
 240              		.loc 1 291 3 view .LVU71
 241              	.LVL21:
 242              	.L12:
 243              		.loc 1 291 9 view .LVU72
 244              		.loc 1 291 10 is_stmt 0 view .LVU73
 245 00fa 2B4B     		ldr	r3, .L33+4
 246 00fc 1B68     		ldr	r3, [r3]
 247              		.loc 1 291 9 view .LVU74
 248 00fe 13F0006F 		tst	r3, #134217728
 249 0102 06D0     		beq	.L31
 292:Drivers/STM32H7xx_HAL_Driver/Src/stm32h7xx_hal_rcc.c ****   {
 293:Drivers/STM32H7xx_HAL_Driver/Src/stm32h7xx_hal_rcc.c ****     if ((HAL_GetTick() - tickstart) > PLL_TIMEOUT_VALUE)
 250              		.loc 1 293 5 is_stmt 1 view .LVU75
 251              		.loc 1 293 10 is_stmt 0 view .LVU76
 252 0104 FFF7FEFF 		bl	HAL_GetTick
 253              	.LVL22:
 254              		.loc 1 293 24 view .LVU77
 255 0108 401B     		subs	r0, r0, r5
 256              		.loc 1 293 8 view .LVU78
 257 010a 0228     		cmp	r0, #2
 258 010c F5D9     		bls	.L12
 294:Drivers/STM32H7xx_HAL_Driver/Src/stm32h7xx_hal_rcc.c ****     {
 295:Drivers/STM32H7xx_HAL_Driver/Src/stm32h7xx_hal_rcc.c ****       return HAL_TIMEOUT;
 259              		.loc 1 295 14 view .LVU79
 260 010e 0324     		movs	r4, #3
 261 0110 45E0     		b	.L3
 262              	.L31:
 296:Drivers/STM32H7xx_HAL_Driver/Src/stm32h7xx_hal_rcc.c ****     }
 297:Drivers/STM32H7xx_HAL_Driver/Src/stm32h7xx_hal_rcc.c ****   }
 298:Drivers/STM32H7xx_HAL_Driver/Src/stm32h7xx_hal_rcc.c **** 
 299:Drivers/STM32H7xx_HAL_Driver/Src/stm32h7xx_hal_rcc.c ****   /* Get Start Tick */
 300:Drivers/STM32H7xx_HAL_Driver/Src/stm32h7xx_hal_rcc.c ****   tickstart = HAL_GetTick();
 263              		.loc 1 300 3 is_stmt 1 view .LVU80
 264              		.loc 1 300 15 is_stmt 0 view .LVU81
 265 0112 FFF7FEFF 		bl	HAL_GetTick
 266              	.LVL23:
 267 0116 0546     		mov	r5, r0
 268              	.LVL24:
 301:Drivers/STM32H7xx_HAL_Driver/Src/stm32h7xx_hal_rcc.c **** 
 302:Drivers/STM32H7xx_HAL_Driver/Src/stm32h7xx_hal_rcc.c ****   /* Reset PLL3 bit */
 303:Drivers/STM32H7xx_HAL_Driver/Src/stm32h7xx_hal_rcc.c ****   CLEAR_BIT(RCC->CR, RCC_CR_PLL3ON);
ARM GAS  C:\Users\root\AppData\Local\Temp\ccvogEgx.s 			page 11


 269              		.loc 1 303 3 is_stmt 1 view .LVU82
 270 0118 234A     		ldr	r2, .L33+4
 271 011a 1368     		ldr	r3, [r2]
 272 011c 23F08053 		bic	r3, r3, #268435456
 273 0120 1360     		str	r3, [r2]
 304:Drivers/STM32H7xx_HAL_Driver/Src/stm32h7xx_hal_rcc.c **** 
 305:Drivers/STM32H7xx_HAL_Driver/Src/stm32h7xx_hal_rcc.c ****   /* Wait till PLL3 is disabled */
 306:Drivers/STM32H7xx_HAL_Driver/Src/stm32h7xx_hal_rcc.c ****   while (READ_BIT(RCC->CR, RCC_CR_PLL3RDY) != 0U)
 274              		.loc 1 306 3 view .LVU83
 275              	.LVL25:
 276              	.L14:
 277              		.loc 1 306 9 view .LVU84
 278              		.loc 1 306 10 is_stmt 0 view .LVU85
 279 0122 214B     		ldr	r3, .L33+4
 280 0124 1B68     		ldr	r3, [r3]
 281              		.loc 1 306 9 view .LVU86
 282 0126 13F0005F 		tst	r3, #536870912
 283 012a 06D0     		beq	.L32
 307:Drivers/STM32H7xx_HAL_Driver/Src/stm32h7xx_hal_rcc.c ****   {
 308:Drivers/STM32H7xx_HAL_Driver/Src/stm32h7xx_hal_rcc.c ****     if ((HAL_GetTick() - tickstart) > PLL_TIMEOUT_VALUE)
 284              		.loc 1 308 5 is_stmt 1 view .LVU87
 285              		.loc 1 308 10 is_stmt 0 view .LVU88
 286 012c FFF7FEFF 		bl	HAL_GetTick
 287              	.LVL26:
 288              		.loc 1 308 24 view .LVU89
 289 0130 401B     		subs	r0, r0, r5
 290              		.loc 1 308 8 view .LVU90
 291 0132 0228     		cmp	r0, #2
 292 0134 F5D9     		bls	.L14
 309:Drivers/STM32H7xx_HAL_Driver/Src/stm32h7xx_hal_rcc.c ****     {
 310:Drivers/STM32H7xx_HAL_Driver/Src/stm32h7xx_hal_rcc.c ****       return HAL_TIMEOUT;
 293              		.loc 1 310 14 view .LVU91
 294 0136 0324     		movs	r4, #3
 295 0138 31E0     		b	.L3
 296              	.L32:
 311:Drivers/STM32H7xx_HAL_Driver/Src/stm32h7xx_hal_rcc.c ****     }
 312:Drivers/STM32H7xx_HAL_Driver/Src/stm32h7xx_hal_rcc.c ****   }
 313:Drivers/STM32H7xx_HAL_Driver/Src/stm32h7xx_hal_rcc.c **** 
 314:Drivers/STM32H7xx_HAL_Driver/Src/stm32h7xx_hal_rcc.c **** #if defined(RCC_D1CFGR_HPRE)
 315:Drivers/STM32H7xx_HAL_Driver/Src/stm32h7xx_hal_rcc.c ****   /* Reset D1CFGR register */
 316:Drivers/STM32H7xx_HAL_Driver/Src/stm32h7xx_hal_rcc.c ****   CLEAR_REG(RCC->D1CFGR);
 297              		.loc 1 316 3 is_stmt 1 view .LVU92
 298 013a 1B4B     		ldr	r3, .L33+4
 299 013c 0022     		movs	r2, #0
 300 013e 9A61     		str	r2, [r3, #24]
 317:Drivers/STM32H7xx_HAL_Driver/Src/stm32h7xx_hal_rcc.c **** 
 318:Drivers/STM32H7xx_HAL_Driver/Src/stm32h7xx_hal_rcc.c ****   /* Reset D2CFGR register */
 319:Drivers/STM32H7xx_HAL_Driver/Src/stm32h7xx_hal_rcc.c ****   CLEAR_REG(RCC->D2CFGR);
 301              		.loc 1 319 3 view .LVU93
 302 0140 DA61     		str	r2, [r3, #28]
 320:Drivers/STM32H7xx_HAL_Driver/Src/stm32h7xx_hal_rcc.c **** 
 321:Drivers/STM32H7xx_HAL_Driver/Src/stm32h7xx_hal_rcc.c ****   /* Reset D3CFGR register */
 322:Drivers/STM32H7xx_HAL_Driver/Src/stm32h7xx_hal_rcc.c ****   CLEAR_REG(RCC->D3CFGR);
 303              		.loc 1 322 3 view .LVU94
 304 0142 1A62     		str	r2, [r3, #32]
 323:Drivers/STM32H7xx_HAL_Driver/Src/stm32h7xx_hal_rcc.c **** #else
 324:Drivers/STM32H7xx_HAL_Driver/Src/stm32h7xx_hal_rcc.c ****   /* Reset CDCFGR1 register */
ARM GAS  C:\Users\root\AppData\Local\Temp\ccvogEgx.s 			page 12


 325:Drivers/STM32H7xx_HAL_Driver/Src/stm32h7xx_hal_rcc.c ****   CLEAR_REG(RCC->CDCFGR1);
 326:Drivers/STM32H7xx_HAL_Driver/Src/stm32h7xx_hal_rcc.c **** 
 327:Drivers/STM32H7xx_HAL_Driver/Src/stm32h7xx_hal_rcc.c ****   /* Reset CDCFGR2 register */
 328:Drivers/STM32H7xx_HAL_Driver/Src/stm32h7xx_hal_rcc.c ****   CLEAR_REG(RCC->CDCFGR2);
 329:Drivers/STM32H7xx_HAL_Driver/Src/stm32h7xx_hal_rcc.c **** 
 330:Drivers/STM32H7xx_HAL_Driver/Src/stm32h7xx_hal_rcc.c ****   /* Reset SRDCFGR register */
 331:Drivers/STM32H7xx_HAL_Driver/Src/stm32h7xx_hal_rcc.c ****   CLEAR_REG(RCC->SRDCFGR);
 332:Drivers/STM32H7xx_HAL_Driver/Src/stm32h7xx_hal_rcc.c **** #endif
 333:Drivers/STM32H7xx_HAL_Driver/Src/stm32h7xx_hal_rcc.c **** 
 334:Drivers/STM32H7xx_HAL_Driver/Src/stm32h7xx_hal_rcc.c ****   /* Reset PLLCKSELR register to default value */
 335:Drivers/STM32H7xx_HAL_Driver/Src/stm32h7xx_hal_rcc.c ****   RCC->PLLCKSELR= RCC_PLLCKSELR_DIVM1_5|RCC_PLLCKSELR_DIVM2_5|RCC_PLLCKSELR_DIVM3_5;
 305              		.loc 1 335 3 view .LVU95
 306              		.loc 1 335 17 is_stmt 0 view .LVU96
 307 0144 1E49     		ldr	r1, .L33+28
 308 0146 9962     		str	r1, [r3, #40]
 336:Drivers/STM32H7xx_HAL_Driver/Src/stm32h7xx_hal_rcc.c **** 
 337:Drivers/STM32H7xx_HAL_Driver/Src/stm32h7xx_hal_rcc.c ****   /* Reset PLLCFGR register to default value */
 338:Drivers/STM32H7xx_HAL_Driver/Src/stm32h7xx_hal_rcc.c ****   WRITE_REG(RCC->PLLCFGR, 0x01FF0000U);
 309              		.loc 1 338 3 is_stmt 1 view .LVU97
 310 0148 1E49     		ldr	r1, .L33+32
 311 014a D962     		str	r1, [r3, #44]
 339:Drivers/STM32H7xx_HAL_Driver/Src/stm32h7xx_hal_rcc.c **** 
 340:Drivers/STM32H7xx_HAL_Driver/Src/stm32h7xx_hal_rcc.c ****   /* Reset PLL1DIVR register to default value */
 341:Drivers/STM32H7xx_HAL_Driver/Src/stm32h7xx_hal_rcc.c ****   WRITE_REG(RCC->PLL1DIVR,0x01010280U);
 312              		.loc 1 341 3 view .LVU98
 313 014c 1E49     		ldr	r1, .L33+36
 314 014e 1963     		str	r1, [r3, #48]
 342:Drivers/STM32H7xx_HAL_Driver/Src/stm32h7xx_hal_rcc.c **** 
 343:Drivers/STM32H7xx_HAL_Driver/Src/stm32h7xx_hal_rcc.c ****   /* Reset PLL1FRACR register */
 344:Drivers/STM32H7xx_HAL_Driver/Src/stm32h7xx_hal_rcc.c ****   CLEAR_REG(RCC->PLL1FRACR);
 315              		.loc 1 344 3 view .LVU99
 316 0150 5A63     		str	r2, [r3, #52]
 345:Drivers/STM32H7xx_HAL_Driver/Src/stm32h7xx_hal_rcc.c **** 
 346:Drivers/STM32H7xx_HAL_Driver/Src/stm32h7xx_hal_rcc.c ****   /* Reset PLL2DIVR register to default value */
 347:Drivers/STM32H7xx_HAL_Driver/Src/stm32h7xx_hal_rcc.c ****   WRITE_REG(RCC->PLL2DIVR,0x01010280U);
 317              		.loc 1 347 3 view .LVU100
 318 0152 9963     		str	r1, [r3, #56]
 348:Drivers/STM32H7xx_HAL_Driver/Src/stm32h7xx_hal_rcc.c **** 
 349:Drivers/STM32H7xx_HAL_Driver/Src/stm32h7xx_hal_rcc.c ****   /* Reset PLL2FRACR register */
 350:Drivers/STM32H7xx_HAL_Driver/Src/stm32h7xx_hal_rcc.c ****   CLEAR_REG(RCC->PLL2FRACR);
 319              		.loc 1 350 3 view .LVU101
 320 0154 DA63     		str	r2, [r3, #60]
 351:Drivers/STM32H7xx_HAL_Driver/Src/stm32h7xx_hal_rcc.c **** 
 352:Drivers/STM32H7xx_HAL_Driver/Src/stm32h7xx_hal_rcc.c ****   /* Reset PLL3DIVR register to default value */
 353:Drivers/STM32H7xx_HAL_Driver/Src/stm32h7xx_hal_rcc.c ****   WRITE_REG(RCC->PLL3DIVR,0x01010280U);
 321              		.loc 1 353 3 view .LVU102
 322 0156 1964     		str	r1, [r3, #64]
 354:Drivers/STM32H7xx_HAL_Driver/Src/stm32h7xx_hal_rcc.c **** 
 355:Drivers/STM32H7xx_HAL_Driver/Src/stm32h7xx_hal_rcc.c ****   /* Reset PLL3FRACR register */
 356:Drivers/STM32H7xx_HAL_Driver/Src/stm32h7xx_hal_rcc.c ****   CLEAR_REG(RCC->PLL3FRACR);
 323              		.loc 1 356 3 view .LVU103
 324 0158 5A64     		str	r2, [r3, #68]
 357:Drivers/STM32H7xx_HAL_Driver/Src/stm32h7xx_hal_rcc.c **** 
 358:Drivers/STM32H7xx_HAL_Driver/Src/stm32h7xx_hal_rcc.c ****   /* Reset HSEBYP bit */
 359:Drivers/STM32H7xx_HAL_Driver/Src/stm32h7xx_hal_rcc.c ****   CLEAR_BIT(RCC->CR, RCC_CR_HSEBYP);
 325              		.loc 1 359 3 view .LVU104
 326 015a 1968     		ldr	r1, [r3]
ARM GAS  C:\Users\root\AppData\Local\Temp\ccvogEgx.s 			page 13


 327 015c 21F48021 		bic	r1, r1, #262144
 328 0160 1960     		str	r1, [r3]
 360:Drivers/STM32H7xx_HAL_Driver/Src/stm32h7xx_hal_rcc.c **** 
 361:Drivers/STM32H7xx_HAL_Driver/Src/stm32h7xx_hal_rcc.c ****   /* Disable all interrupts */
 362:Drivers/STM32H7xx_HAL_Driver/Src/stm32h7xx_hal_rcc.c ****   CLEAR_REG(RCC->CIER);
 329              		.loc 1 362 3 view .LVU105
 330 0162 1A66     		str	r2, [r3, #96]
 363:Drivers/STM32H7xx_HAL_Driver/Src/stm32h7xx_hal_rcc.c **** 
 364:Drivers/STM32H7xx_HAL_Driver/Src/stm32h7xx_hal_rcc.c ****   /* Clear all interrupts flags */
 365:Drivers/STM32H7xx_HAL_Driver/Src/stm32h7xx_hal_rcc.c ****   WRITE_REG(RCC->CICR,0xFFFFFFFFU);
 331              		.loc 1 365 3 view .LVU106
 332 0164 4FF0FF32 		mov	r2, #-1
 333 0168 9A66     		str	r2, [r3, #104]
 366:Drivers/STM32H7xx_HAL_Driver/Src/stm32h7xx_hal_rcc.c **** 
 367:Drivers/STM32H7xx_HAL_Driver/Src/stm32h7xx_hal_rcc.c ****   /* Reset all RSR flags */
 368:Drivers/STM32H7xx_HAL_Driver/Src/stm32h7xx_hal_rcc.c ****   SET_BIT(RCC->RSR, RCC_RSR_RMVF);
 334              		.loc 1 368 3 view .LVU107
 335 016a D3F8D020 		ldr	r2, [r3, #208]
 336 016e 42F48032 		orr	r2, r2, #65536
 337 0172 C3F8D020 		str	r2, [r3, #208]
 369:Drivers/STM32H7xx_HAL_Driver/Src/stm32h7xx_hal_rcc.c **** 
 370:Drivers/STM32H7xx_HAL_Driver/Src/stm32h7xx_hal_rcc.c ****       /* Decreasing the number of wait states because of lower CPU frequency */
 371:Drivers/STM32H7xx_HAL_Driver/Src/stm32h7xx_hal_rcc.c ****   if(FLASH_LATENCY_DEFAULT  < __HAL_FLASH_GET_LATENCY())
 338              		.loc 1 371 3 view .LVU108
 339              		.loc 1 371 31 is_stmt 0 view .LVU109
 340 0176 0B4B     		ldr	r3, .L33
 341 0178 1B68     		ldr	r3, [r3]
 342              		.loc 1 371 5 view .LVU110
 343 017a 13F0080F 		tst	r3, #8
 344 017e 0ED0     		beq	.L3
 372:Drivers/STM32H7xx_HAL_Driver/Src/stm32h7xx_hal_rcc.c ****   {
 373:Drivers/STM32H7xx_HAL_Driver/Src/stm32h7xx_hal_rcc.c ****     /* Program the new number of wait states to the LATENCY bits in the FLASH_ACR register */
 374:Drivers/STM32H7xx_HAL_Driver/Src/stm32h7xx_hal_rcc.c ****     __HAL_FLASH_SET_LATENCY(FLASH_LATENCY_DEFAULT);
 345              		.loc 1 374 5 is_stmt 1 view .LVU111
 346 0180 084A     		ldr	r2, .L33
 347 0182 1368     		ldr	r3, [r2]
 348 0184 23F00F03 		bic	r3, r3, #15
 349 0188 43F00703 		orr	r3, r3, #7
 350 018c 1360     		str	r3, [r2]
 375:Drivers/STM32H7xx_HAL_Driver/Src/stm32h7xx_hal_rcc.c **** 
 376:Drivers/STM32H7xx_HAL_Driver/Src/stm32h7xx_hal_rcc.c ****     /* Check that the new number of wait states is taken into account to access the Flash
 377:Drivers/STM32H7xx_HAL_Driver/Src/stm32h7xx_hal_rcc.c ****     memory by reading the FLASH_ACR register */
 378:Drivers/STM32H7xx_HAL_Driver/Src/stm32h7xx_hal_rcc.c ****     if(__HAL_FLASH_GET_LATENCY() != FLASH_LATENCY_DEFAULT)
 351              		.loc 1 378 5 view .LVU112
 352              		.loc 1 378 8 is_stmt 0 view .LVU113
 353 018e 1368     		ldr	r3, [r2]
 354 0190 03F00F03 		and	r3, r3, #15
 355              		.loc 1 378 7 view .LVU114
 356 0194 072B     		cmp	r3, #7
 357 0196 02D0     		beq	.L3
 379:Drivers/STM32H7xx_HAL_Driver/Src/stm32h7xx_hal_rcc.c ****     {
 380:Drivers/STM32H7xx_HAL_Driver/Src/stm32h7xx_hal_rcc.c ****       return HAL_ERROR;
 358              		.loc 1 380 14 view .LVU115
 359 0198 0124     		movs	r4, #1
 360 019a 00E0     		b	.L3
 361              	.LVL27:
 362              	.L16:
ARM GAS  C:\Users\root\AppData\Local\Temp\ccvogEgx.s 			page 14


 204:Drivers/STM32H7xx_HAL_Driver/Src/stm32h7xx_hal_rcc.c ****     }
 363              		.loc 1 204 14 view .LVU116
 364 019c 0124     		movs	r4, #1
 365              	.L3:
 381:Drivers/STM32H7xx_HAL_Driver/Src/stm32h7xx_hal_rcc.c ****     }
 382:Drivers/STM32H7xx_HAL_Driver/Src/stm32h7xx_hal_rcc.c **** 
 383:Drivers/STM32H7xx_HAL_Driver/Src/stm32h7xx_hal_rcc.c **** }
 384:Drivers/STM32H7xx_HAL_Driver/Src/stm32h7xx_hal_rcc.c **** 
 385:Drivers/STM32H7xx_HAL_Driver/Src/stm32h7xx_hal_rcc.c ****   return HAL_OK;
 386:Drivers/STM32H7xx_HAL_Driver/Src/stm32h7xx_hal_rcc.c **** }
 366              		.loc 1 386 1 view .LVU117
 367 019e 2046     		mov	r0, r4
 368 01a0 38BD     		pop	{r3, r4, r5, pc}
 369              	.L34:
 370 01a2 00BF     		.align	2
 371              	.L33:
 372 01a4 00200052 		.word	1375739904
 373 01a8 00440258 		.word	1476543488
 374 01ac 0090D003 		.word	64000000
 375 01b0 00000000 		.word	SystemCoreClock
 376 01b4 00000000 		.word	SystemD2Clock
 377 01b8 00000000 		.word	uwTickPrio
 378 01bc 45EDF6FF 		.word	-594619
 379 01c0 00020202 		.word	33686016
 380 01c4 0000FF01 		.word	33488896
 381 01c8 80020101 		.word	16843392
 382              		.cfi_endproc
 383              	.LFE141:
 385              		.section	.text.HAL_RCC_OscConfig,"ax",%progbits
 386              		.align	1
 387              		.weak	HAL_RCC_OscConfig
 388              		.syntax unified
 389              		.thumb
 390              		.thumb_func
 391              		.fpu fpv5-d16
 393              	HAL_RCC_OscConfig:
 394              	.LVL28:
 395              	.LFB142:
 387:Drivers/STM32H7xx_HAL_Driver/Src/stm32h7xx_hal_rcc.c **** 
 388:Drivers/STM32H7xx_HAL_Driver/Src/stm32h7xx_hal_rcc.c **** /**
 389:Drivers/STM32H7xx_HAL_Driver/Src/stm32h7xx_hal_rcc.c ****   * @brief  Initializes the RCC Oscillators according to the specified parameters in the
 390:Drivers/STM32H7xx_HAL_Driver/Src/stm32h7xx_hal_rcc.c ****   *         RCC_OscInitTypeDef.
 391:Drivers/STM32H7xx_HAL_Driver/Src/stm32h7xx_hal_rcc.c ****   * @param  RCC_OscInitStruct: pointer to an RCC_OscInitTypeDef structure that
 392:Drivers/STM32H7xx_HAL_Driver/Src/stm32h7xx_hal_rcc.c ****   *         contains the configuration information for the RCC Oscillators.
 393:Drivers/STM32H7xx_HAL_Driver/Src/stm32h7xx_hal_rcc.c ****   * @note   The PLL is not disabled when used as system clock.
 394:Drivers/STM32H7xx_HAL_Driver/Src/stm32h7xx_hal_rcc.c ****   * @note   Transitions LSE Bypass to LSE On and LSE On to LSE Bypass are not
 395:Drivers/STM32H7xx_HAL_Driver/Src/stm32h7xx_hal_rcc.c ****   *         supported by this function. User should request a transition to LSE Off
 396:Drivers/STM32H7xx_HAL_Driver/Src/stm32h7xx_hal_rcc.c ****   *         first and then LSE On or LSE Bypass.
 397:Drivers/STM32H7xx_HAL_Driver/Src/stm32h7xx_hal_rcc.c ****   * @note   Transition HSE Bypass to HSE On and HSE On to HSE Bypass are not
 398:Drivers/STM32H7xx_HAL_Driver/Src/stm32h7xx_hal_rcc.c ****   *         supported by this function. User should request a transition to HSE Off
 399:Drivers/STM32H7xx_HAL_Driver/Src/stm32h7xx_hal_rcc.c ****   *         first and then HSE On or HSE Bypass.
 400:Drivers/STM32H7xx_HAL_Driver/Src/stm32h7xx_hal_rcc.c ****   * @retval HAL status
 401:Drivers/STM32H7xx_HAL_Driver/Src/stm32h7xx_hal_rcc.c ****   */
 402:Drivers/STM32H7xx_HAL_Driver/Src/stm32h7xx_hal_rcc.c **** __weak HAL_StatusTypeDef HAL_RCC_OscConfig(RCC_OscInitTypeDef  *RCC_OscInitStruct)
 403:Drivers/STM32H7xx_HAL_Driver/Src/stm32h7xx_hal_rcc.c **** {
 396              		.loc 1 403 1 is_stmt 1 view -0
 397              		.cfi_startproc
ARM GAS  C:\Users\root\AppData\Local\Temp\ccvogEgx.s 			page 15


 398              		@ args = 0, pretend = 0, frame = 0
 399              		@ frame_needed = 0, uses_anonymous_args = 0
 404:Drivers/STM32H7xx_HAL_Driver/Src/stm32h7xx_hal_rcc.c ****   uint32_t tickstart;
 400              		.loc 1 404 3 view .LVU119
 405:Drivers/STM32H7xx_HAL_Driver/Src/stm32h7xx_hal_rcc.c ****   uint32_t temp1_pllckcfg, temp2_pllckcfg;
 401              		.loc 1 405 3 view .LVU120
 406:Drivers/STM32H7xx_HAL_Driver/Src/stm32h7xx_hal_rcc.c **** 
 407:Drivers/STM32H7xx_HAL_Driver/Src/stm32h7xx_hal_rcc.c ****     /* Check Null pointer */
 408:Drivers/STM32H7xx_HAL_Driver/Src/stm32h7xx_hal_rcc.c ****   if(RCC_OscInitStruct == NULL)
 402              		.loc 1 408 3 view .LVU121
 403              		.loc 1 408 5 is_stmt 0 view .LVU122
 404 0000 0028     		cmp	r0, #0
 405 0002 00F00483 		beq	.L107
 403:Drivers/STM32H7xx_HAL_Driver/Src/stm32h7xx_hal_rcc.c ****   uint32_t tickstart;
 406              		.loc 1 403 1 view .LVU123
 407 0006 38B5     		push	{r3, r4, r5, lr}
 408              	.LCFI1:
 409              		.cfi_def_cfa_offset 16
 410              		.cfi_offset 3, -16
 411              		.cfi_offset 4, -12
 412              		.cfi_offset 5, -8
 413              		.cfi_offset 14, -4
 414 0008 0446     		mov	r4, r0
 409:Drivers/STM32H7xx_HAL_Driver/Src/stm32h7xx_hal_rcc.c ****   {
 410:Drivers/STM32H7xx_HAL_Driver/Src/stm32h7xx_hal_rcc.c ****     return HAL_ERROR;
 411:Drivers/STM32H7xx_HAL_Driver/Src/stm32h7xx_hal_rcc.c ****   }
 412:Drivers/STM32H7xx_HAL_Driver/Src/stm32h7xx_hal_rcc.c **** 
 413:Drivers/STM32H7xx_HAL_Driver/Src/stm32h7xx_hal_rcc.c ****   /* Check the parameters */
 414:Drivers/STM32H7xx_HAL_Driver/Src/stm32h7xx_hal_rcc.c ****   assert_param(IS_RCC_OSCILLATORTYPE(RCC_OscInitStruct->OscillatorType));
 415              		.loc 1 414 3 is_stmt 1 view .LVU124
 415:Drivers/STM32H7xx_HAL_Driver/Src/stm32h7xx_hal_rcc.c ****   /*------------------------------- HSE Configuration ------------------------*/
 416:Drivers/STM32H7xx_HAL_Driver/Src/stm32h7xx_hal_rcc.c ****   if(((RCC_OscInitStruct->OscillatorType) & RCC_OSCILLATORTYPE_HSE) == RCC_OSCILLATORTYPE_HSE)
 416              		.loc 1 416 3 view .LVU125
 417              		.loc 1 416 25 is_stmt 0 view .LVU126
 418 000a 0368     		ldr	r3, [r0]
 419              		.loc 1 416 5 view .LVU127
 420 000c 13F0010F 		tst	r3, #1
 421 0010 25D0     		beq	.L37
 422              	.LBB2:
 417:Drivers/STM32H7xx_HAL_Driver/Src/stm32h7xx_hal_rcc.c ****   {
 418:Drivers/STM32H7xx_HAL_Driver/Src/stm32h7xx_hal_rcc.c ****     /* Check the parameters */
 419:Drivers/STM32H7xx_HAL_Driver/Src/stm32h7xx_hal_rcc.c ****     assert_param(IS_RCC_HSE(RCC_OscInitStruct->HSEState));
 423              		.loc 1 419 5 is_stmt 1 view .LVU128
 420:Drivers/STM32H7xx_HAL_Driver/Src/stm32h7xx_hal_rcc.c **** 
 421:Drivers/STM32H7xx_HAL_Driver/Src/stm32h7xx_hal_rcc.c ****     const uint32_t temp_sysclksrc = __HAL_RCC_GET_SYSCLK_SOURCE();
 424              		.loc 1 421 5 view .LVU129
 425              		.loc 1 421 37 is_stmt 0 view .LVU130
 426 0012 AE4A     		ldr	r2, .L159
 427 0014 1369     		ldr	r3, [r2, #16]
 428              		.loc 1 421 20 view .LVU131
 429 0016 03F03803 		and	r3, r3, #56
 430              	.LVL29:
 422:Drivers/STM32H7xx_HAL_Driver/Src/stm32h7xx_hal_rcc.c ****     const uint32_t temp_pllckselr = RCC->PLLCKSELR;
 431              		.loc 1 422 5 is_stmt 1 view .LVU132
 432              		.loc 1 422 20 is_stmt 0 view .LVU133
 433 001a 926A     		ldr	r2, [r2, #40]
 434              	.LVL30:
ARM GAS  C:\Users\root\AppData\Local\Temp\ccvogEgx.s 			page 16


 423:Drivers/STM32H7xx_HAL_Driver/Src/stm32h7xx_hal_rcc.c ****     /* When the HSE is used as system clock or clock source for PLL in these cases HSE will not dis
 424:Drivers/STM32H7xx_HAL_Driver/Src/stm32h7xx_hal_rcc.c ****     if((temp_sysclksrc == RCC_CFGR_SWS_HSE) || ((temp_sysclksrc == RCC_CFGR_SWS_PLL1) && ((temp_pll
 435              		.loc 1 424 5 is_stmt 1 view .LVU134
 436              		.loc 1 424 7 is_stmt 0 view .LVU135
 437 001c 102B     		cmp	r3, #16
 438 001e 15D0     		beq	.L38
 439              		.loc 1 424 45 discriminator 1 view .LVU136
 440 0020 182B     		cmp	r3, #24
 441 0022 0FD0     		beq	.L139
 442              	.LVL31:
 443              	.L39:
 425:Drivers/STM32H7xx_HAL_Driver/Src/stm32h7xx_hal_rcc.c ****     {
 426:Drivers/STM32H7xx_HAL_Driver/Src/stm32h7xx_hal_rcc.c ****       if((__HAL_RCC_GET_FLAG(RCC_FLAG_HSERDY) != 0U) && (RCC_OscInitStruct->HSEState == RCC_HSE_OFF
 427:Drivers/STM32H7xx_HAL_Driver/Src/stm32h7xx_hal_rcc.c ****       {
 428:Drivers/STM32H7xx_HAL_Driver/Src/stm32h7xx_hal_rcc.c ****         return HAL_ERROR;
 429:Drivers/STM32H7xx_HAL_Driver/Src/stm32h7xx_hal_rcc.c ****       }
 430:Drivers/STM32H7xx_HAL_Driver/Src/stm32h7xx_hal_rcc.c ****     }
 431:Drivers/STM32H7xx_HAL_Driver/Src/stm32h7xx_hal_rcc.c ****     else
 432:Drivers/STM32H7xx_HAL_Driver/Src/stm32h7xx_hal_rcc.c ****     {
 433:Drivers/STM32H7xx_HAL_Driver/Src/stm32h7xx_hal_rcc.c ****       /* Set the new HSE configuration ---------------------------------------*/
 434:Drivers/STM32H7xx_HAL_Driver/Src/stm32h7xx_hal_rcc.c ****       __HAL_RCC_HSE_CONFIG(RCC_OscInitStruct->HSEState);
 444              		.loc 1 434 7 is_stmt 1 view .LVU137
 445              		.loc 1 434 7 view .LVU138
 446 0024 6368     		ldr	r3, [r4, #4]
 447              	.LVL32:
 448              		.loc 1 434 7 is_stmt 0 view .LVU139
 449 0026 B3F5803F 		cmp	r3, #65536
 450 002a 3FD0     		beq	.L140
 451              		.loc 1 434 7 is_stmt 1 discriminator 2 view .LVU140
 452 002c 002B     		cmp	r3, #0
 453 002e 53D1     		bne	.L42
 454              		.loc 1 434 7 discriminator 4 view .LVU141
 455 0030 A64B     		ldr	r3, .L159
 456 0032 1A68     		ldr	r2, [r3]
 457 0034 22F48032 		bic	r2, r2, #65536
 458 0038 1A60     		str	r2, [r3]
 459              		.loc 1 434 7 discriminator 4 view .LVU142
 460 003a 1A68     		ldr	r2, [r3]
 461 003c 22F48022 		bic	r2, r2, #262144
 462 0040 1A60     		str	r2, [r3]
 463 0042 38E0     		b	.L41
 464              	.LVL33:
 465              	.L139:
 424:Drivers/STM32H7xx_HAL_Driver/Src/stm32h7xx_hal_rcc.c ****     {
 466              		.loc 1 424 107 is_stmt 0 discriminator 2 view .LVU143
 467 0044 02F00302 		and	r2, r2, #3
 468              	.LVL34:
 424:Drivers/STM32H7xx_HAL_Driver/Src/stm32h7xx_hal_rcc.c ****     {
 469              		.loc 1 424 87 discriminator 2 view .LVU144
 470 0048 022A     		cmp	r2, #2
 471 004a EBD1     		bne	.L39
 472              	.L38:
 426:Drivers/STM32H7xx_HAL_Driver/Src/stm32h7xx_hal_rcc.c ****       {
 473              		.loc 1 426 7 is_stmt 1 view .LVU145
 426:Drivers/STM32H7xx_HAL_Driver/Src/stm32h7xx_hal_rcc.c ****       {
 474              		.loc 1 426 11 is_stmt 0 view .LVU146
 475 004c 9F4B     		ldr	r3, .L159
ARM GAS  C:\Users\root\AppData\Local\Temp\ccvogEgx.s 			page 17


 476              	.LVL35:
 426:Drivers/STM32H7xx_HAL_Driver/Src/stm32h7xx_hal_rcc.c ****       {
 477              		.loc 1 426 11 view .LVU147
 478 004e 1B68     		ldr	r3, [r3]
 426:Drivers/STM32H7xx_HAL_Driver/Src/stm32h7xx_hal_rcc.c ****       {
 479              		.loc 1 426 9 view .LVU148
 480 0050 13F4003F 		tst	r3, #131072
 481 0054 03D0     		beq	.L37
 426:Drivers/STM32H7xx_HAL_Driver/Src/stm32h7xx_hal_rcc.c ****       {
 482              		.loc 1 426 75 discriminator 1 view .LVU149
 483 0056 6368     		ldr	r3, [r4, #4]
 426:Drivers/STM32H7xx_HAL_Driver/Src/stm32h7xx_hal_rcc.c ****       {
 484              		.loc 1 426 54 discriminator 1 view .LVU150
 485 0058 002B     		cmp	r3, #0
 486 005a 00F0DA82 		beq	.L141
 487              	.LVL36:
 488              	.L37:
 426:Drivers/STM32H7xx_HAL_Driver/Src/stm32h7xx_hal_rcc.c ****       {
 489              		.loc 1 426 54 discriminator 1 view .LVU151
 490              	.LBE2:
 435:Drivers/STM32H7xx_HAL_Driver/Src/stm32h7xx_hal_rcc.c **** 
 436:Drivers/STM32H7xx_HAL_Driver/Src/stm32h7xx_hal_rcc.c ****       /* Check the HSE State */
 437:Drivers/STM32H7xx_HAL_Driver/Src/stm32h7xx_hal_rcc.c ****       if(RCC_OscInitStruct->HSEState != RCC_HSE_OFF)
 438:Drivers/STM32H7xx_HAL_Driver/Src/stm32h7xx_hal_rcc.c ****       {
 439:Drivers/STM32H7xx_HAL_Driver/Src/stm32h7xx_hal_rcc.c ****         /* Get Start Tick*/
 440:Drivers/STM32H7xx_HAL_Driver/Src/stm32h7xx_hal_rcc.c ****         tickstart = HAL_GetTick();
 441:Drivers/STM32H7xx_HAL_Driver/Src/stm32h7xx_hal_rcc.c **** 
 442:Drivers/STM32H7xx_HAL_Driver/Src/stm32h7xx_hal_rcc.c ****         /* Wait till HSE is ready */
 443:Drivers/STM32H7xx_HAL_Driver/Src/stm32h7xx_hal_rcc.c ****         while(__HAL_RCC_GET_FLAG(RCC_FLAG_HSERDY) == 0U)
 444:Drivers/STM32H7xx_HAL_Driver/Src/stm32h7xx_hal_rcc.c ****         {
 445:Drivers/STM32H7xx_HAL_Driver/Src/stm32h7xx_hal_rcc.c ****           if((uint32_t) (HAL_GetTick() - tickstart ) > HSE_TIMEOUT_VALUE)
 446:Drivers/STM32H7xx_HAL_Driver/Src/stm32h7xx_hal_rcc.c ****           {
 447:Drivers/STM32H7xx_HAL_Driver/Src/stm32h7xx_hal_rcc.c ****             return HAL_TIMEOUT;
 448:Drivers/STM32H7xx_HAL_Driver/Src/stm32h7xx_hal_rcc.c ****           }
 449:Drivers/STM32H7xx_HAL_Driver/Src/stm32h7xx_hal_rcc.c ****         }
 450:Drivers/STM32H7xx_HAL_Driver/Src/stm32h7xx_hal_rcc.c ****       }
 451:Drivers/STM32H7xx_HAL_Driver/Src/stm32h7xx_hal_rcc.c ****       else
 452:Drivers/STM32H7xx_HAL_Driver/Src/stm32h7xx_hal_rcc.c ****       {
 453:Drivers/STM32H7xx_HAL_Driver/Src/stm32h7xx_hal_rcc.c ****         /* Get Start Tick*/
 454:Drivers/STM32H7xx_HAL_Driver/Src/stm32h7xx_hal_rcc.c ****         tickstart = HAL_GetTick();
 455:Drivers/STM32H7xx_HAL_Driver/Src/stm32h7xx_hal_rcc.c **** 
 456:Drivers/STM32H7xx_HAL_Driver/Src/stm32h7xx_hal_rcc.c ****         /* Wait till HSE is disabled */
 457:Drivers/STM32H7xx_HAL_Driver/Src/stm32h7xx_hal_rcc.c ****         while(__HAL_RCC_GET_FLAG(RCC_FLAG_HSERDY) != 0U)
 458:Drivers/STM32H7xx_HAL_Driver/Src/stm32h7xx_hal_rcc.c ****         {
 459:Drivers/STM32H7xx_HAL_Driver/Src/stm32h7xx_hal_rcc.c ****           if((uint32_t) (HAL_GetTick() - tickstart ) > HSE_TIMEOUT_VALUE)
 460:Drivers/STM32H7xx_HAL_Driver/Src/stm32h7xx_hal_rcc.c ****           {
 461:Drivers/STM32H7xx_HAL_Driver/Src/stm32h7xx_hal_rcc.c ****             return HAL_TIMEOUT;
 462:Drivers/STM32H7xx_HAL_Driver/Src/stm32h7xx_hal_rcc.c ****           }
 463:Drivers/STM32H7xx_HAL_Driver/Src/stm32h7xx_hal_rcc.c ****         }
 464:Drivers/STM32H7xx_HAL_Driver/Src/stm32h7xx_hal_rcc.c ****       }
 465:Drivers/STM32H7xx_HAL_Driver/Src/stm32h7xx_hal_rcc.c ****     }
 466:Drivers/STM32H7xx_HAL_Driver/Src/stm32h7xx_hal_rcc.c ****   }
 467:Drivers/STM32H7xx_HAL_Driver/Src/stm32h7xx_hal_rcc.c ****   /*----------------------------- HSI Configuration --------------------------*/
 468:Drivers/STM32H7xx_HAL_Driver/Src/stm32h7xx_hal_rcc.c ****   if(((RCC_OscInitStruct->OscillatorType) & RCC_OSCILLATORTYPE_HSI) == RCC_OSCILLATORTYPE_HSI)
 491              		.loc 1 468 3 is_stmt 1 view .LVU152
 492              		.loc 1 468 25 is_stmt 0 view .LVU153
 493 005e 2368     		ldr	r3, [r4]
ARM GAS  C:\Users\root\AppData\Local\Temp\ccvogEgx.s 			page 18


 494              		.loc 1 468 5 view .LVU154
 495 0060 13F0020F 		tst	r3, #2
 496 0064 00F08B80 		beq	.L49
 497              	.LBB3:
 469:Drivers/STM32H7xx_HAL_Driver/Src/stm32h7xx_hal_rcc.c ****   {
 470:Drivers/STM32H7xx_HAL_Driver/Src/stm32h7xx_hal_rcc.c ****     /* Check the parameters */
 471:Drivers/STM32H7xx_HAL_Driver/Src/stm32h7xx_hal_rcc.c ****     assert_param(IS_RCC_HSI(RCC_OscInitStruct->HSIState));
 498              		.loc 1 471 5 is_stmt 1 view .LVU155
 472:Drivers/STM32H7xx_HAL_Driver/Src/stm32h7xx_hal_rcc.c ****     assert_param(IS_RCC_HSICALIBRATION_VALUE(RCC_OscInitStruct->HSICalibrationValue));
 499              		.loc 1 472 5 view .LVU156
 473:Drivers/STM32H7xx_HAL_Driver/Src/stm32h7xx_hal_rcc.c **** 
 474:Drivers/STM32H7xx_HAL_Driver/Src/stm32h7xx_hal_rcc.c ****     /* When the HSI is used as system clock it will not be disabled */
 475:Drivers/STM32H7xx_HAL_Driver/Src/stm32h7xx_hal_rcc.c ****     const uint32_t temp_sysclksrc = __HAL_RCC_GET_SYSCLK_SOURCE();
 500              		.loc 1 475 5 view .LVU157
 501              		.loc 1 475 37 is_stmt 0 view .LVU158
 502 0068 984A     		ldr	r2, .L159
 503 006a 1369     		ldr	r3, [r2, #16]
 504              	.LVL37:
 476:Drivers/STM32H7xx_HAL_Driver/Src/stm32h7xx_hal_rcc.c ****     const uint32_t temp_pllckselr = RCC->PLLCKSELR;
 505              		.loc 1 476 5 is_stmt 1 view .LVU159
 506              		.loc 1 476 20 is_stmt 0 view .LVU160
 507 006c 926A     		ldr	r2, [r2, #40]
 508              	.LVL38:
 477:Drivers/STM32H7xx_HAL_Driver/Src/stm32h7xx_hal_rcc.c ****     if((temp_sysclksrc == RCC_CFGR_SWS_HSI) || ((temp_sysclksrc == RCC_CFGR_SWS_PLL1) && ((temp_pll
 509              		.loc 1 477 5 is_stmt 1 view .LVU161
 510              		.loc 1 477 7 is_stmt 0 view .LVU162
 511 006e 13F03803 		ands	r3, r3, #56
 512              	.LVL39:
 513              		.loc 1 477 7 view .LVU163
 514 0072 5AD0     		beq	.L50
 515              		.loc 1 477 45 discriminator 1 view .LVU164
 516 0074 182B     		cmp	r3, #24
 517 0076 55D0     		beq	.L142
 518              	.L51:
 478:Drivers/STM32H7xx_HAL_Driver/Src/stm32h7xx_hal_rcc.c ****     {
 479:Drivers/STM32H7xx_HAL_Driver/Src/stm32h7xx_hal_rcc.c ****       /* When HSI is used as system clock it will not be disabled */
 480:Drivers/STM32H7xx_HAL_Driver/Src/stm32h7xx_hal_rcc.c ****       if((__HAL_RCC_GET_FLAG(RCC_FLAG_HSIRDY) != 0U) && (RCC_OscInitStruct->HSIState == RCC_HSI_OFF
 481:Drivers/STM32H7xx_HAL_Driver/Src/stm32h7xx_hal_rcc.c ****       {
 482:Drivers/STM32H7xx_HAL_Driver/Src/stm32h7xx_hal_rcc.c ****         return HAL_ERROR;
 483:Drivers/STM32H7xx_HAL_Driver/Src/stm32h7xx_hal_rcc.c ****       }
 484:Drivers/STM32H7xx_HAL_Driver/Src/stm32h7xx_hal_rcc.c ****       /* Otherwise, just the calibration is allowed */
 485:Drivers/STM32H7xx_HAL_Driver/Src/stm32h7xx_hal_rcc.c ****       else
 486:Drivers/STM32H7xx_HAL_Driver/Src/stm32h7xx_hal_rcc.c ****       {
 487:Drivers/STM32H7xx_HAL_Driver/Src/stm32h7xx_hal_rcc.c ****         /* Adjusts the Internal High Speed oscillator (HSI) calibration value.*/
 488:Drivers/STM32H7xx_HAL_Driver/Src/stm32h7xx_hal_rcc.c ****         __HAL_RCC_HSI_CALIBRATIONVALUE_ADJUST(RCC_OscInitStruct->HSICalibrationValue);
 489:Drivers/STM32H7xx_HAL_Driver/Src/stm32h7xx_hal_rcc.c ****       }
 490:Drivers/STM32H7xx_HAL_Driver/Src/stm32h7xx_hal_rcc.c ****     }
 491:Drivers/STM32H7xx_HAL_Driver/Src/stm32h7xx_hal_rcc.c **** 
 492:Drivers/STM32H7xx_HAL_Driver/Src/stm32h7xx_hal_rcc.c ****     else
 493:Drivers/STM32H7xx_HAL_Driver/Src/stm32h7xx_hal_rcc.c ****     {
 494:Drivers/STM32H7xx_HAL_Driver/Src/stm32h7xx_hal_rcc.c ****       /* Check the HSI State */
 495:Drivers/STM32H7xx_HAL_Driver/Src/stm32h7xx_hal_rcc.c ****       if((RCC_OscInitStruct->HSIState)!= RCC_HSI_OFF)
 519              		.loc 1 495 7 is_stmt 1 view .LVU165
 520              		.loc 1 495 28 is_stmt 0 view .LVU166
 521 0078 E368     		ldr	r3, [r4, #12]
 522              	.LVL40:
 523              		.loc 1 495 9 view .LVU167
ARM GAS  C:\Users\root\AppData\Local\Temp\ccvogEgx.s 			page 19


 524 007a 002B     		cmp	r3, #0
 525 007c 00F0C880 		beq	.L55
 496:Drivers/STM32H7xx_HAL_Driver/Src/stm32h7xx_hal_rcc.c ****       {
 497:Drivers/STM32H7xx_HAL_Driver/Src/stm32h7xx_hal_rcc.c ****      /* Enable the Internal High Speed oscillator (HSI, HSIDIV2,HSIDIV4, or HSIDIV8) */
 498:Drivers/STM32H7xx_HAL_Driver/Src/stm32h7xx_hal_rcc.c ****         __HAL_RCC_HSI_CONFIG(RCC_OscInitStruct->HSIState);
 526              		.loc 1 498 9 is_stmt 1 view .LVU168
 527 0080 9249     		ldr	r1, .L159
 528 0082 0A68     		ldr	r2, [r1]
 529              	.LVL41:
 530              		.loc 1 498 9 is_stmt 0 view .LVU169
 531 0084 22F01902 		bic	r2, r2, #25
 532 0088 1343     		orrs	r3, r3, r2
 533 008a 0B60     		str	r3, [r1]
 499:Drivers/STM32H7xx_HAL_Driver/Src/stm32h7xx_hal_rcc.c **** 
 500:Drivers/STM32H7xx_HAL_Driver/Src/stm32h7xx_hal_rcc.c ****         /* Get Start Tick*/
 501:Drivers/STM32H7xx_HAL_Driver/Src/stm32h7xx_hal_rcc.c ****         tickstart = HAL_GetTick();
 534              		.loc 1 501 9 is_stmt 1 view .LVU170
 535              		.loc 1 501 21 is_stmt 0 view .LVU171
 536 008c FFF7FEFF 		bl	HAL_GetTick
 537              	.LVL42:
 538 0090 0546     		mov	r5, r0
 539              	.LVL43:
 502:Drivers/STM32H7xx_HAL_Driver/Src/stm32h7xx_hal_rcc.c **** 
 503:Drivers/STM32H7xx_HAL_Driver/Src/stm32h7xx_hal_rcc.c ****         /* Wait till HSI is ready */
 504:Drivers/STM32H7xx_HAL_Driver/Src/stm32h7xx_hal_rcc.c ****         while(__HAL_RCC_GET_FLAG(RCC_FLAG_HSIRDY) == 0U)
 540              		.loc 1 504 9 is_stmt 1 view .LVU172
 541              	.L56:
 542              		.loc 1 504 14 view .LVU173
 543              		.loc 1 504 15 is_stmt 0 view .LVU174
 544 0092 8E4B     		ldr	r3, .L159
 545 0094 1B68     		ldr	r3, [r3]
 546              		.loc 1 504 14 view .LVU175
 547 0096 13F0040F 		tst	r3, #4
 548 009a 40F09780 		bne	.L143
 505:Drivers/STM32H7xx_HAL_Driver/Src/stm32h7xx_hal_rcc.c ****         {
 506:Drivers/STM32H7xx_HAL_Driver/Src/stm32h7xx_hal_rcc.c ****           if((HAL_GetTick() - tickstart ) > HSI_TIMEOUT_VALUE)
 549              		.loc 1 506 11 is_stmt 1 view .LVU176
 550              		.loc 1 506 15 is_stmt 0 view .LVU177
 551 009e FFF7FEFF 		bl	HAL_GetTick
 552              	.LVL44:
 553              		.loc 1 506 29 view .LVU178
 554 00a2 401B     		subs	r0, r0, r5
 555              		.loc 1 506 13 view .LVU179
 556 00a4 0228     		cmp	r0, #2
 557 00a6 F4D9     		bls	.L56
 507:Drivers/STM32H7xx_HAL_Driver/Src/stm32h7xx_hal_rcc.c ****           {
 508:Drivers/STM32H7xx_HAL_Driver/Src/stm32h7xx_hal_rcc.c ****             return HAL_TIMEOUT;
 558              		.loc 1 508 20 view .LVU180
 559 00a8 0320     		movs	r0, #3
 560 00aa B9E2     		b	.L36
 561              	.LVL45:
 562              	.L140:
 563              		.loc 1 508 20 view .LVU181
 564              	.LBE3:
 565              	.LBB4:
 434:Drivers/STM32H7xx_HAL_Driver/Src/stm32h7xx_hal_rcc.c **** 
 566              		.loc 1 434 7 is_stmt 1 discriminator 1 view .LVU182
ARM GAS  C:\Users\root\AppData\Local\Temp\ccvogEgx.s 			page 20


 567 00ac 874A     		ldr	r2, .L159
 568 00ae 1368     		ldr	r3, [r2]
 569 00b0 43F48033 		orr	r3, r3, #65536
 570 00b4 1360     		str	r3, [r2]
 571              	.L41:
 434:Drivers/STM32H7xx_HAL_Driver/Src/stm32h7xx_hal_rcc.c **** 
 572              		.loc 1 434 7 discriminator 10 view .LVU183
 437:Drivers/STM32H7xx_HAL_Driver/Src/stm32h7xx_hal_rcc.c ****       {
 573              		.loc 1 437 7 discriminator 10 view .LVU184
 437:Drivers/STM32H7xx_HAL_Driver/Src/stm32h7xx_hal_rcc.c ****       {
 574              		.loc 1 437 27 is_stmt 0 discriminator 10 view .LVU185
 575 00b6 6368     		ldr	r3, [r4, #4]
 437:Drivers/STM32H7xx_HAL_Driver/Src/stm32h7xx_hal_rcc.c ****       {
 576              		.loc 1 437 9 discriminator 10 view .LVU186
 577 00b8 2BB3     		cbz	r3, .L44
 440:Drivers/STM32H7xx_HAL_Driver/Src/stm32h7xx_hal_rcc.c **** 
 578              		.loc 1 440 9 is_stmt 1 view .LVU187
 440:Drivers/STM32H7xx_HAL_Driver/Src/stm32h7xx_hal_rcc.c **** 
 579              		.loc 1 440 21 is_stmt 0 view .LVU188
 580 00ba FFF7FEFF 		bl	HAL_GetTick
 581              	.LVL46:
 440:Drivers/STM32H7xx_HAL_Driver/Src/stm32h7xx_hal_rcc.c **** 
 582              		.loc 1 440 21 view .LVU189
 583 00be 0546     		mov	r5, r0
 584              	.LVL47:
 443:Drivers/STM32H7xx_HAL_Driver/Src/stm32h7xx_hal_rcc.c ****         {
 585              		.loc 1 443 9 is_stmt 1 view .LVU190
 586              	.L45:
 443:Drivers/STM32H7xx_HAL_Driver/Src/stm32h7xx_hal_rcc.c ****         {
 587              		.loc 1 443 14 view .LVU191
 443:Drivers/STM32H7xx_HAL_Driver/Src/stm32h7xx_hal_rcc.c ****         {
 588              		.loc 1 443 15 is_stmt 0 view .LVU192
 589 00c0 824B     		ldr	r3, .L159
 590 00c2 1B68     		ldr	r3, [r3]
 443:Drivers/STM32H7xx_HAL_Driver/Src/stm32h7xx_hal_rcc.c ****         {
 591              		.loc 1 443 14 view .LVU193
 592 00c4 13F4003F 		tst	r3, #131072
 593 00c8 C9D1     		bne	.L37
 445:Drivers/STM32H7xx_HAL_Driver/Src/stm32h7xx_hal_rcc.c ****           {
 594              		.loc 1 445 11 is_stmt 1 view .LVU194
 445:Drivers/STM32H7xx_HAL_Driver/Src/stm32h7xx_hal_rcc.c ****           {
 595              		.loc 1 445 26 is_stmt 0 view .LVU195
 596 00ca FFF7FEFF 		bl	HAL_GetTick
 597              	.LVL48:
 445:Drivers/STM32H7xx_HAL_Driver/Src/stm32h7xx_hal_rcc.c ****           {
 598              		.loc 1 445 40 view .LVU196
 599 00ce 401B     		subs	r0, r0, r5
 445:Drivers/STM32H7xx_HAL_Driver/Src/stm32h7xx_hal_rcc.c ****           {
 600              		.loc 1 445 13 view .LVU197
 601 00d0 6428     		cmp	r0, #100
 602 00d2 F5D9     		bls	.L45
 447:Drivers/STM32H7xx_HAL_Driver/Src/stm32h7xx_hal_rcc.c ****           }
 603              		.loc 1 447 20 view .LVU198
 604 00d4 0320     		movs	r0, #3
 605 00d6 A3E2     		b	.L36
 606              	.LVL49:
 607              	.L42:
ARM GAS  C:\Users\root\AppData\Local\Temp\ccvogEgx.s 			page 21


 434:Drivers/STM32H7xx_HAL_Driver/Src/stm32h7xx_hal_rcc.c **** 
 608              		.loc 1 434 7 is_stmt 1 discriminator 5 view .LVU199
 609 00d8 B3F5A02F 		cmp	r3, #327680
 610 00dc 09D0     		beq	.L144
 434:Drivers/STM32H7xx_HAL_Driver/Src/stm32h7xx_hal_rcc.c **** 
 611              		.loc 1 434 7 discriminator 8 view .LVU200
 612 00de 7B4B     		ldr	r3, .L159
 613 00e0 1A68     		ldr	r2, [r3]
 614 00e2 22F48032 		bic	r2, r2, #65536
 615 00e6 1A60     		str	r2, [r3]
 434:Drivers/STM32H7xx_HAL_Driver/Src/stm32h7xx_hal_rcc.c **** 
 616              		.loc 1 434 7 discriminator 8 view .LVU201
 617 00e8 1A68     		ldr	r2, [r3]
 618 00ea 22F48022 		bic	r2, r2, #262144
 619 00ee 1A60     		str	r2, [r3]
 620 00f0 E1E7     		b	.L41
 621              	.L144:
 434:Drivers/STM32H7xx_HAL_Driver/Src/stm32h7xx_hal_rcc.c **** 
 622              		.loc 1 434 7 discriminator 7 view .LVU202
 623 00f2 764B     		ldr	r3, .L159
 624 00f4 1A68     		ldr	r2, [r3]
 625 00f6 42F48022 		orr	r2, r2, #262144
 626 00fa 1A60     		str	r2, [r3]
 434:Drivers/STM32H7xx_HAL_Driver/Src/stm32h7xx_hal_rcc.c **** 
 627              		.loc 1 434 7 discriminator 7 view .LVU203
 628 00fc 1A68     		ldr	r2, [r3]
 629 00fe 42F48032 		orr	r2, r2, #65536
 630 0102 1A60     		str	r2, [r3]
 631 0104 D7E7     		b	.L41
 632              	.L44:
 454:Drivers/STM32H7xx_HAL_Driver/Src/stm32h7xx_hal_rcc.c **** 
 633              		.loc 1 454 9 view .LVU204
 454:Drivers/STM32H7xx_HAL_Driver/Src/stm32h7xx_hal_rcc.c **** 
 634              		.loc 1 454 21 is_stmt 0 view .LVU205
 635 0106 FFF7FEFF 		bl	HAL_GetTick
 636              	.LVL50:
 454:Drivers/STM32H7xx_HAL_Driver/Src/stm32h7xx_hal_rcc.c **** 
 637              		.loc 1 454 21 view .LVU206
 638 010a 0546     		mov	r5, r0
 639              	.LVL51:
 457:Drivers/STM32H7xx_HAL_Driver/Src/stm32h7xx_hal_rcc.c ****         {
 640              		.loc 1 457 9 is_stmt 1 view .LVU207
 641              	.L47:
 457:Drivers/STM32H7xx_HAL_Driver/Src/stm32h7xx_hal_rcc.c ****         {
 642              		.loc 1 457 14 view .LVU208
 457:Drivers/STM32H7xx_HAL_Driver/Src/stm32h7xx_hal_rcc.c ****         {
 643              		.loc 1 457 15 is_stmt 0 view .LVU209
 644 010c 6F4B     		ldr	r3, .L159
 645 010e 1B68     		ldr	r3, [r3]
 457:Drivers/STM32H7xx_HAL_Driver/Src/stm32h7xx_hal_rcc.c ****         {
 646              		.loc 1 457 14 view .LVU210
 647 0110 13F4003F 		tst	r3, #131072
 648 0114 A3D0     		beq	.L37
 459:Drivers/STM32H7xx_HAL_Driver/Src/stm32h7xx_hal_rcc.c ****           {
 649              		.loc 1 459 11 is_stmt 1 view .LVU211
 459:Drivers/STM32H7xx_HAL_Driver/Src/stm32h7xx_hal_rcc.c ****           {
 650              		.loc 1 459 26 is_stmt 0 view .LVU212
ARM GAS  C:\Users\root\AppData\Local\Temp\ccvogEgx.s 			page 22


 651 0116 FFF7FEFF 		bl	HAL_GetTick
 652              	.LVL52:
 459:Drivers/STM32H7xx_HAL_Driver/Src/stm32h7xx_hal_rcc.c ****           {
 653              		.loc 1 459 40 view .LVU213
 654 011a 401B     		subs	r0, r0, r5
 459:Drivers/STM32H7xx_HAL_Driver/Src/stm32h7xx_hal_rcc.c ****           {
 655              		.loc 1 459 13 view .LVU214
 656 011c 6428     		cmp	r0, #100
 657 011e F5D9     		bls	.L47
 461:Drivers/STM32H7xx_HAL_Driver/Src/stm32h7xx_hal_rcc.c ****           }
 658              		.loc 1 461 20 view .LVU215
 659 0120 0320     		movs	r0, #3
 660 0122 7DE2     		b	.L36
 661              	.LVL53:
 662              	.L142:
 461:Drivers/STM32H7xx_HAL_Driver/Src/stm32h7xx_hal_rcc.c ****           }
 663              		.loc 1 461 20 view .LVU216
 664              	.LBE4:
 665              	.LBB5:
 477:Drivers/STM32H7xx_HAL_Driver/Src/stm32h7xx_hal_rcc.c ****     {
 666              		.loc 1 477 87 discriminator 2 view .LVU217
 667 0124 12F0030F 		tst	r2, #3
 668 0128 A6D1     		bne	.L51
 669              	.L50:
 480:Drivers/STM32H7xx_HAL_Driver/Src/stm32h7xx_hal_rcc.c ****       {
 670              		.loc 1 480 7 is_stmt 1 view .LVU218
 480:Drivers/STM32H7xx_HAL_Driver/Src/stm32h7xx_hal_rcc.c ****       {
 671              		.loc 1 480 11 is_stmt 0 view .LVU219
 672 012a 684B     		ldr	r3, .L159
 673              	.LVL54:
 480:Drivers/STM32H7xx_HAL_Driver/Src/stm32h7xx_hal_rcc.c ****       {
 674              		.loc 1 480 11 view .LVU220
 675 012c 1B68     		ldr	r3, [r3]
 480:Drivers/STM32H7xx_HAL_Driver/Src/stm32h7xx_hal_rcc.c ****       {
 676              		.loc 1 480 9 view .LVU221
 677 012e 13F0040F 		tst	r3, #4
 678 0132 03D0     		beq	.L52
 480:Drivers/STM32H7xx_HAL_Driver/Src/stm32h7xx_hal_rcc.c ****       {
 679              		.loc 1 480 75 discriminator 1 view .LVU222
 680 0134 E368     		ldr	r3, [r4, #12]
 480:Drivers/STM32H7xx_HAL_Driver/Src/stm32h7xx_hal_rcc.c ****       {
 681              		.loc 1 480 54 discriminator 1 view .LVU223
 682 0136 002B     		cmp	r3, #0
 683 0138 00F06D82 		beq	.L111
 684              	.L52:
 488:Drivers/STM32H7xx_HAL_Driver/Src/stm32h7xx_hal_rcc.c ****       }
 685              		.loc 1 488 9 is_stmt 1 view .LVU224
 488:Drivers/STM32H7xx_HAL_Driver/Src/stm32h7xx_hal_rcc.c ****       }
 686              		.loc 1 488 9 view .LVU225
 687 013c FFF7FEFF 		bl	HAL_GetREVID
 688              	.LVL55:
 488:Drivers/STM32H7xx_HAL_Driver/Src/stm32h7xx_hal_rcc.c ****       }
 689              		.loc 1 488 9 is_stmt 0 view .LVU226
 690 0140 41F20303 		movw	r3, #4099
 691 0144 9842     		cmp	r0, r3
 692 0146 12D8     		bhi	.L53
 488:Drivers/STM32H7xx_HAL_Driver/Src/stm32h7xx_hal_rcc.c ****       }
ARM GAS  C:\Users\root\AppData\Local\Temp\ccvogEgx.s 			page 23


 693              		.loc 1 488 9 is_stmt 1 discriminator 1 view .LVU227
 694 0148 2269     		ldr	r2, [r4, #16]
 695 014a 402A     		cmp	r2, #64
 696 014c 07D0     		beq	.L145
 488:Drivers/STM32H7xx_HAL_Driver/Src/stm32h7xx_hal_rcc.c ****       }
 697              		.loc 1 488 9 discriminator 4 view .LVU228
 698 014e 5F49     		ldr	r1, .L159
 699 0150 4B68     		ldr	r3, [r1, #4]
 700 0152 23F47C33 		bic	r3, r3, #258048
 701 0156 43EA0233 		orr	r3, r3, r2, lsl #12
 702 015a 4B60     		str	r3, [r1, #4]
 703 015c 0FE0     		b	.L49
 704              	.L145:
 488:Drivers/STM32H7xx_HAL_Driver/Src/stm32h7xx_hal_rcc.c ****       }
 705              		.loc 1 488 9 discriminator 3 view .LVU229
 706 015e 5B4A     		ldr	r2, .L159
 707 0160 5368     		ldr	r3, [r2, #4]
 708 0162 23F47C33 		bic	r3, r3, #258048
 709 0166 43F40033 		orr	r3, r3, #131072
 710 016a 5360     		str	r3, [r2, #4]
 711 016c 07E0     		b	.L49
 712              	.L53:
 488:Drivers/STM32H7xx_HAL_Driver/Src/stm32h7xx_hal_rcc.c ****       }
 713              		.loc 1 488 9 discriminator 2 view .LVU230
 714 016e 574A     		ldr	r2, .L159
 715 0170 5368     		ldr	r3, [r2, #4]
 716 0172 23F0FE43 		bic	r3, r3, #2130706432
 717 0176 2169     		ldr	r1, [r4, #16]
 718 0178 43EA0163 		orr	r3, r3, r1, lsl #24
 719 017c 5360     		str	r3, [r2, #4]
 720              	.L49:
 488:Drivers/STM32H7xx_HAL_Driver/Src/stm32h7xx_hal_rcc.c ****       }
 721              		.loc 1 488 9 is_stmt 0 discriminator 2 view .LVU231
 722              	.LBE5:
 509:Drivers/STM32H7xx_HAL_Driver/Src/stm32h7xx_hal_rcc.c ****           }
 510:Drivers/STM32H7xx_HAL_Driver/Src/stm32h7xx_hal_rcc.c ****         }
 511:Drivers/STM32H7xx_HAL_Driver/Src/stm32h7xx_hal_rcc.c **** 
 512:Drivers/STM32H7xx_HAL_Driver/Src/stm32h7xx_hal_rcc.c ****         /* Adjusts the Internal High Speed oscillator (HSI) calibration value.*/
 513:Drivers/STM32H7xx_HAL_Driver/Src/stm32h7xx_hal_rcc.c ****         __HAL_RCC_HSI_CALIBRATIONVALUE_ADJUST(RCC_OscInitStruct->HSICalibrationValue);
 514:Drivers/STM32H7xx_HAL_Driver/Src/stm32h7xx_hal_rcc.c ****       }
 515:Drivers/STM32H7xx_HAL_Driver/Src/stm32h7xx_hal_rcc.c ****       else
 516:Drivers/STM32H7xx_HAL_Driver/Src/stm32h7xx_hal_rcc.c ****       {
 517:Drivers/STM32H7xx_HAL_Driver/Src/stm32h7xx_hal_rcc.c ****         /* Disable the Internal High Speed oscillator (HSI). */
 518:Drivers/STM32H7xx_HAL_Driver/Src/stm32h7xx_hal_rcc.c ****         __HAL_RCC_HSI_DISABLE();
 519:Drivers/STM32H7xx_HAL_Driver/Src/stm32h7xx_hal_rcc.c **** 
 520:Drivers/STM32H7xx_HAL_Driver/Src/stm32h7xx_hal_rcc.c ****         /* Get Start Tick*/
 521:Drivers/STM32H7xx_HAL_Driver/Src/stm32h7xx_hal_rcc.c ****         tickstart = HAL_GetTick();
 522:Drivers/STM32H7xx_HAL_Driver/Src/stm32h7xx_hal_rcc.c **** 
 523:Drivers/STM32H7xx_HAL_Driver/Src/stm32h7xx_hal_rcc.c ****         /* Wait till HSI is disabled */
 524:Drivers/STM32H7xx_HAL_Driver/Src/stm32h7xx_hal_rcc.c ****         while(__HAL_RCC_GET_FLAG(RCC_FLAG_HSIRDY) != 0U)
 525:Drivers/STM32H7xx_HAL_Driver/Src/stm32h7xx_hal_rcc.c ****         {
 526:Drivers/STM32H7xx_HAL_Driver/Src/stm32h7xx_hal_rcc.c ****           if((HAL_GetTick() - tickstart ) > HSI_TIMEOUT_VALUE)
 527:Drivers/STM32H7xx_HAL_Driver/Src/stm32h7xx_hal_rcc.c ****           {
 528:Drivers/STM32H7xx_HAL_Driver/Src/stm32h7xx_hal_rcc.c ****             return HAL_TIMEOUT;
 529:Drivers/STM32H7xx_HAL_Driver/Src/stm32h7xx_hal_rcc.c ****           }
 530:Drivers/STM32H7xx_HAL_Driver/Src/stm32h7xx_hal_rcc.c ****         }
 531:Drivers/STM32H7xx_HAL_Driver/Src/stm32h7xx_hal_rcc.c ****       }
ARM GAS  C:\Users\root\AppData\Local\Temp\ccvogEgx.s 			page 24


 532:Drivers/STM32H7xx_HAL_Driver/Src/stm32h7xx_hal_rcc.c ****     }
 533:Drivers/STM32H7xx_HAL_Driver/Src/stm32h7xx_hal_rcc.c ****   }
 534:Drivers/STM32H7xx_HAL_Driver/Src/stm32h7xx_hal_rcc.c ****   /*----------------------------- CSI Configuration --------------------------*/
 535:Drivers/STM32H7xx_HAL_Driver/Src/stm32h7xx_hal_rcc.c ****   if(((RCC_OscInitStruct->OscillatorType) & RCC_OSCILLATORTYPE_CSI) == RCC_OSCILLATORTYPE_CSI)
 723              		.loc 1 535 3 is_stmt 1 view .LVU232
 724              		.loc 1 535 25 is_stmt 0 view .LVU233
 725 017e 2368     		ldr	r3, [r4]
 726              		.loc 1 535 5 view .LVU234
 727 0180 13F0100F 		tst	r3, #16
 728 0184 00F08680 		beq	.L62
 729              	.LBB6:
 536:Drivers/STM32H7xx_HAL_Driver/Src/stm32h7xx_hal_rcc.c ****   {
 537:Drivers/STM32H7xx_HAL_Driver/Src/stm32h7xx_hal_rcc.c ****     /* Check the parameters */
 538:Drivers/STM32H7xx_HAL_Driver/Src/stm32h7xx_hal_rcc.c ****     assert_param(IS_RCC_CSI(RCC_OscInitStruct->CSIState));
 730              		.loc 1 538 5 is_stmt 1 view .LVU235
 539:Drivers/STM32H7xx_HAL_Driver/Src/stm32h7xx_hal_rcc.c ****     assert_param(IS_RCC_CSICALIBRATION_VALUE(RCC_OscInitStruct->CSICalibrationValue));
 731              		.loc 1 539 5 view .LVU236
 540:Drivers/STM32H7xx_HAL_Driver/Src/stm32h7xx_hal_rcc.c **** 
 541:Drivers/STM32H7xx_HAL_Driver/Src/stm32h7xx_hal_rcc.c ****     /* When the CSI is used as system clock it will not disabled */
 542:Drivers/STM32H7xx_HAL_Driver/Src/stm32h7xx_hal_rcc.c ****     const uint32_t temp_sysclksrc = __HAL_RCC_GET_SYSCLK_SOURCE();
 732              		.loc 1 542 5 view .LVU237
 733              		.loc 1 542 37 is_stmt 0 view .LVU238
 734 0188 504A     		ldr	r2, .L159
 735 018a 1369     		ldr	r3, [r2, #16]
 736              		.loc 1 542 20 view .LVU239
 737 018c 03F03803 		and	r3, r3, #56
 738              	.LVL56:
 543:Drivers/STM32H7xx_HAL_Driver/Src/stm32h7xx_hal_rcc.c ****     const uint32_t temp_pllckselr = RCC->PLLCKSELR;
 739              		.loc 1 543 5 is_stmt 1 view .LVU240
 740              		.loc 1 543 20 is_stmt 0 view .LVU241
 741 0190 926A     		ldr	r2, [r2, #40]
 742              	.LVL57:
 544:Drivers/STM32H7xx_HAL_Driver/Src/stm32h7xx_hal_rcc.c ****     if((temp_sysclksrc == RCC_CFGR_SWS_CSI) || ((temp_sysclksrc == RCC_CFGR_SWS_PLL1) && ((temp_pll
 743              		.loc 1 544 5 is_stmt 1 view .LVU242
 744              		.loc 1 544 7 is_stmt 0 view .LVU243
 745 0192 082B     		cmp	r3, #8
 746 0194 54D0     		beq	.L63
 747              		.loc 1 544 45 discriminator 1 view .LVU244
 748 0196 182B     		cmp	r3, #24
 749 0198 4ED0     		beq	.L146
 750              	.LVL58:
 751              	.L64:
 545:Drivers/STM32H7xx_HAL_Driver/Src/stm32h7xx_hal_rcc.c ****     {
 546:Drivers/STM32H7xx_HAL_Driver/Src/stm32h7xx_hal_rcc.c ****       /* When CSI is used as system clock it will not disabled */
 547:Drivers/STM32H7xx_HAL_Driver/Src/stm32h7xx_hal_rcc.c ****       if((__HAL_RCC_GET_FLAG(RCC_FLAG_CSIRDY) != 0U) && (RCC_OscInitStruct->CSIState != RCC_CSI_ON)
 548:Drivers/STM32H7xx_HAL_Driver/Src/stm32h7xx_hal_rcc.c ****       {
 549:Drivers/STM32H7xx_HAL_Driver/Src/stm32h7xx_hal_rcc.c ****         return HAL_ERROR;
 550:Drivers/STM32H7xx_HAL_Driver/Src/stm32h7xx_hal_rcc.c ****       }
 551:Drivers/STM32H7xx_HAL_Driver/Src/stm32h7xx_hal_rcc.c ****       /* Otherwise, just the calibration is allowed */
 552:Drivers/STM32H7xx_HAL_Driver/Src/stm32h7xx_hal_rcc.c ****       else
 553:Drivers/STM32H7xx_HAL_Driver/Src/stm32h7xx_hal_rcc.c ****       {
 554:Drivers/STM32H7xx_HAL_Driver/Src/stm32h7xx_hal_rcc.c ****         /* Adjusts the Internal High Speed oscillator (CSI) calibration value.*/
 555:Drivers/STM32H7xx_HAL_Driver/Src/stm32h7xx_hal_rcc.c ****         __HAL_RCC_CSI_CALIBRATIONVALUE_ADJUST(RCC_OscInitStruct->CSICalibrationValue);
 556:Drivers/STM32H7xx_HAL_Driver/Src/stm32h7xx_hal_rcc.c ****       }
 557:Drivers/STM32H7xx_HAL_Driver/Src/stm32h7xx_hal_rcc.c ****     }
 558:Drivers/STM32H7xx_HAL_Driver/Src/stm32h7xx_hal_rcc.c ****     else
 559:Drivers/STM32H7xx_HAL_Driver/Src/stm32h7xx_hal_rcc.c ****     {
ARM GAS  C:\Users\root\AppData\Local\Temp\ccvogEgx.s 			page 25


 560:Drivers/STM32H7xx_HAL_Driver/Src/stm32h7xx_hal_rcc.c ****       /* Check the CSI State */
 561:Drivers/STM32H7xx_HAL_Driver/Src/stm32h7xx_hal_rcc.c ****       if((RCC_OscInitStruct->CSIState)!= RCC_CSI_OFF)
 752              		.loc 1 561 7 is_stmt 1 view .LVU245
 753              		.loc 1 561 28 is_stmt 0 view .LVU246
 754 019a E369     		ldr	r3, [r4, #28]
 755              	.LVL59:
 756              		.loc 1 561 9 view .LVU247
 757 019c 002B     		cmp	r3, #0
 758 019e 00F0B980 		beq	.L68
 562:Drivers/STM32H7xx_HAL_Driver/Src/stm32h7xx_hal_rcc.c ****       {
 563:Drivers/STM32H7xx_HAL_Driver/Src/stm32h7xx_hal_rcc.c ****         /* Enable the Internal High Speed oscillator (CSI). */
 564:Drivers/STM32H7xx_HAL_Driver/Src/stm32h7xx_hal_rcc.c ****         __HAL_RCC_CSI_ENABLE();
 759              		.loc 1 564 9 is_stmt 1 view .LVU248
 760 01a2 4A4A     		ldr	r2, .L159
 761 01a4 1368     		ldr	r3, [r2]
 762 01a6 43F08003 		orr	r3, r3, #128
 763 01aa 1360     		str	r3, [r2]
 565:Drivers/STM32H7xx_HAL_Driver/Src/stm32h7xx_hal_rcc.c **** 
 566:Drivers/STM32H7xx_HAL_Driver/Src/stm32h7xx_hal_rcc.c ****         /* Get Start Tick*/
 567:Drivers/STM32H7xx_HAL_Driver/Src/stm32h7xx_hal_rcc.c ****         tickstart = HAL_GetTick();
 764              		.loc 1 567 9 view .LVU249
 765              		.loc 1 567 21 is_stmt 0 view .LVU250
 766 01ac FFF7FEFF 		bl	HAL_GetTick
 767              	.LVL60:
 768 01b0 0546     		mov	r5, r0
 769              	.LVL61:
 568:Drivers/STM32H7xx_HAL_Driver/Src/stm32h7xx_hal_rcc.c **** 
 569:Drivers/STM32H7xx_HAL_Driver/Src/stm32h7xx_hal_rcc.c ****         /* Wait till CSI is ready */
 570:Drivers/STM32H7xx_HAL_Driver/Src/stm32h7xx_hal_rcc.c ****         while(__HAL_RCC_GET_FLAG(RCC_FLAG_CSIRDY) == 0U)
 770              		.loc 1 570 9 is_stmt 1 view .LVU251
 771              	.L69:
 772              		.loc 1 570 14 view .LVU252
 773              		.loc 1 570 15 is_stmt 0 view .LVU253
 774 01b2 464B     		ldr	r3, .L159
 775 01b4 1B68     		ldr	r3, [r3]
 776              		.loc 1 570 14 view .LVU254
 777 01b6 13F4807F 		tst	r3, #256
 778 01ba 40F08980 		bne	.L147
 571:Drivers/STM32H7xx_HAL_Driver/Src/stm32h7xx_hal_rcc.c ****         {
 572:Drivers/STM32H7xx_HAL_Driver/Src/stm32h7xx_hal_rcc.c ****           if((HAL_GetTick() - tickstart ) > CSI_TIMEOUT_VALUE)
 779              		.loc 1 572 11 is_stmt 1 view .LVU255
 780              		.loc 1 572 15 is_stmt 0 view .LVU256
 781 01be FFF7FEFF 		bl	HAL_GetTick
 782              	.LVL62:
 783              		.loc 1 572 29 view .LVU257
 784 01c2 401B     		subs	r0, r0, r5
 785              		.loc 1 572 13 view .LVU258
 786 01c4 0228     		cmp	r0, #2
 787 01c6 F4D9     		bls	.L69
 573:Drivers/STM32H7xx_HAL_Driver/Src/stm32h7xx_hal_rcc.c ****           {
 574:Drivers/STM32H7xx_HAL_Driver/Src/stm32h7xx_hal_rcc.c ****             return HAL_TIMEOUT;
 788              		.loc 1 574 20 view .LVU259
 789 01c8 0320     		movs	r0, #3
 790 01ca 29E2     		b	.L36
 791              	.L143:
 792              		.loc 1 574 20 view .LVU260
 793              	.LBE6:
ARM GAS  C:\Users\root\AppData\Local\Temp\ccvogEgx.s 			page 26


 794              	.LBB7:
 513:Drivers/STM32H7xx_HAL_Driver/Src/stm32h7xx_hal_rcc.c ****       }
 795              		.loc 1 513 9 is_stmt 1 view .LVU261
 513:Drivers/STM32H7xx_HAL_Driver/Src/stm32h7xx_hal_rcc.c ****       }
 796              		.loc 1 513 9 view .LVU262
 797 01cc FFF7FEFF 		bl	HAL_GetREVID
 798              	.LVL63:
 799 01d0 41F20303 		movw	r3, #4099
 800 01d4 9842     		cmp	r0, r3
 801 01d6 12D8     		bhi	.L58
 513:Drivers/STM32H7xx_HAL_Driver/Src/stm32h7xx_hal_rcc.c ****       }
 802              		.loc 1 513 9 discriminator 1 view .LVU263
 803 01d8 2269     		ldr	r2, [r4, #16]
 804 01da 402A     		cmp	r2, #64
 805 01dc 07D0     		beq	.L148
 513:Drivers/STM32H7xx_HAL_Driver/Src/stm32h7xx_hal_rcc.c ****       }
 806              		.loc 1 513 9 discriminator 4 view .LVU264
 807 01de 3B49     		ldr	r1, .L159
 808 01e0 4B68     		ldr	r3, [r1, #4]
 809 01e2 23F47C33 		bic	r3, r3, #258048
 810 01e6 43EA0233 		orr	r3, r3, r2, lsl #12
 811 01ea 4B60     		str	r3, [r1, #4]
 812 01ec C7E7     		b	.L49
 813              	.L148:
 513:Drivers/STM32H7xx_HAL_Driver/Src/stm32h7xx_hal_rcc.c ****       }
 814              		.loc 1 513 9 discriminator 3 view .LVU265
 815 01ee 374A     		ldr	r2, .L159
 816 01f0 5368     		ldr	r3, [r2, #4]
 817 01f2 23F47C33 		bic	r3, r3, #258048
 818 01f6 43F40033 		orr	r3, r3, #131072
 819 01fa 5360     		str	r3, [r2, #4]
 820 01fc BFE7     		b	.L49
 821              	.L58:
 513:Drivers/STM32H7xx_HAL_Driver/Src/stm32h7xx_hal_rcc.c ****       }
 822              		.loc 1 513 9 discriminator 2 view .LVU266
 823 01fe 334A     		ldr	r2, .L159
 824 0200 5368     		ldr	r3, [r2, #4]
 825 0202 23F0FE43 		bic	r3, r3, #2130706432
 826 0206 2169     		ldr	r1, [r4, #16]
 827 0208 43EA0163 		orr	r3, r3, r1, lsl #24
 828 020c 5360     		str	r3, [r2, #4]
 829 020e B6E7     		b	.L49
 830              	.LVL64:
 831              	.L55:
 518:Drivers/STM32H7xx_HAL_Driver/Src/stm32h7xx_hal_rcc.c **** 
 832              		.loc 1 518 9 view .LVU267
 833 0210 2E4A     		ldr	r2, .L159
 834              	.LVL65:
 518:Drivers/STM32H7xx_HAL_Driver/Src/stm32h7xx_hal_rcc.c **** 
 835              		.loc 1 518 9 is_stmt 0 view .LVU268
 836 0212 1368     		ldr	r3, [r2]
 837 0214 23F00103 		bic	r3, r3, #1
 838 0218 1360     		str	r3, [r2]
 521:Drivers/STM32H7xx_HAL_Driver/Src/stm32h7xx_hal_rcc.c **** 
 839              		.loc 1 521 9 is_stmt 1 view .LVU269
 521:Drivers/STM32H7xx_HAL_Driver/Src/stm32h7xx_hal_rcc.c **** 
 840              		.loc 1 521 21 is_stmt 0 view .LVU270
ARM GAS  C:\Users\root\AppData\Local\Temp\ccvogEgx.s 			page 27


 841 021a FFF7FEFF 		bl	HAL_GetTick
 842              	.LVL66:
 843 021e 0546     		mov	r5, r0
 844              	.LVL67:
 524:Drivers/STM32H7xx_HAL_Driver/Src/stm32h7xx_hal_rcc.c ****         {
 845              		.loc 1 524 9 is_stmt 1 view .LVU271
 846              	.L60:
 524:Drivers/STM32H7xx_HAL_Driver/Src/stm32h7xx_hal_rcc.c ****         {
 847              		.loc 1 524 14 view .LVU272
 524:Drivers/STM32H7xx_HAL_Driver/Src/stm32h7xx_hal_rcc.c ****         {
 848              		.loc 1 524 15 is_stmt 0 view .LVU273
 849 0220 2A4B     		ldr	r3, .L159
 850 0222 1B68     		ldr	r3, [r3]
 524:Drivers/STM32H7xx_HAL_Driver/Src/stm32h7xx_hal_rcc.c ****         {
 851              		.loc 1 524 14 view .LVU274
 852 0224 13F0040F 		tst	r3, #4
 853 0228 A9D0     		beq	.L49
 526:Drivers/STM32H7xx_HAL_Driver/Src/stm32h7xx_hal_rcc.c ****           {
 854              		.loc 1 526 11 is_stmt 1 view .LVU275
 526:Drivers/STM32H7xx_HAL_Driver/Src/stm32h7xx_hal_rcc.c ****           {
 855              		.loc 1 526 15 is_stmt 0 view .LVU276
 856 022a FFF7FEFF 		bl	HAL_GetTick
 857              	.LVL68:
 526:Drivers/STM32H7xx_HAL_Driver/Src/stm32h7xx_hal_rcc.c ****           {
 858              		.loc 1 526 29 view .LVU277
 859 022e 401B     		subs	r0, r0, r5
 526:Drivers/STM32H7xx_HAL_Driver/Src/stm32h7xx_hal_rcc.c ****           {
 860              		.loc 1 526 13 view .LVU278
 861 0230 0228     		cmp	r0, #2
 862 0232 F5D9     		bls	.L60
 528:Drivers/STM32H7xx_HAL_Driver/Src/stm32h7xx_hal_rcc.c ****           }
 863              		.loc 1 528 20 view .LVU279
 864 0234 0320     		movs	r0, #3
 865 0236 F3E1     		b	.L36
 866              	.LVL69:
 867              	.L146:
 528:Drivers/STM32H7xx_HAL_Driver/Src/stm32h7xx_hal_rcc.c ****           }
 868              		.loc 1 528 20 view .LVU280
 869              	.LBE7:
 870              	.LBB8:
 544:Drivers/STM32H7xx_HAL_Driver/Src/stm32h7xx_hal_rcc.c ****     {
 871              		.loc 1 544 107 discriminator 2 view .LVU281
 872 0238 02F00302 		and	r2, r2, #3
 873              	.LVL70:
 544:Drivers/STM32H7xx_HAL_Driver/Src/stm32h7xx_hal_rcc.c ****     {
 874              		.loc 1 544 87 discriminator 2 view .LVU282
 875 023c 012A     		cmp	r2, #1
 876 023e ACD1     		bne	.L64
 877              	.L63:
 547:Drivers/STM32H7xx_HAL_Driver/Src/stm32h7xx_hal_rcc.c ****       {
 878              		.loc 1 547 7 is_stmt 1 view .LVU283
 547:Drivers/STM32H7xx_HAL_Driver/Src/stm32h7xx_hal_rcc.c ****       {
 879              		.loc 1 547 11 is_stmt 0 view .LVU284
 880 0240 224B     		ldr	r3, .L159
 881              	.LVL71:
 547:Drivers/STM32H7xx_HAL_Driver/Src/stm32h7xx_hal_rcc.c ****       {
 882              		.loc 1 547 11 view .LVU285
ARM GAS  C:\Users\root\AppData\Local\Temp\ccvogEgx.s 			page 28


 883 0242 1B68     		ldr	r3, [r3]
 547:Drivers/STM32H7xx_HAL_Driver/Src/stm32h7xx_hal_rcc.c ****       {
 884              		.loc 1 547 9 view .LVU286
 885 0244 13F4807F 		tst	r3, #256
 886 0248 03D0     		beq	.L65
 547:Drivers/STM32H7xx_HAL_Driver/Src/stm32h7xx_hal_rcc.c ****       {
 887              		.loc 1 547 75 discriminator 1 view .LVU287
 888 024a E369     		ldr	r3, [r4, #28]
 547:Drivers/STM32H7xx_HAL_Driver/Src/stm32h7xx_hal_rcc.c ****       {
 889              		.loc 1 547 54 discriminator 1 view .LVU288
 890 024c 802B     		cmp	r3, #128
 891 024e 40F0E481 		bne	.L114
 892              	.L65:
 555:Drivers/STM32H7xx_HAL_Driver/Src/stm32h7xx_hal_rcc.c ****       }
 893              		.loc 1 555 9 is_stmt 1 view .LVU289
 555:Drivers/STM32H7xx_HAL_Driver/Src/stm32h7xx_hal_rcc.c ****       }
 894              		.loc 1 555 9 view .LVU290
 895 0252 FFF7FEFF 		bl	HAL_GetREVID
 896              	.LVL72:
 897 0256 41F20303 		movw	r3, #4099
 898 025a 9842     		cmp	r0, r3
 899 025c 12D8     		bhi	.L66
 555:Drivers/STM32H7xx_HAL_Driver/Src/stm32h7xx_hal_rcc.c ****       }
 900              		.loc 1 555 9 discriminator 1 view .LVU291
 901 025e 226A     		ldr	r2, [r4, #32]
 902 0260 202A     		cmp	r2, #32
 903 0262 07D0     		beq	.L149
 555:Drivers/STM32H7xx_HAL_Driver/Src/stm32h7xx_hal_rcc.c ****       }
 904              		.loc 1 555 9 discriminator 4 view .LVU292
 905 0264 1949     		ldr	r1, .L159
 906 0266 4B68     		ldr	r3, [r1, #4]
 907 0268 23F0F843 		bic	r3, r3, #2080374784
 908 026c 43EA8263 		orr	r3, r3, r2, lsl #26
 909 0270 4B60     		str	r3, [r1, #4]
 910 0272 0FE0     		b	.L62
 911              	.L149:
 555:Drivers/STM32H7xx_HAL_Driver/Src/stm32h7xx_hal_rcc.c ****       }
 912              		.loc 1 555 9 discriminator 3 view .LVU293
 913 0274 154A     		ldr	r2, .L159
 914 0276 5368     		ldr	r3, [r2, #4]
 915 0278 23F0F843 		bic	r3, r3, #2080374784
 916 027c 43F08043 		orr	r3, r3, #1073741824
 917 0280 5360     		str	r3, [r2, #4]
 918 0282 07E0     		b	.L62
 919              	.L66:
 555:Drivers/STM32H7xx_HAL_Driver/Src/stm32h7xx_hal_rcc.c ****       }
 920              		.loc 1 555 9 discriminator 2 view .LVU294
 921 0284 114A     		ldr	r2, .L159
 922 0286 D368     		ldr	r3, [r2, #12]
 923 0288 23F07C53 		bic	r3, r3, #1056964608
 924 028c 216A     		ldr	r1, [r4, #32]
 925 028e 43EA0163 		orr	r3, r3, r1, lsl #24
 926 0292 D360     		str	r3, [r2, #12]
 927              	.L62:
 555:Drivers/STM32H7xx_HAL_Driver/Src/stm32h7xx_hal_rcc.c ****       }
 928              		.loc 1 555 9 is_stmt 0 discriminator 2 view .LVU295
 929              	.LBE8:
ARM GAS  C:\Users\root\AppData\Local\Temp\ccvogEgx.s 			page 29


 575:Drivers/STM32H7xx_HAL_Driver/Src/stm32h7xx_hal_rcc.c ****           }
 576:Drivers/STM32H7xx_HAL_Driver/Src/stm32h7xx_hal_rcc.c ****         }
 577:Drivers/STM32H7xx_HAL_Driver/Src/stm32h7xx_hal_rcc.c **** 
 578:Drivers/STM32H7xx_HAL_Driver/Src/stm32h7xx_hal_rcc.c ****         /* Adjusts the Internal High Speed oscillator (CSI) calibration value.*/
 579:Drivers/STM32H7xx_HAL_Driver/Src/stm32h7xx_hal_rcc.c ****         __HAL_RCC_CSI_CALIBRATIONVALUE_ADJUST(RCC_OscInitStruct->CSICalibrationValue);
 580:Drivers/STM32H7xx_HAL_Driver/Src/stm32h7xx_hal_rcc.c ****       }
 581:Drivers/STM32H7xx_HAL_Driver/Src/stm32h7xx_hal_rcc.c ****       else
 582:Drivers/STM32H7xx_HAL_Driver/Src/stm32h7xx_hal_rcc.c ****       {
 583:Drivers/STM32H7xx_HAL_Driver/Src/stm32h7xx_hal_rcc.c ****         /* Disable the Internal High Speed oscillator (CSI). */
 584:Drivers/STM32H7xx_HAL_Driver/Src/stm32h7xx_hal_rcc.c ****         __HAL_RCC_CSI_DISABLE();
 585:Drivers/STM32H7xx_HAL_Driver/Src/stm32h7xx_hal_rcc.c **** 
 586:Drivers/STM32H7xx_HAL_Driver/Src/stm32h7xx_hal_rcc.c ****         /* Get Start Tick*/
 587:Drivers/STM32H7xx_HAL_Driver/Src/stm32h7xx_hal_rcc.c ****         tickstart = HAL_GetTick();
 588:Drivers/STM32H7xx_HAL_Driver/Src/stm32h7xx_hal_rcc.c **** 
 589:Drivers/STM32H7xx_HAL_Driver/Src/stm32h7xx_hal_rcc.c ****         /* Wait till CSI is disabled */
 590:Drivers/STM32H7xx_HAL_Driver/Src/stm32h7xx_hal_rcc.c ****         while(__HAL_RCC_GET_FLAG(RCC_FLAG_CSIRDY) != 0U)
 591:Drivers/STM32H7xx_HAL_Driver/Src/stm32h7xx_hal_rcc.c ****         {
 592:Drivers/STM32H7xx_HAL_Driver/Src/stm32h7xx_hal_rcc.c ****           if((HAL_GetTick() - tickstart ) > CSI_TIMEOUT_VALUE)
 593:Drivers/STM32H7xx_HAL_Driver/Src/stm32h7xx_hal_rcc.c ****           {
 594:Drivers/STM32H7xx_HAL_Driver/Src/stm32h7xx_hal_rcc.c ****             return HAL_TIMEOUT;
 595:Drivers/STM32H7xx_HAL_Driver/Src/stm32h7xx_hal_rcc.c ****           }
 596:Drivers/STM32H7xx_HAL_Driver/Src/stm32h7xx_hal_rcc.c ****         }
 597:Drivers/STM32H7xx_HAL_Driver/Src/stm32h7xx_hal_rcc.c ****       }
 598:Drivers/STM32H7xx_HAL_Driver/Src/stm32h7xx_hal_rcc.c ****     }
 599:Drivers/STM32H7xx_HAL_Driver/Src/stm32h7xx_hal_rcc.c ****   }
 600:Drivers/STM32H7xx_HAL_Driver/Src/stm32h7xx_hal_rcc.c ****   /*------------------------------ LSI Configuration -------------------------*/
 601:Drivers/STM32H7xx_HAL_Driver/Src/stm32h7xx_hal_rcc.c ****   if(((RCC_OscInitStruct->OscillatorType) & RCC_OSCILLATORTYPE_LSI) == RCC_OSCILLATORTYPE_LSI)
 930              		.loc 1 601 3 is_stmt 1 view .LVU296
 931              		.loc 1 601 25 is_stmt 0 view .LVU297
 932 0294 2368     		ldr	r3, [r4]
 933              		.loc 1 601 5 view .LVU298
 934 0296 13F0080F 		tst	r3, #8
 935 029a 63D0     		beq	.L75
 602:Drivers/STM32H7xx_HAL_Driver/Src/stm32h7xx_hal_rcc.c ****   {
 603:Drivers/STM32H7xx_HAL_Driver/Src/stm32h7xx_hal_rcc.c ****     /* Check the parameters */
 604:Drivers/STM32H7xx_HAL_Driver/Src/stm32h7xx_hal_rcc.c ****     assert_param(IS_RCC_LSI(RCC_OscInitStruct->LSIState));
 936              		.loc 1 604 5 is_stmt 1 view .LVU299
 605:Drivers/STM32H7xx_HAL_Driver/Src/stm32h7xx_hal_rcc.c **** 
 606:Drivers/STM32H7xx_HAL_Driver/Src/stm32h7xx_hal_rcc.c ****     /* Check the LSI State */
 607:Drivers/STM32H7xx_HAL_Driver/Src/stm32h7xx_hal_rcc.c ****     if((RCC_OscInitStruct->LSIState)!= RCC_LSI_OFF)
 937              		.loc 1 607 5 view .LVU300
 938              		.loc 1 607 26 is_stmt 0 view .LVU301
 939 029c 6369     		ldr	r3, [r4, #20]
 940              		.loc 1 607 7 view .LVU302
 941 029e 002B     		cmp	r3, #0
 942 02a0 4CD0     		beq	.L76
 608:Drivers/STM32H7xx_HAL_Driver/Src/stm32h7xx_hal_rcc.c ****     {
 609:Drivers/STM32H7xx_HAL_Driver/Src/stm32h7xx_hal_rcc.c ****       /* Enable the Internal Low Speed oscillator (LSI). */
 610:Drivers/STM32H7xx_HAL_Driver/Src/stm32h7xx_hal_rcc.c ****       __HAL_RCC_LSI_ENABLE();
 943              		.loc 1 610 7 is_stmt 1 view .LVU303
 944 02a2 0A4A     		ldr	r2, .L159
 945 02a4 536F     		ldr	r3, [r2, #116]
 946 02a6 43F00103 		orr	r3, r3, #1
 947 02aa 5367     		str	r3, [r2, #116]
 611:Drivers/STM32H7xx_HAL_Driver/Src/stm32h7xx_hal_rcc.c **** 
 612:Drivers/STM32H7xx_HAL_Driver/Src/stm32h7xx_hal_rcc.c ****       /* Get Start Tick*/
 613:Drivers/STM32H7xx_HAL_Driver/Src/stm32h7xx_hal_rcc.c ****       tickstart = HAL_GetTick();
ARM GAS  C:\Users\root\AppData\Local\Temp\ccvogEgx.s 			page 30


 948              		.loc 1 613 7 view .LVU304
 949              		.loc 1 613 19 is_stmt 0 view .LVU305
 950 02ac FFF7FEFF 		bl	HAL_GetTick
 951              	.LVL73:
 952 02b0 0546     		mov	r5, r0
 953              	.LVL74:
 614:Drivers/STM32H7xx_HAL_Driver/Src/stm32h7xx_hal_rcc.c **** 
 615:Drivers/STM32H7xx_HAL_Driver/Src/stm32h7xx_hal_rcc.c ****       /* Wait till LSI is ready */
 616:Drivers/STM32H7xx_HAL_Driver/Src/stm32h7xx_hal_rcc.c ****       while(__HAL_RCC_GET_FLAG(RCC_FLAG_LSIRDY) == 0U)
 954              		.loc 1 616 7 is_stmt 1 view .LVU306
 955              	.L77:
 956              		.loc 1 616 12 view .LVU307
 957              		.loc 1 616 13 is_stmt 0 view .LVU308
 958 02b2 064B     		ldr	r3, .L159
 959 02b4 5B6F     		ldr	r3, [r3, #116]
 960              		.loc 1 616 12 view .LVU309
 961 02b6 13F0020F 		tst	r3, #2
 962 02ba 53D1     		bne	.L75
 617:Drivers/STM32H7xx_HAL_Driver/Src/stm32h7xx_hal_rcc.c ****       {
 618:Drivers/STM32H7xx_HAL_Driver/Src/stm32h7xx_hal_rcc.c ****         if((HAL_GetTick() - tickstart ) > LSI_TIMEOUT_VALUE)
 963              		.loc 1 618 9 is_stmt 1 view .LVU310
 964              		.loc 1 618 13 is_stmt 0 view .LVU311
 965 02bc FFF7FEFF 		bl	HAL_GetTick
 966              	.LVL75:
 967              		.loc 1 618 27 view .LVU312
 968 02c0 401B     		subs	r0, r0, r5
 969              		.loc 1 618 11 view .LVU313
 970 02c2 0228     		cmp	r0, #2
 971 02c4 F5D9     		bls	.L77
 619:Drivers/STM32H7xx_HAL_Driver/Src/stm32h7xx_hal_rcc.c ****         {
 620:Drivers/STM32H7xx_HAL_Driver/Src/stm32h7xx_hal_rcc.c ****           return HAL_TIMEOUT;
 972              		.loc 1 620 18 view .LVU314
 973 02c6 0320     		movs	r0, #3
 974 02c8 AAE1     		b	.L36
 975              	.L160:
 976 02ca 00BF     		.align	2
 977              	.L159:
 978 02cc 00440258 		.word	1476543488
 979              	.L147:
 980              	.LBB9:
 579:Drivers/STM32H7xx_HAL_Driver/Src/stm32h7xx_hal_rcc.c ****       }
 981              		.loc 1 579 9 is_stmt 1 view .LVU315
 579:Drivers/STM32H7xx_HAL_Driver/Src/stm32h7xx_hal_rcc.c ****       }
 982              		.loc 1 579 9 view .LVU316
 983 02d0 FFF7FEFF 		bl	HAL_GetREVID
 984              	.LVL76:
 985 02d4 41F20303 		movw	r3, #4099
 986 02d8 9842     		cmp	r0, r3
 987 02da 12D8     		bhi	.L71
 579:Drivers/STM32H7xx_HAL_Driver/Src/stm32h7xx_hal_rcc.c ****       }
 988              		.loc 1 579 9 discriminator 1 view .LVU317
 989 02dc 226A     		ldr	r2, [r4, #32]
 990 02de 202A     		cmp	r2, #32
 991 02e0 07D0     		beq	.L150
 579:Drivers/STM32H7xx_HAL_Driver/Src/stm32h7xx_hal_rcc.c ****       }
 992              		.loc 1 579 9 discriminator 4 view .LVU318
 993 02e2 8549     		ldr	r1, .L161
ARM GAS  C:\Users\root\AppData\Local\Temp\ccvogEgx.s 			page 31


 994 02e4 4B68     		ldr	r3, [r1, #4]
 995 02e6 23F0F843 		bic	r3, r3, #2080374784
 996 02ea 43EA8263 		orr	r3, r3, r2, lsl #26
 997 02ee 4B60     		str	r3, [r1, #4]
 998 02f0 D0E7     		b	.L62
 999              	.L150:
 579:Drivers/STM32H7xx_HAL_Driver/Src/stm32h7xx_hal_rcc.c ****       }
 1000              		.loc 1 579 9 discriminator 3 view .LVU319
 1001 02f2 814A     		ldr	r2, .L161
 1002 02f4 5368     		ldr	r3, [r2, #4]
 1003 02f6 23F0F843 		bic	r3, r3, #2080374784
 1004 02fa 43F08043 		orr	r3, r3, #1073741824
 1005 02fe 5360     		str	r3, [r2, #4]
 1006 0300 C8E7     		b	.L62
 1007              	.L71:
 579:Drivers/STM32H7xx_HAL_Driver/Src/stm32h7xx_hal_rcc.c ****       }
 1008              		.loc 1 579 9 discriminator 2 view .LVU320
 1009 0302 7D4A     		ldr	r2, .L161
 1010 0304 D368     		ldr	r3, [r2, #12]
 1011 0306 23F07C53 		bic	r3, r3, #1056964608
 1012 030a 216A     		ldr	r1, [r4, #32]
 1013 030c 43EA0163 		orr	r3, r3, r1, lsl #24
 1014 0310 D360     		str	r3, [r2, #12]
 1015 0312 BFE7     		b	.L62
 1016              	.LVL77:
 1017              	.L68:
 584:Drivers/STM32H7xx_HAL_Driver/Src/stm32h7xx_hal_rcc.c **** 
 1018              		.loc 1 584 9 view .LVU321
 1019 0314 784A     		ldr	r2, .L161
 1020 0316 1368     		ldr	r3, [r2]
 1021 0318 23F08003 		bic	r3, r3, #128
 1022 031c 1360     		str	r3, [r2]
 587:Drivers/STM32H7xx_HAL_Driver/Src/stm32h7xx_hal_rcc.c **** 
 1023              		.loc 1 587 9 view .LVU322
 587:Drivers/STM32H7xx_HAL_Driver/Src/stm32h7xx_hal_rcc.c **** 
 1024              		.loc 1 587 21 is_stmt 0 view .LVU323
 1025 031e FFF7FEFF 		bl	HAL_GetTick
 1026              	.LVL78:
 1027 0322 0546     		mov	r5, r0
 1028              	.LVL79:
 590:Drivers/STM32H7xx_HAL_Driver/Src/stm32h7xx_hal_rcc.c ****         {
 1029              		.loc 1 590 9 is_stmt 1 view .LVU324
 1030              	.L73:
 590:Drivers/STM32H7xx_HAL_Driver/Src/stm32h7xx_hal_rcc.c ****         {
 1031              		.loc 1 590 14 view .LVU325
 590:Drivers/STM32H7xx_HAL_Driver/Src/stm32h7xx_hal_rcc.c ****         {
 1032              		.loc 1 590 15 is_stmt 0 view .LVU326
 1033 0324 744B     		ldr	r3, .L161
 1034 0326 1B68     		ldr	r3, [r3]
 590:Drivers/STM32H7xx_HAL_Driver/Src/stm32h7xx_hal_rcc.c ****         {
 1035              		.loc 1 590 14 view .LVU327
 1036 0328 13F4807F 		tst	r3, #256
 1037 032c B2D0     		beq	.L62
 592:Drivers/STM32H7xx_HAL_Driver/Src/stm32h7xx_hal_rcc.c ****           {
 1038              		.loc 1 592 11 is_stmt 1 view .LVU328
 592:Drivers/STM32H7xx_HAL_Driver/Src/stm32h7xx_hal_rcc.c ****           {
 1039              		.loc 1 592 15 is_stmt 0 view .LVU329
ARM GAS  C:\Users\root\AppData\Local\Temp\ccvogEgx.s 			page 32


 1040 032e FFF7FEFF 		bl	HAL_GetTick
 1041              	.LVL80:
 592:Drivers/STM32H7xx_HAL_Driver/Src/stm32h7xx_hal_rcc.c ****           {
 1042              		.loc 1 592 29 view .LVU330
 1043 0332 401B     		subs	r0, r0, r5
 592:Drivers/STM32H7xx_HAL_Driver/Src/stm32h7xx_hal_rcc.c ****           {
 1044              		.loc 1 592 13 view .LVU331
 1045 0334 0228     		cmp	r0, #2
 1046 0336 F5D9     		bls	.L73
 594:Drivers/STM32H7xx_HAL_Driver/Src/stm32h7xx_hal_rcc.c ****           }
 1047              		.loc 1 594 20 view .LVU332
 1048 0338 0320     		movs	r0, #3
 1049 033a 71E1     		b	.L36
 1050              	.LVL81:
 1051              	.L76:
 594:Drivers/STM32H7xx_HAL_Driver/Src/stm32h7xx_hal_rcc.c ****           }
 1052              		.loc 1 594 20 view .LVU333
 1053              	.LBE9:
 621:Drivers/STM32H7xx_HAL_Driver/Src/stm32h7xx_hal_rcc.c ****         }
 622:Drivers/STM32H7xx_HAL_Driver/Src/stm32h7xx_hal_rcc.c ****       }
 623:Drivers/STM32H7xx_HAL_Driver/Src/stm32h7xx_hal_rcc.c ****     }
 624:Drivers/STM32H7xx_HAL_Driver/Src/stm32h7xx_hal_rcc.c ****     else
 625:Drivers/STM32H7xx_HAL_Driver/Src/stm32h7xx_hal_rcc.c ****     {
 626:Drivers/STM32H7xx_HAL_Driver/Src/stm32h7xx_hal_rcc.c ****       /* Disable the Internal Low Speed oscillator (LSI). */
 627:Drivers/STM32H7xx_HAL_Driver/Src/stm32h7xx_hal_rcc.c ****       __HAL_RCC_LSI_DISABLE();
 1054              		.loc 1 627 7 is_stmt 1 view .LVU334
 1055 033c 6E4A     		ldr	r2, .L161
 1056 033e 536F     		ldr	r3, [r2, #116]
 1057 0340 23F00103 		bic	r3, r3, #1
 1058 0344 5367     		str	r3, [r2, #116]
 628:Drivers/STM32H7xx_HAL_Driver/Src/stm32h7xx_hal_rcc.c **** 
 629:Drivers/STM32H7xx_HAL_Driver/Src/stm32h7xx_hal_rcc.c ****       /* Get Start Tick*/
 630:Drivers/STM32H7xx_HAL_Driver/Src/stm32h7xx_hal_rcc.c ****       tickstart = HAL_GetTick();
 1059              		.loc 1 630 7 view .LVU335
 1060              		.loc 1 630 19 is_stmt 0 view .LVU336
 1061 0346 FFF7FEFF 		bl	HAL_GetTick
 1062              	.LVL82:
 1063 034a 0546     		mov	r5, r0
 1064              	.LVL83:
 631:Drivers/STM32H7xx_HAL_Driver/Src/stm32h7xx_hal_rcc.c **** 
 632:Drivers/STM32H7xx_HAL_Driver/Src/stm32h7xx_hal_rcc.c ****       /* Wait till LSI is ready */
 633:Drivers/STM32H7xx_HAL_Driver/Src/stm32h7xx_hal_rcc.c ****       while(__HAL_RCC_GET_FLAG(RCC_FLAG_LSIRDY) != 0U)
 1065              		.loc 1 633 7 is_stmt 1 view .LVU337
 1066              	.L79:
 1067              		.loc 1 633 12 view .LVU338
 1068              		.loc 1 633 13 is_stmt 0 view .LVU339
 1069 034c 6A4B     		ldr	r3, .L161
 1070 034e 5B6F     		ldr	r3, [r3, #116]
 1071              		.loc 1 633 12 view .LVU340
 1072 0350 13F0020F 		tst	r3, #2
 1073 0354 06D0     		beq	.L75
 634:Drivers/STM32H7xx_HAL_Driver/Src/stm32h7xx_hal_rcc.c ****       {
 635:Drivers/STM32H7xx_HAL_Driver/Src/stm32h7xx_hal_rcc.c ****         if((HAL_GetTick() - tickstart ) > LSI_TIMEOUT_VALUE)
 1074              		.loc 1 635 9 is_stmt 1 view .LVU341
 1075              		.loc 1 635 13 is_stmt 0 view .LVU342
 1076 0356 FFF7FEFF 		bl	HAL_GetTick
 1077              	.LVL84:
ARM GAS  C:\Users\root\AppData\Local\Temp\ccvogEgx.s 			page 33


 1078              		.loc 1 635 27 view .LVU343
 1079 035a 401B     		subs	r0, r0, r5
 1080              		.loc 1 635 11 view .LVU344
 1081 035c 0228     		cmp	r0, #2
 1082 035e F5D9     		bls	.L79
 636:Drivers/STM32H7xx_HAL_Driver/Src/stm32h7xx_hal_rcc.c ****         {
 637:Drivers/STM32H7xx_HAL_Driver/Src/stm32h7xx_hal_rcc.c ****           return HAL_TIMEOUT;
 1083              		.loc 1 637 18 view .LVU345
 1084 0360 0320     		movs	r0, #3
 1085 0362 5DE1     		b	.L36
 1086              	.LVL85:
 1087              	.L75:
 638:Drivers/STM32H7xx_HAL_Driver/Src/stm32h7xx_hal_rcc.c ****         }
 639:Drivers/STM32H7xx_HAL_Driver/Src/stm32h7xx_hal_rcc.c ****       }
 640:Drivers/STM32H7xx_HAL_Driver/Src/stm32h7xx_hal_rcc.c ****     }
 641:Drivers/STM32H7xx_HAL_Driver/Src/stm32h7xx_hal_rcc.c ****   }
 642:Drivers/STM32H7xx_HAL_Driver/Src/stm32h7xx_hal_rcc.c **** 
 643:Drivers/STM32H7xx_HAL_Driver/Src/stm32h7xx_hal_rcc.c ****   /*------------------------------ HSI48 Configuration -------------------------*/
 644:Drivers/STM32H7xx_HAL_Driver/Src/stm32h7xx_hal_rcc.c ****   if(((RCC_OscInitStruct->OscillatorType) & RCC_OSCILLATORTYPE_HSI48) == RCC_OSCILLATORTYPE_HSI48)
 1088              		.loc 1 644 3 is_stmt 1 view .LVU346
 1089              		.loc 1 644 25 is_stmt 0 view .LVU347
 1090 0364 2368     		ldr	r3, [r4]
 1091              		.loc 1 644 5 view .LVU348
 1092 0366 13F0200F 		tst	r3, #32
 1093 036a 29D0     		beq	.L81
 645:Drivers/STM32H7xx_HAL_Driver/Src/stm32h7xx_hal_rcc.c ****   {
 646:Drivers/STM32H7xx_HAL_Driver/Src/stm32h7xx_hal_rcc.c ****     /* Check the parameters */
 647:Drivers/STM32H7xx_HAL_Driver/Src/stm32h7xx_hal_rcc.c ****     assert_param(IS_RCC_HSI48(RCC_OscInitStruct->HSI48State));
 1094              		.loc 1 647 5 is_stmt 1 view .LVU349
 648:Drivers/STM32H7xx_HAL_Driver/Src/stm32h7xx_hal_rcc.c **** 
 649:Drivers/STM32H7xx_HAL_Driver/Src/stm32h7xx_hal_rcc.c ****     /* Check the HSI48 State */
 650:Drivers/STM32H7xx_HAL_Driver/Src/stm32h7xx_hal_rcc.c ****     if((RCC_OscInitStruct->HSI48State)!= RCC_HSI48_OFF)
 1095              		.loc 1 650 5 view .LVU350
 1096              		.loc 1 650 26 is_stmt 0 view .LVU351
 1097 036c A369     		ldr	r3, [r4, #24]
 1098              		.loc 1 650 7 view .LVU352
 1099 036e 9BB1     		cbz	r3, .L82
 651:Drivers/STM32H7xx_HAL_Driver/Src/stm32h7xx_hal_rcc.c ****     {
 652:Drivers/STM32H7xx_HAL_Driver/Src/stm32h7xx_hal_rcc.c ****       /* Enable the Internal Low Speed oscillator (HSI48). */
 653:Drivers/STM32H7xx_HAL_Driver/Src/stm32h7xx_hal_rcc.c ****       __HAL_RCC_HSI48_ENABLE();
 1100              		.loc 1 653 7 is_stmt 1 view .LVU353
 1101 0370 614A     		ldr	r2, .L161
 1102 0372 1368     		ldr	r3, [r2]
 1103 0374 43F48053 		orr	r3, r3, #4096
 1104 0378 1360     		str	r3, [r2]
 1105              		.loc 1 653 31 view .LVU354
 654:Drivers/STM32H7xx_HAL_Driver/Src/stm32h7xx_hal_rcc.c **** 
 655:Drivers/STM32H7xx_HAL_Driver/Src/stm32h7xx_hal_rcc.c ****       /* Get time-out */
 656:Drivers/STM32H7xx_HAL_Driver/Src/stm32h7xx_hal_rcc.c ****       tickstart = HAL_GetTick();
 1106              		.loc 1 656 7 view .LVU355
 1107              		.loc 1 656 19 is_stmt 0 view .LVU356
 1108 037a FFF7FEFF 		bl	HAL_GetTick
 1109              	.LVL86:
 1110 037e 0546     		mov	r5, r0
 1111              	.LVL87:
 657:Drivers/STM32H7xx_HAL_Driver/Src/stm32h7xx_hal_rcc.c **** 
 658:Drivers/STM32H7xx_HAL_Driver/Src/stm32h7xx_hal_rcc.c ****       /* Wait till HSI48 is ready */
ARM GAS  C:\Users\root\AppData\Local\Temp\ccvogEgx.s 			page 34


 659:Drivers/STM32H7xx_HAL_Driver/Src/stm32h7xx_hal_rcc.c ****       while(__HAL_RCC_GET_FLAG(RCC_FLAG_HSI48RDY) == 0U)
 1112              		.loc 1 659 7 is_stmt 1 view .LVU357
 1113              	.L83:
 1114              		.loc 1 659 12 view .LVU358
 1115              		.loc 1 659 13 is_stmt 0 view .LVU359
 1116 0380 5D4B     		ldr	r3, .L161
 1117 0382 1B68     		ldr	r3, [r3]
 1118              		.loc 1 659 12 view .LVU360
 1119 0384 13F4005F 		tst	r3, #8192
 1120 0388 1AD1     		bne	.L81
 660:Drivers/STM32H7xx_HAL_Driver/Src/stm32h7xx_hal_rcc.c ****       {
 661:Drivers/STM32H7xx_HAL_Driver/Src/stm32h7xx_hal_rcc.c ****         if((HAL_GetTick() - tickstart ) > HSI48_TIMEOUT_VALUE)
 1121              		.loc 1 661 9 is_stmt 1 view .LVU361
 1122              		.loc 1 661 13 is_stmt 0 view .LVU362
 1123 038a FFF7FEFF 		bl	HAL_GetTick
 1124              	.LVL88:
 1125              		.loc 1 661 27 view .LVU363
 1126 038e 401B     		subs	r0, r0, r5
 1127              		.loc 1 661 11 view .LVU364
 1128 0390 0228     		cmp	r0, #2
 1129 0392 F5D9     		bls	.L83
 662:Drivers/STM32H7xx_HAL_Driver/Src/stm32h7xx_hal_rcc.c ****         {
 663:Drivers/STM32H7xx_HAL_Driver/Src/stm32h7xx_hal_rcc.c ****           return HAL_TIMEOUT;
 1130              		.loc 1 663 18 view .LVU365
 1131 0394 0320     		movs	r0, #3
 1132 0396 43E1     		b	.L36
 1133              	.LVL89:
 1134              	.L82:
 664:Drivers/STM32H7xx_HAL_Driver/Src/stm32h7xx_hal_rcc.c ****         }
 665:Drivers/STM32H7xx_HAL_Driver/Src/stm32h7xx_hal_rcc.c ****       }
 666:Drivers/STM32H7xx_HAL_Driver/Src/stm32h7xx_hal_rcc.c ****     }
 667:Drivers/STM32H7xx_HAL_Driver/Src/stm32h7xx_hal_rcc.c ****     else
 668:Drivers/STM32H7xx_HAL_Driver/Src/stm32h7xx_hal_rcc.c ****     {
 669:Drivers/STM32H7xx_HAL_Driver/Src/stm32h7xx_hal_rcc.c ****       /* Disable the Internal Low Speed oscillator (HSI48). */
 670:Drivers/STM32H7xx_HAL_Driver/Src/stm32h7xx_hal_rcc.c ****       __HAL_RCC_HSI48_DISABLE();
 1135              		.loc 1 670 7 is_stmt 1 view .LVU366
 1136 0398 574A     		ldr	r2, .L161
 1137 039a 1368     		ldr	r3, [r2]
 1138 039c 23F48053 		bic	r3, r3, #4096
 1139 03a0 1360     		str	r3, [r2]
 1140              		.loc 1 670 32 view .LVU367
 671:Drivers/STM32H7xx_HAL_Driver/Src/stm32h7xx_hal_rcc.c **** 
 672:Drivers/STM32H7xx_HAL_Driver/Src/stm32h7xx_hal_rcc.c ****       /* Get time-out */
 673:Drivers/STM32H7xx_HAL_Driver/Src/stm32h7xx_hal_rcc.c ****       tickstart = HAL_GetTick();
 1141              		.loc 1 673 7 view .LVU368
 1142              		.loc 1 673 19 is_stmt 0 view .LVU369
 1143 03a2 FFF7FEFF 		bl	HAL_GetTick
 1144              	.LVL90:
 1145 03a6 0546     		mov	r5, r0
 1146              	.LVL91:
 674:Drivers/STM32H7xx_HAL_Driver/Src/stm32h7xx_hal_rcc.c **** 
 675:Drivers/STM32H7xx_HAL_Driver/Src/stm32h7xx_hal_rcc.c ****       /* Wait till HSI48 is ready */
 676:Drivers/STM32H7xx_HAL_Driver/Src/stm32h7xx_hal_rcc.c ****       while(__HAL_RCC_GET_FLAG(RCC_FLAG_HSI48RDY) != 0U)
 1147              		.loc 1 676 7 is_stmt 1 view .LVU370
 1148              	.L85:
 1149              		.loc 1 676 12 view .LVU371
 1150              		.loc 1 676 13 is_stmt 0 view .LVU372
ARM GAS  C:\Users\root\AppData\Local\Temp\ccvogEgx.s 			page 35


 1151 03a8 534B     		ldr	r3, .L161
 1152 03aa 1B68     		ldr	r3, [r3]
 1153              		.loc 1 676 12 view .LVU373
 1154 03ac 13F4005F 		tst	r3, #8192
 1155 03b0 06D0     		beq	.L81
 677:Drivers/STM32H7xx_HAL_Driver/Src/stm32h7xx_hal_rcc.c ****       {
 678:Drivers/STM32H7xx_HAL_Driver/Src/stm32h7xx_hal_rcc.c ****         if((HAL_GetTick() - tickstart ) > HSI48_TIMEOUT_VALUE)
 1156              		.loc 1 678 9 is_stmt 1 view .LVU374
 1157              		.loc 1 678 13 is_stmt 0 view .LVU375
 1158 03b2 FFF7FEFF 		bl	HAL_GetTick
 1159              	.LVL92:
 1160              		.loc 1 678 27 view .LVU376
 1161 03b6 401B     		subs	r0, r0, r5
 1162              		.loc 1 678 11 view .LVU377
 1163 03b8 0228     		cmp	r0, #2
 1164 03ba F5D9     		bls	.L85
 679:Drivers/STM32H7xx_HAL_Driver/Src/stm32h7xx_hal_rcc.c ****         {
 680:Drivers/STM32H7xx_HAL_Driver/Src/stm32h7xx_hal_rcc.c ****           return HAL_TIMEOUT;
 1165              		.loc 1 680 18 view .LVU378
 1166 03bc 0320     		movs	r0, #3
 1167 03be 2FE1     		b	.L36
 1168              	.LVL93:
 1169              	.L81:
 681:Drivers/STM32H7xx_HAL_Driver/Src/stm32h7xx_hal_rcc.c ****         }
 682:Drivers/STM32H7xx_HAL_Driver/Src/stm32h7xx_hal_rcc.c ****       }
 683:Drivers/STM32H7xx_HAL_Driver/Src/stm32h7xx_hal_rcc.c ****     }
 684:Drivers/STM32H7xx_HAL_Driver/Src/stm32h7xx_hal_rcc.c ****   }
 685:Drivers/STM32H7xx_HAL_Driver/Src/stm32h7xx_hal_rcc.c ****   /*------------------------------ LSE Configuration -------------------------*/
 686:Drivers/STM32H7xx_HAL_Driver/Src/stm32h7xx_hal_rcc.c ****   if(((RCC_OscInitStruct->OscillatorType) & RCC_OSCILLATORTYPE_LSE) == RCC_OSCILLATORTYPE_LSE)
 1170              		.loc 1 686 3 is_stmt 1 view .LVU379
 1171              		.loc 1 686 25 is_stmt 0 view .LVU380
 1172 03c0 2368     		ldr	r3, [r4]
 1173              		.loc 1 686 5 view .LVU381
 1174 03c2 13F0040F 		tst	r3, #4
 1175 03c6 21D1     		bne	.L151
 1176              	.L87:
 687:Drivers/STM32H7xx_HAL_Driver/Src/stm32h7xx_hal_rcc.c ****   {
 688:Drivers/STM32H7xx_HAL_Driver/Src/stm32h7xx_hal_rcc.c ****     /* Check the parameters */
 689:Drivers/STM32H7xx_HAL_Driver/Src/stm32h7xx_hal_rcc.c ****     assert_param(IS_RCC_LSE(RCC_OscInitStruct->LSEState));
 690:Drivers/STM32H7xx_HAL_Driver/Src/stm32h7xx_hal_rcc.c **** 
 691:Drivers/STM32H7xx_HAL_Driver/Src/stm32h7xx_hal_rcc.c ****     /* Enable write access to Backup domain */
 692:Drivers/STM32H7xx_HAL_Driver/Src/stm32h7xx_hal_rcc.c ****     PWR->CR1 |= PWR_CR1_DBP;
 693:Drivers/STM32H7xx_HAL_Driver/Src/stm32h7xx_hal_rcc.c **** 
 694:Drivers/STM32H7xx_HAL_Driver/Src/stm32h7xx_hal_rcc.c ****     /* Wait for Backup domain Write protection disable */
 695:Drivers/STM32H7xx_HAL_Driver/Src/stm32h7xx_hal_rcc.c ****     tickstart = HAL_GetTick();
 696:Drivers/STM32H7xx_HAL_Driver/Src/stm32h7xx_hal_rcc.c **** 
 697:Drivers/STM32H7xx_HAL_Driver/Src/stm32h7xx_hal_rcc.c ****     while((PWR->CR1 & PWR_CR1_DBP) == 0U)
 698:Drivers/STM32H7xx_HAL_Driver/Src/stm32h7xx_hal_rcc.c ****     {
 699:Drivers/STM32H7xx_HAL_Driver/Src/stm32h7xx_hal_rcc.c ****       if((HAL_GetTick() - tickstart ) > RCC_DBP_TIMEOUT_VALUE)
 700:Drivers/STM32H7xx_HAL_Driver/Src/stm32h7xx_hal_rcc.c ****       {
 701:Drivers/STM32H7xx_HAL_Driver/Src/stm32h7xx_hal_rcc.c ****         return HAL_TIMEOUT;
 702:Drivers/STM32H7xx_HAL_Driver/Src/stm32h7xx_hal_rcc.c ****       }
 703:Drivers/STM32H7xx_HAL_Driver/Src/stm32h7xx_hal_rcc.c ****     }
 704:Drivers/STM32H7xx_HAL_Driver/Src/stm32h7xx_hal_rcc.c **** 
 705:Drivers/STM32H7xx_HAL_Driver/Src/stm32h7xx_hal_rcc.c ****     /* Set the new LSE configuration -----------------------------------------*/
 706:Drivers/STM32H7xx_HAL_Driver/Src/stm32h7xx_hal_rcc.c ****     __HAL_RCC_LSE_CONFIG(RCC_OscInitStruct->LSEState);
 707:Drivers/STM32H7xx_HAL_Driver/Src/stm32h7xx_hal_rcc.c ****     /* Check the LSE State */
ARM GAS  C:\Users\root\AppData\Local\Temp\ccvogEgx.s 			page 36


 708:Drivers/STM32H7xx_HAL_Driver/Src/stm32h7xx_hal_rcc.c ****     if((RCC_OscInitStruct->LSEState) != RCC_LSE_OFF)
 709:Drivers/STM32H7xx_HAL_Driver/Src/stm32h7xx_hal_rcc.c ****     {
 710:Drivers/STM32H7xx_HAL_Driver/Src/stm32h7xx_hal_rcc.c ****       /* Get Start Tick*/
 711:Drivers/STM32H7xx_HAL_Driver/Src/stm32h7xx_hal_rcc.c ****       tickstart = HAL_GetTick();
 712:Drivers/STM32H7xx_HAL_Driver/Src/stm32h7xx_hal_rcc.c **** 
 713:Drivers/STM32H7xx_HAL_Driver/Src/stm32h7xx_hal_rcc.c ****       /* Wait till LSE is ready */
 714:Drivers/STM32H7xx_HAL_Driver/Src/stm32h7xx_hal_rcc.c ****       while(__HAL_RCC_GET_FLAG(RCC_FLAG_LSERDY) == 0U)
 715:Drivers/STM32H7xx_HAL_Driver/Src/stm32h7xx_hal_rcc.c ****       {
 716:Drivers/STM32H7xx_HAL_Driver/Src/stm32h7xx_hal_rcc.c ****         if((HAL_GetTick() - tickstart ) > RCC_LSE_TIMEOUT_VALUE)
 717:Drivers/STM32H7xx_HAL_Driver/Src/stm32h7xx_hal_rcc.c ****         {
 718:Drivers/STM32H7xx_HAL_Driver/Src/stm32h7xx_hal_rcc.c ****           return HAL_TIMEOUT;
 719:Drivers/STM32H7xx_HAL_Driver/Src/stm32h7xx_hal_rcc.c ****         }
 720:Drivers/STM32H7xx_HAL_Driver/Src/stm32h7xx_hal_rcc.c ****       }
 721:Drivers/STM32H7xx_HAL_Driver/Src/stm32h7xx_hal_rcc.c ****     }
 722:Drivers/STM32H7xx_HAL_Driver/Src/stm32h7xx_hal_rcc.c ****     else
 723:Drivers/STM32H7xx_HAL_Driver/Src/stm32h7xx_hal_rcc.c ****     {
 724:Drivers/STM32H7xx_HAL_Driver/Src/stm32h7xx_hal_rcc.c ****       /* Get Start Tick*/
 725:Drivers/STM32H7xx_HAL_Driver/Src/stm32h7xx_hal_rcc.c ****       tickstart = HAL_GetTick();
 726:Drivers/STM32H7xx_HAL_Driver/Src/stm32h7xx_hal_rcc.c **** 
 727:Drivers/STM32H7xx_HAL_Driver/Src/stm32h7xx_hal_rcc.c ****       /* Wait till LSE is disabled */
 728:Drivers/STM32H7xx_HAL_Driver/Src/stm32h7xx_hal_rcc.c ****       while(__HAL_RCC_GET_FLAG(RCC_FLAG_LSERDY) != 0U)
 729:Drivers/STM32H7xx_HAL_Driver/Src/stm32h7xx_hal_rcc.c ****       {
 730:Drivers/STM32H7xx_HAL_Driver/Src/stm32h7xx_hal_rcc.c ****         if((HAL_GetTick() - tickstart ) > RCC_LSE_TIMEOUT_VALUE)
 731:Drivers/STM32H7xx_HAL_Driver/Src/stm32h7xx_hal_rcc.c ****         {
 732:Drivers/STM32H7xx_HAL_Driver/Src/stm32h7xx_hal_rcc.c ****           return HAL_TIMEOUT;
 733:Drivers/STM32H7xx_HAL_Driver/Src/stm32h7xx_hal_rcc.c ****         }
 734:Drivers/STM32H7xx_HAL_Driver/Src/stm32h7xx_hal_rcc.c ****       }
 735:Drivers/STM32H7xx_HAL_Driver/Src/stm32h7xx_hal_rcc.c ****     }
 736:Drivers/STM32H7xx_HAL_Driver/Src/stm32h7xx_hal_rcc.c ****   }
 737:Drivers/STM32H7xx_HAL_Driver/Src/stm32h7xx_hal_rcc.c ****   /*-------------------------------- PLL Configuration -----------------------*/
 738:Drivers/STM32H7xx_HAL_Driver/Src/stm32h7xx_hal_rcc.c ****   /* Check the parameters */
 739:Drivers/STM32H7xx_HAL_Driver/Src/stm32h7xx_hal_rcc.c ****   assert_param(IS_RCC_PLL(RCC_OscInitStruct->PLL.PLLState));
 1177              		.loc 1 739 3 is_stmt 1 view .LVU382
 740:Drivers/STM32H7xx_HAL_Driver/Src/stm32h7xx_hal_rcc.c ****   if ((RCC_OscInitStruct->PLL.PLLState) != RCC_PLL_NONE)
 1178              		.loc 1 740 3 view .LVU383
 1179              		.loc 1 740 30 is_stmt 0 view .LVU384
 1180 03c8 636A     		ldr	r3, [r4, #36]
 1181              		.loc 1 740 6 view .LVU385
 1182 03ca 002B     		cmp	r3, #0
 1183 03cc 00F02781 		beq	.L124
 741:Drivers/STM32H7xx_HAL_Driver/Src/stm32h7xx_hal_rcc.c ****   {
 742:Drivers/STM32H7xx_HAL_Driver/Src/stm32h7xx_hal_rcc.c ****     /* Check if the PLL is used as system clock or not */
 743:Drivers/STM32H7xx_HAL_Driver/Src/stm32h7xx_hal_rcc.c ****     if(__HAL_RCC_GET_SYSCLK_SOURCE() != RCC_CFGR_SWS_PLL1)
 1184              		.loc 1 743 5 is_stmt 1 view .LVU386
 1185              		.loc 1 743 8 is_stmt 0 view .LVU387
 1186 03d0 494A     		ldr	r2, .L161
 1187 03d2 1269     		ldr	r2, [r2, #16]
 1188 03d4 02F03802 		and	r2, r2, #56
 1189              		.loc 1 743 7 view .LVU388
 1190 03d8 182A     		cmp	r2, #24
 1191 03da 00F0EF80 		beq	.L99
 744:Drivers/STM32H7xx_HAL_Driver/Src/stm32h7xx_hal_rcc.c ****     {
 745:Drivers/STM32H7xx_HAL_Driver/Src/stm32h7xx_hal_rcc.c ****       if((RCC_OscInitStruct->PLL.PLLState) == RCC_PLL_ON)
 1192              		.loc 1 745 7 is_stmt 1 view .LVU389
 1193              		.loc 1 745 9 is_stmt 0 view .LVU390
 1194 03de 022B     		cmp	r3, #2
 1195 03e0 75D0     		beq	.L152
ARM GAS  C:\Users\root\AppData\Local\Temp\ccvogEgx.s 			page 37


 746:Drivers/STM32H7xx_HAL_Driver/Src/stm32h7xx_hal_rcc.c ****       {
 747:Drivers/STM32H7xx_HAL_Driver/Src/stm32h7xx_hal_rcc.c ****         /* Check the parameters */
 748:Drivers/STM32H7xx_HAL_Driver/Src/stm32h7xx_hal_rcc.c ****         assert_param(IS_RCC_PLLSOURCE(RCC_OscInitStruct->PLL.PLLSource));
 749:Drivers/STM32H7xx_HAL_Driver/Src/stm32h7xx_hal_rcc.c ****         assert_param(IS_RCC_PLLM_VALUE(RCC_OscInitStruct->PLL.PLLM));
 750:Drivers/STM32H7xx_HAL_Driver/Src/stm32h7xx_hal_rcc.c ****         assert_param(IS_RCC_PLLN_VALUE(RCC_OscInitStruct->PLL.PLLN));
 751:Drivers/STM32H7xx_HAL_Driver/Src/stm32h7xx_hal_rcc.c ****         assert_param(IS_RCC_PLLP_VALUE(RCC_OscInitStruct->PLL.PLLP));
 752:Drivers/STM32H7xx_HAL_Driver/Src/stm32h7xx_hal_rcc.c ****         assert_param(IS_RCC_PLLQ_VALUE(RCC_OscInitStruct->PLL.PLLQ));
 753:Drivers/STM32H7xx_HAL_Driver/Src/stm32h7xx_hal_rcc.c ****         assert_param(IS_RCC_PLLR_VALUE(RCC_OscInitStruct->PLL.PLLR));
 754:Drivers/STM32H7xx_HAL_Driver/Src/stm32h7xx_hal_rcc.c ****         assert_param(IS_RCC_PLLFRACN_VALUE(RCC_OscInitStruct->PLL.PLLFRACN));
 755:Drivers/STM32H7xx_HAL_Driver/Src/stm32h7xx_hal_rcc.c **** 
 756:Drivers/STM32H7xx_HAL_Driver/Src/stm32h7xx_hal_rcc.c ****         /* Disable the main PLL. */
 757:Drivers/STM32H7xx_HAL_Driver/Src/stm32h7xx_hal_rcc.c ****         __HAL_RCC_PLL_DISABLE();
 758:Drivers/STM32H7xx_HAL_Driver/Src/stm32h7xx_hal_rcc.c **** 
 759:Drivers/STM32H7xx_HAL_Driver/Src/stm32h7xx_hal_rcc.c ****         /* Get Start Tick*/
 760:Drivers/STM32H7xx_HAL_Driver/Src/stm32h7xx_hal_rcc.c ****         tickstart = HAL_GetTick();
 761:Drivers/STM32H7xx_HAL_Driver/Src/stm32h7xx_hal_rcc.c **** 
 762:Drivers/STM32H7xx_HAL_Driver/Src/stm32h7xx_hal_rcc.c ****         /* Wait till PLL is disabled */
 763:Drivers/STM32H7xx_HAL_Driver/Src/stm32h7xx_hal_rcc.c ****         while(__HAL_RCC_GET_FLAG(RCC_FLAG_PLLRDY) != 0U)
 764:Drivers/STM32H7xx_HAL_Driver/Src/stm32h7xx_hal_rcc.c ****         {
 765:Drivers/STM32H7xx_HAL_Driver/Src/stm32h7xx_hal_rcc.c ****           if((HAL_GetTick() - tickstart ) > PLL_TIMEOUT_VALUE)
 766:Drivers/STM32H7xx_HAL_Driver/Src/stm32h7xx_hal_rcc.c ****           {
 767:Drivers/STM32H7xx_HAL_Driver/Src/stm32h7xx_hal_rcc.c ****             return HAL_TIMEOUT;
 768:Drivers/STM32H7xx_HAL_Driver/Src/stm32h7xx_hal_rcc.c ****           }
 769:Drivers/STM32H7xx_HAL_Driver/Src/stm32h7xx_hal_rcc.c ****         }
 770:Drivers/STM32H7xx_HAL_Driver/Src/stm32h7xx_hal_rcc.c **** 
 771:Drivers/STM32H7xx_HAL_Driver/Src/stm32h7xx_hal_rcc.c ****         /* Configure the main PLL clock source, multiplication and division factors. */
 772:Drivers/STM32H7xx_HAL_Driver/Src/stm32h7xx_hal_rcc.c ****         __HAL_RCC_PLL_CONFIG(RCC_OscInitStruct->PLL.PLLSource,
 773:Drivers/STM32H7xx_HAL_Driver/Src/stm32h7xx_hal_rcc.c ****                              RCC_OscInitStruct->PLL.PLLM,
 774:Drivers/STM32H7xx_HAL_Driver/Src/stm32h7xx_hal_rcc.c ****                              RCC_OscInitStruct->PLL.PLLN,
 775:Drivers/STM32H7xx_HAL_Driver/Src/stm32h7xx_hal_rcc.c ****                              RCC_OscInitStruct->PLL.PLLP,
 776:Drivers/STM32H7xx_HAL_Driver/Src/stm32h7xx_hal_rcc.c ****                              RCC_OscInitStruct->PLL.PLLQ,
 777:Drivers/STM32H7xx_HAL_Driver/Src/stm32h7xx_hal_rcc.c ****                              RCC_OscInitStruct->PLL.PLLR);
 778:Drivers/STM32H7xx_HAL_Driver/Src/stm32h7xx_hal_rcc.c **** 
 779:Drivers/STM32H7xx_HAL_Driver/Src/stm32h7xx_hal_rcc.c ****          /* Disable PLLFRACN . */
 780:Drivers/STM32H7xx_HAL_Driver/Src/stm32h7xx_hal_rcc.c ****          __HAL_RCC_PLLFRACN_DISABLE();
 781:Drivers/STM32H7xx_HAL_Driver/Src/stm32h7xx_hal_rcc.c **** 
 782:Drivers/STM32H7xx_HAL_Driver/Src/stm32h7xx_hal_rcc.c ****          /* Configure PLL PLL1FRACN */
 783:Drivers/STM32H7xx_HAL_Driver/Src/stm32h7xx_hal_rcc.c ****          __HAL_RCC_PLLFRACN_CONFIG(RCC_OscInitStruct->PLL.PLLFRACN);
 784:Drivers/STM32H7xx_HAL_Driver/Src/stm32h7xx_hal_rcc.c **** 
 785:Drivers/STM32H7xx_HAL_Driver/Src/stm32h7xx_hal_rcc.c ****         /* Select PLL1 input reference frequency range: VCI */
 786:Drivers/STM32H7xx_HAL_Driver/Src/stm32h7xx_hal_rcc.c ****         __HAL_RCC_PLL_VCIRANGE(RCC_OscInitStruct->PLL.PLLRGE) ;
 787:Drivers/STM32H7xx_HAL_Driver/Src/stm32h7xx_hal_rcc.c **** 
 788:Drivers/STM32H7xx_HAL_Driver/Src/stm32h7xx_hal_rcc.c ****         /* Select PLL1 output frequency range : VCO */
 789:Drivers/STM32H7xx_HAL_Driver/Src/stm32h7xx_hal_rcc.c ****         __HAL_RCC_PLL_VCORANGE(RCC_OscInitStruct->PLL.PLLVCOSEL) ;
 790:Drivers/STM32H7xx_HAL_Driver/Src/stm32h7xx_hal_rcc.c **** 
 791:Drivers/STM32H7xx_HAL_Driver/Src/stm32h7xx_hal_rcc.c ****         /* Enable PLL System Clock output. */
 792:Drivers/STM32H7xx_HAL_Driver/Src/stm32h7xx_hal_rcc.c ****          __HAL_RCC_PLLCLKOUT_ENABLE(RCC_PLL1_DIVP);
 793:Drivers/STM32H7xx_HAL_Driver/Src/stm32h7xx_hal_rcc.c **** 
 794:Drivers/STM32H7xx_HAL_Driver/Src/stm32h7xx_hal_rcc.c ****         /* Enable PLL1Q Clock output. */
 795:Drivers/STM32H7xx_HAL_Driver/Src/stm32h7xx_hal_rcc.c ****          __HAL_RCC_PLLCLKOUT_ENABLE(RCC_PLL1_DIVQ);
 796:Drivers/STM32H7xx_HAL_Driver/Src/stm32h7xx_hal_rcc.c **** 
 797:Drivers/STM32H7xx_HAL_Driver/Src/stm32h7xx_hal_rcc.c ****         /* Enable PLL1R  Clock output. */
 798:Drivers/STM32H7xx_HAL_Driver/Src/stm32h7xx_hal_rcc.c ****          __HAL_RCC_PLLCLKOUT_ENABLE(RCC_PLL1_DIVR);
 799:Drivers/STM32H7xx_HAL_Driver/Src/stm32h7xx_hal_rcc.c **** 
 800:Drivers/STM32H7xx_HAL_Driver/Src/stm32h7xx_hal_rcc.c ****         /* Enable PLL1FRACN . */
 801:Drivers/STM32H7xx_HAL_Driver/Src/stm32h7xx_hal_rcc.c ****          __HAL_RCC_PLLFRACN_ENABLE();
 802:Drivers/STM32H7xx_HAL_Driver/Src/stm32h7xx_hal_rcc.c **** 
ARM GAS  C:\Users\root\AppData\Local\Temp\ccvogEgx.s 			page 38


 803:Drivers/STM32H7xx_HAL_Driver/Src/stm32h7xx_hal_rcc.c ****         /* Enable the main PLL. */
 804:Drivers/STM32H7xx_HAL_Driver/Src/stm32h7xx_hal_rcc.c ****         __HAL_RCC_PLL_ENABLE();
 805:Drivers/STM32H7xx_HAL_Driver/Src/stm32h7xx_hal_rcc.c **** 
 806:Drivers/STM32H7xx_HAL_Driver/Src/stm32h7xx_hal_rcc.c ****         /* Get Start Tick*/
 807:Drivers/STM32H7xx_HAL_Driver/Src/stm32h7xx_hal_rcc.c ****         tickstart = HAL_GetTick();
 808:Drivers/STM32H7xx_HAL_Driver/Src/stm32h7xx_hal_rcc.c **** 
 809:Drivers/STM32H7xx_HAL_Driver/Src/stm32h7xx_hal_rcc.c ****         /* Wait till PLL is ready */
 810:Drivers/STM32H7xx_HAL_Driver/Src/stm32h7xx_hal_rcc.c ****         while(__HAL_RCC_GET_FLAG(RCC_FLAG_PLLRDY) == 0U)
 811:Drivers/STM32H7xx_HAL_Driver/Src/stm32h7xx_hal_rcc.c ****         {
 812:Drivers/STM32H7xx_HAL_Driver/Src/stm32h7xx_hal_rcc.c ****           if((HAL_GetTick() - tickstart ) > PLL_TIMEOUT_VALUE)
 813:Drivers/STM32H7xx_HAL_Driver/Src/stm32h7xx_hal_rcc.c ****           {
 814:Drivers/STM32H7xx_HAL_Driver/Src/stm32h7xx_hal_rcc.c ****             return HAL_TIMEOUT;
 815:Drivers/STM32H7xx_HAL_Driver/Src/stm32h7xx_hal_rcc.c ****           }
 816:Drivers/STM32H7xx_HAL_Driver/Src/stm32h7xx_hal_rcc.c ****         }
 817:Drivers/STM32H7xx_HAL_Driver/Src/stm32h7xx_hal_rcc.c ****       }
 818:Drivers/STM32H7xx_HAL_Driver/Src/stm32h7xx_hal_rcc.c ****       else
 819:Drivers/STM32H7xx_HAL_Driver/Src/stm32h7xx_hal_rcc.c ****       {
 820:Drivers/STM32H7xx_HAL_Driver/Src/stm32h7xx_hal_rcc.c ****         /* Disable the main PLL. */
 821:Drivers/STM32H7xx_HAL_Driver/Src/stm32h7xx_hal_rcc.c ****         __HAL_RCC_PLL_DISABLE();
 1196              		.loc 1 821 9 is_stmt 1 view .LVU391
 1197 03e2 454A     		ldr	r2, .L161
 1198 03e4 1368     		ldr	r3, [r2]
 1199 03e6 23F08073 		bic	r3, r3, #16777216
 1200 03ea 1360     		str	r3, [r2]
 822:Drivers/STM32H7xx_HAL_Driver/Src/stm32h7xx_hal_rcc.c **** 
 823:Drivers/STM32H7xx_HAL_Driver/Src/stm32h7xx_hal_rcc.c ****         /* Get Start Tick*/
 824:Drivers/STM32H7xx_HAL_Driver/Src/stm32h7xx_hal_rcc.c ****         tickstart = HAL_GetTick();
 1201              		.loc 1 824 9 view .LVU392
 1202              		.loc 1 824 21 is_stmt 0 view .LVU393
 1203 03ec FFF7FEFF 		bl	HAL_GetTick
 1204              	.LVL94:
 1205 03f0 0446     		mov	r4, r0
 1206              	.LVL95:
 825:Drivers/STM32H7xx_HAL_Driver/Src/stm32h7xx_hal_rcc.c **** 
 826:Drivers/STM32H7xx_HAL_Driver/Src/stm32h7xx_hal_rcc.c ****         /* Wait till PLL is disabled */
 827:Drivers/STM32H7xx_HAL_Driver/Src/stm32h7xx_hal_rcc.c ****         while(__HAL_RCC_GET_FLAG(RCC_FLAG_PLLRDY) != 0U)
 1207              		.loc 1 827 9 is_stmt 1 view .LVU394
 1208              	.L105:
 1209              		.loc 1 827 14 view .LVU395
 1210              		.loc 1 827 15 is_stmt 0 view .LVU396
 1211 03f2 414B     		ldr	r3, .L161
 1212 03f4 1B68     		ldr	r3, [r3]
 1213              		.loc 1 827 14 view .LVU397
 1214 03f6 13F0007F 		tst	r3, #33554432
 1215 03fa 00F0DD80 		beq	.L153
 828:Drivers/STM32H7xx_HAL_Driver/Src/stm32h7xx_hal_rcc.c ****         {
 829:Drivers/STM32H7xx_HAL_Driver/Src/stm32h7xx_hal_rcc.c ****           if((HAL_GetTick() - tickstart ) > PLL_TIMEOUT_VALUE)
 1216              		.loc 1 829 11 is_stmt 1 view .LVU398
 1217              		.loc 1 829 15 is_stmt 0 view .LVU399
 1218 03fe FFF7FEFF 		bl	HAL_GetTick
 1219              	.LVL96:
 1220              		.loc 1 829 29 view .LVU400
 1221 0402 001B     		subs	r0, r0, r4
 1222              		.loc 1 829 13 view .LVU401
 1223 0404 0228     		cmp	r0, #2
 1224 0406 F4D9     		bls	.L105
 830:Drivers/STM32H7xx_HAL_Driver/Src/stm32h7xx_hal_rcc.c ****           {
ARM GAS  C:\Users\root\AppData\Local\Temp\ccvogEgx.s 			page 39


 831:Drivers/STM32H7xx_HAL_Driver/Src/stm32h7xx_hal_rcc.c ****             return HAL_TIMEOUT;
 1225              		.loc 1 831 20 view .LVU402
 1226 0408 0320     		movs	r0, #3
 1227 040a 09E1     		b	.L36
 1228              	.LVL97:
 1229              	.L151:
 689:Drivers/STM32H7xx_HAL_Driver/Src/stm32h7xx_hal_rcc.c **** 
 1230              		.loc 1 689 5 is_stmt 1 view .LVU403
 692:Drivers/STM32H7xx_HAL_Driver/Src/stm32h7xx_hal_rcc.c **** 
 1231              		.loc 1 692 5 view .LVU404
 692:Drivers/STM32H7xx_HAL_Driver/Src/stm32h7xx_hal_rcc.c **** 
 1232              		.loc 1 692 14 is_stmt 0 view .LVU405
 1233 040c 3B4A     		ldr	r2, .L161+4
 1234 040e 1368     		ldr	r3, [r2]
 1235 0410 43F48073 		orr	r3, r3, #256
 1236 0414 1360     		str	r3, [r2]
 695:Drivers/STM32H7xx_HAL_Driver/Src/stm32h7xx_hal_rcc.c **** 
 1237              		.loc 1 695 5 is_stmt 1 view .LVU406
 695:Drivers/STM32H7xx_HAL_Driver/Src/stm32h7xx_hal_rcc.c **** 
 1238              		.loc 1 695 17 is_stmt 0 view .LVU407
 1239 0416 FFF7FEFF 		bl	HAL_GetTick
 1240              	.LVL98:
 1241 041a 0546     		mov	r5, r0
 1242              	.LVL99:
 697:Drivers/STM32H7xx_HAL_Driver/Src/stm32h7xx_hal_rcc.c ****     {
 1243              		.loc 1 697 5 is_stmt 1 view .LVU408
 1244              	.L88:
 697:Drivers/STM32H7xx_HAL_Driver/Src/stm32h7xx_hal_rcc.c ****     {
 1245              		.loc 1 697 10 view .LVU409
 697:Drivers/STM32H7xx_HAL_Driver/Src/stm32h7xx_hal_rcc.c ****     {
 1246              		.loc 1 697 15 is_stmt 0 view .LVU410
 1247 041c 374B     		ldr	r3, .L161+4
 1248 041e 1B68     		ldr	r3, [r3]
 697:Drivers/STM32H7xx_HAL_Driver/Src/stm32h7xx_hal_rcc.c ****     {
 1249              		.loc 1 697 10 view .LVU411
 1250 0420 13F4807F 		tst	r3, #256
 1251 0424 06D1     		bne	.L154
 699:Drivers/STM32H7xx_HAL_Driver/Src/stm32h7xx_hal_rcc.c ****       {
 1252              		.loc 1 699 7 is_stmt 1 view .LVU412
 699:Drivers/STM32H7xx_HAL_Driver/Src/stm32h7xx_hal_rcc.c ****       {
 1253              		.loc 1 699 11 is_stmt 0 view .LVU413
 1254 0426 FFF7FEFF 		bl	HAL_GetTick
 1255              	.LVL100:
 699:Drivers/STM32H7xx_HAL_Driver/Src/stm32h7xx_hal_rcc.c ****       {
 1256              		.loc 1 699 25 view .LVU414
 1257 042a 401B     		subs	r0, r0, r5
 699:Drivers/STM32H7xx_HAL_Driver/Src/stm32h7xx_hal_rcc.c ****       {
 1258              		.loc 1 699 9 view .LVU415
 1259 042c 6428     		cmp	r0, #100
 1260 042e F5D9     		bls	.L88
 701:Drivers/STM32H7xx_HAL_Driver/Src/stm32h7xx_hal_rcc.c ****       }
 1261              		.loc 1 701 16 view .LVU416
 1262 0430 0320     		movs	r0, #3
 1263 0432 F5E0     		b	.L36
 1264              	.L154:
 706:Drivers/STM32H7xx_HAL_Driver/Src/stm32h7xx_hal_rcc.c ****     /* Check the LSE State */
 1265              		.loc 1 706 5 is_stmt 1 view .LVU417
ARM GAS  C:\Users\root\AppData\Local\Temp\ccvogEgx.s 			page 40


 706:Drivers/STM32H7xx_HAL_Driver/Src/stm32h7xx_hal_rcc.c ****     /* Check the LSE State */
 1266              		.loc 1 706 5 view .LVU418
 1267 0434 A368     		ldr	r3, [r4, #8]
 1268 0436 012B     		cmp	r3, #1
 1269 0438 0AD0     		beq	.L155
 706:Drivers/STM32H7xx_HAL_Driver/Src/stm32h7xx_hal_rcc.c ****     /* Check the LSE State */
 1270              		.loc 1 706 5 discriminator 2 view .LVU419
 1271 043a 0BBB     		cbnz	r3, .L92
 706:Drivers/STM32H7xx_HAL_Driver/Src/stm32h7xx_hal_rcc.c ****     /* Check the LSE State */
 1272              		.loc 1 706 5 discriminator 4 view .LVU420
 1273 043c 2E4B     		ldr	r3, .L161
 1274 043e 1A6F     		ldr	r2, [r3, #112]
 1275 0440 22F00102 		bic	r2, r2, #1
 1276 0444 1A67     		str	r2, [r3, #112]
 706:Drivers/STM32H7xx_HAL_Driver/Src/stm32h7xx_hal_rcc.c ****     /* Check the LSE State */
 1277              		.loc 1 706 5 discriminator 4 view .LVU421
 1278 0446 1A6F     		ldr	r2, [r3, #112]
 1279 0448 22F00402 		bic	r2, r2, #4
 1280 044c 1A67     		str	r2, [r3, #112]
 1281 044e 04E0     		b	.L91
 1282              	.L155:
 706:Drivers/STM32H7xx_HAL_Driver/Src/stm32h7xx_hal_rcc.c ****     /* Check the LSE State */
 1283              		.loc 1 706 5 discriminator 1 view .LVU422
 1284 0450 294A     		ldr	r2, .L161
 1285 0452 136F     		ldr	r3, [r2, #112]
 1286 0454 43F00103 		orr	r3, r3, #1
 1287 0458 1367     		str	r3, [r2, #112]
 1288              	.L91:
 706:Drivers/STM32H7xx_HAL_Driver/Src/stm32h7xx_hal_rcc.c ****     /* Check the LSE State */
 1289              		.loc 1 706 5 discriminator 10 view .LVU423
 708:Drivers/STM32H7xx_HAL_Driver/Src/stm32h7xx_hal_rcc.c ****     {
 1290              		.loc 1 708 5 discriminator 10 view .LVU424
 708:Drivers/STM32H7xx_HAL_Driver/Src/stm32h7xx_hal_rcc.c ****     {
 1291              		.loc 1 708 26 is_stmt 0 discriminator 10 view .LVU425
 1292 045a A368     		ldr	r3, [r4, #8]
 708:Drivers/STM32H7xx_HAL_Driver/Src/stm32h7xx_hal_rcc.c ****     {
 1293              		.loc 1 708 7 discriminator 10 view .LVU426
 1294 045c 33B3     		cbz	r3, .L94
 711:Drivers/STM32H7xx_HAL_Driver/Src/stm32h7xx_hal_rcc.c **** 
 1295              		.loc 1 711 7 is_stmt 1 view .LVU427
 711:Drivers/STM32H7xx_HAL_Driver/Src/stm32h7xx_hal_rcc.c **** 
 1296              		.loc 1 711 19 is_stmt 0 view .LVU428
 1297 045e FFF7FEFF 		bl	HAL_GetTick
 1298              	.LVL101:
 1299 0462 0546     		mov	r5, r0
 1300              	.LVL102:
 714:Drivers/STM32H7xx_HAL_Driver/Src/stm32h7xx_hal_rcc.c ****       {
 1301              		.loc 1 714 7 is_stmt 1 view .LVU429
 1302              	.L95:
 714:Drivers/STM32H7xx_HAL_Driver/Src/stm32h7xx_hal_rcc.c ****       {
 1303              		.loc 1 714 12 view .LVU430
 714:Drivers/STM32H7xx_HAL_Driver/Src/stm32h7xx_hal_rcc.c ****       {
 1304              		.loc 1 714 13 is_stmt 0 view .LVU431
 1305 0464 244B     		ldr	r3, .L161
 1306 0466 1B6F     		ldr	r3, [r3, #112]
 714:Drivers/STM32H7xx_HAL_Driver/Src/stm32h7xx_hal_rcc.c ****       {
 1307              		.loc 1 714 12 view .LVU432
ARM GAS  C:\Users\root\AppData\Local\Temp\ccvogEgx.s 			page 41


 1308 0468 13F0020F 		tst	r3, #2
 1309 046c ACD1     		bne	.L87
 716:Drivers/STM32H7xx_HAL_Driver/Src/stm32h7xx_hal_rcc.c ****         {
 1310              		.loc 1 716 9 is_stmt 1 view .LVU433
 716:Drivers/STM32H7xx_HAL_Driver/Src/stm32h7xx_hal_rcc.c ****         {
 1311              		.loc 1 716 13 is_stmt 0 view .LVU434
 1312 046e FFF7FEFF 		bl	HAL_GetTick
 1313              	.LVL103:
 716:Drivers/STM32H7xx_HAL_Driver/Src/stm32h7xx_hal_rcc.c ****         {
 1314              		.loc 1 716 27 view .LVU435
 1315 0472 401B     		subs	r0, r0, r5
 716:Drivers/STM32H7xx_HAL_Driver/Src/stm32h7xx_hal_rcc.c ****         {
 1316              		.loc 1 716 11 view .LVU436
 1317 0474 41F28833 		movw	r3, #5000
 1318 0478 9842     		cmp	r0, r3
 1319 047a F3D9     		bls	.L95
 718:Drivers/STM32H7xx_HAL_Driver/Src/stm32h7xx_hal_rcc.c ****         }
 1320              		.loc 1 718 18 view .LVU437
 1321 047c 0320     		movs	r0, #3
 1322 047e CFE0     		b	.L36
 1323              	.L92:
 706:Drivers/STM32H7xx_HAL_Driver/Src/stm32h7xx_hal_rcc.c ****     /* Check the LSE State */
 1324              		.loc 1 706 5 is_stmt 1 discriminator 5 view .LVU438
 1325 0480 052B     		cmp	r3, #5
 1326 0482 09D0     		beq	.L156
 706:Drivers/STM32H7xx_HAL_Driver/Src/stm32h7xx_hal_rcc.c ****     /* Check the LSE State */
 1327              		.loc 1 706 5 discriminator 8 view .LVU439
 1328 0484 1C4B     		ldr	r3, .L161
 1329 0486 1A6F     		ldr	r2, [r3, #112]
 1330 0488 22F00102 		bic	r2, r2, #1
 1331 048c 1A67     		str	r2, [r3, #112]
 706:Drivers/STM32H7xx_HAL_Driver/Src/stm32h7xx_hal_rcc.c ****     /* Check the LSE State */
 1332              		.loc 1 706 5 discriminator 8 view .LVU440
 1333 048e 1A6F     		ldr	r2, [r3, #112]
 1334 0490 22F00402 		bic	r2, r2, #4
 1335 0494 1A67     		str	r2, [r3, #112]
 1336 0496 E0E7     		b	.L91
 1337              	.L156:
 706:Drivers/STM32H7xx_HAL_Driver/Src/stm32h7xx_hal_rcc.c ****     /* Check the LSE State */
 1338              		.loc 1 706 5 discriminator 7 view .LVU441
 1339 0498 174B     		ldr	r3, .L161
 1340 049a 1A6F     		ldr	r2, [r3, #112]
 1341 049c 42F00402 		orr	r2, r2, #4
 1342 04a0 1A67     		str	r2, [r3, #112]
 706:Drivers/STM32H7xx_HAL_Driver/Src/stm32h7xx_hal_rcc.c ****     /* Check the LSE State */
 1343              		.loc 1 706 5 discriminator 7 view .LVU442
 1344 04a2 1A6F     		ldr	r2, [r3, #112]
 1345 04a4 42F00102 		orr	r2, r2, #1
 1346 04a8 1A67     		str	r2, [r3, #112]
 1347 04aa D6E7     		b	.L91
 1348              	.L94:
 725:Drivers/STM32H7xx_HAL_Driver/Src/stm32h7xx_hal_rcc.c **** 
 1349              		.loc 1 725 7 view .LVU443
 725:Drivers/STM32H7xx_HAL_Driver/Src/stm32h7xx_hal_rcc.c **** 
 1350              		.loc 1 725 19 is_stmt 0 view .LVU444
 1351 04ac FFF7FEFF 		bl	HAL_GetTick
 1352              	.LVL104:
ARM GAS  C:\Users\root\AppData\Local\Temp\ccvogEgx.s 			page 42


 1353 04b0 0546     		mov	r5, r0
 1354              	.LVL105:
 728:Drivers/STM32H7xx_HAL_Driver/Src/stm32h7xx_hal_rcc.c ****       {
 1355              		.loc 1 728 7 is_stmt 1 view .LVU445
 1356              	.L97:
 728:Drivers/STM32H7xx_HAL_Driver/Src/stm32h7xx_hal_rcc.c ****       {
 1357              		.loc 1 728 12 view .LVU446
 728:Drivers/STM32H7xx_HAL_Driver/Src/stm32h7xx_hal_rcc.c ****       {
 1358              		.loc 1 728 13 is_stmt 0 view .LVU447
 1359 04b2 114B     		ldr	r3, .L161
 1360 04b4 1B6F     		ldr	r3, [r3, #112]
 728:Drivers/STM32H7xx_HAL_Driver/Src/stm32h7xx_hal_rcc.c ****       {
 1361              		.loc 1 728 12 view .LVU448
 1362 04b6 13F0020F 		tst	r3, #2
 1363 04ba 85D0     		beq	.L87
 730:Drivers/STM32H7xx_HAL_Driver/Src/stm32h7xx_hal_rcc.c ****         {
 1364              		.loc 1 730 9 is_stmt 1 view .LVU449
 730:Drivers/STM32H7xx_HAL_Driver/Src/stm32h7xx_hal_rcc.c ****         {
 1365              		.loc 1 730 13 is_stmt 0 view .LVU450
 1366 04bc FFF7FEFF 		bl	HAL_GetTick
 1367              	.LVL106:
 730:Drivers/STM32H7xx_HAL_Driver/Src/stm32h7xx_hal_rcc.c ****         {
 1368              		.loc 1 730 27 view .LVU451
 1369 04c0 401B     		subs	r0, r0, r5
 730:Drivers/STM32H7xx_HAL_Driver/Src/stm32h7xx_hal_rcc.c ****         {
 1370              		.loc 1 730 11 view .LVU452
 1371 04c2 41F28833 		movw	r3, #5000
 1372 04c6 9842     		cmp	r0, r3
 1373 04c8 F3D9     		bls	.L97
 732:Drivers/STM32H7xx_HAL_Driver/Src/stm32h7xx_hal_rcc.c ****         }
 1374              		.loc 1 732 18 view .LVU453
 1375 04ca 0320     		movs	r0, #3
 1376 04cc A8E0     		b	.L36
 1377              	.LVL107:
 1378              	.L152:
 748:Drivers/STM32H7xx_HAL_Driver/Src/stm32h7xx_hal_rcc.c ****         assert_param(IS_RCC_PLLM_VALUE(RCC_OscInitStruct->PLL.PLLM));
 1379              		.loc 1 748 9 is_stmt 1 view .LVU454
 749:Drivers/STM32H7xx_HAL_Driver/Src/stm32h7xx_hal_rcc.c ****         assert_param(IS_RCC_PLLN_VALUE(RCC_OscInitStruct->PLL.PLLN));
 1380              		.loc 1 749 9 view .LVU455
 750:Drivers/STM32H7xx_HAL_Driver/Src/stm32h7xx_hal_rcc.c ****         assert_param(IS_RCC_PLLP_VALUE(RCC_OscInitStruct->PLL.PLLP));
 1381              		.loc 1 750 9 view .LVU456
 751:Drivers/STM32H7xx_HAL_Driver/Src/stm32h7xx_hal_rcc.c ****         assert_param(IS_RCC_PLLQ_VALUE(RCC_OscInitStruct->PLL.PLLQ));
 1382              		.loc 1 751 9 view .LVU457
 752:Drivers/STM32H7xx_HAL_Driver/Src/stm32h7xx_hal_rcc.c ****         assert_param(IS_RCC_PLLR_VALUE(RCC_OscInitStruct->PLL.PLLR));
 1383              		.loc 1 752 9 view .LVU458
 753:Drivers/STM32H7xx_HAL_Driver/Src/stm32h7xx_hal_rcc.c ****         assert_param(IS_RCC_PLLFRACN_VALUE(RCC_OscInitStruct->PLL.PLLFRACN));
 1384              		.loc 1 753 9 view .LVU459
 754:Drivers/STM32H7xx_HAL_Driver/Src/stm32h7xx_hal_rcc.c **** 
 1385              		.loc 1 754 9 view .LVU460
 757:Drivers/STM32H7xx_HAL_Driver/Src/stm32h7xx_hal_rcc.c **** 
 1386              		.loc 1 757 9 view .LVU461
 1387 04ce 0A4A     		ldr	r2, .L161
 1388 04d0 1368     		ldr	r3, [r2]
 1389 04d2 23F08073 		bic	r3, r3, #16777216
 1390 04d6 1360     		str	r3, [r2]
 760:Drivers/STM32H7xx_HAL_Driver/Src/stm32h7xx_hal_rcc.c **** 
 1391              		.loc 1 760 9 view .LVU462
ARM GAS  C:\Users\root\AppData\Local\Temp\ccvogEgx.s 			page 43


 760:Drivers/STM32H7xx_HAL_Driver/Src/stm32h7xx_hal_rcc.c **** 
 1392              		.loc 1 760 21 is_stmt 0 view .LVU463
 1393 04d8 FFF7FEFF 		bl	HAL_GetTick
 1394              	.LVL108:
 1395 04dc 0546     		mov	r5, r0
 1396              	.LVL109:
 763:Drivers/STM32H7xx_HAL_Driver/Src/stm32h7xx_hal_rcc.c ****         {
 1397              		.loc 1 763 9 is_stmt 1 view .LVU464
 1398              	.L101:
 763:Drivers/STM32H7xx_HAL_Driver/Src/stm32h7xx_hal_rcc.c ****         {
 1399              		.loc 1 763 14 view .LVU465
 763:Drivers/STM32H7xx_HAL_Driver/Src/stm32h7xx_hal_rcc.c ****         {
 1400              		.loc 1 763 15 is_stmt 0 view .LVU466
 1401 04de 064B     		ldr	r3, .L161
 1402 04e0 1B68     		ldr	r3, [r3]
 763:Drivers/STM32H7xx_HAL_Driver/Src/stm32h7xx_hal_rcc.c ****         {
 1403              		.loc 1 763 14 view .LVU467
 1404 04e2 13F0007F 		tst	r3, #33554432
 1405 04e6 0BD0     		beq	.L157
 765:Drivers/STM32H7xx_HAL_Driver/Src/stm32h7xx_hal_rcc.c ****           {
 1406              		.loc 1 765 11 is_stmt 1 view .LVU468
 765:Drivers/STM32H7xx_HAL_Driver/Src/stm32h7xx_hal_rcc.c ****           {
 1407              		.loc 1 765 15 is_stmt 0 view .LVU469
 1408 04e8 FFF7FEFF 		bl	HAL_GetTick
 1409              	.LVL110:
 765:Drivers/STM32H7xx_HAL_Driver/Src/stm32h7xx_hal_rcc.c ****           {
 1410              		.loc 1 765 29 view .LVU470
 1411 04ec 401B     		subs	r0, r0, r5
 765:Drivers/STM32H7xx_HAL_Driver/Src/stm32h7xx_hal_rcc.c ****           {
 1412              		.loc 1 765 13 view .LVU471
 1413 04ee 0228     		cmp	r0, #2
 1414 04f0 F5D9     		bls	.L101
 767:Drivers/STM32H7xx_HAL_Driver/Src/stm32h7xx_hal_rcc.c ****           }
 1415              		.loc 1 767 20 view .LVU472
 1416 04f2 0320     		movs	r0, #3
 1417 04f4 94E0     		b	.L36
 1418              	.L162:
 1419 04f6 00BF     		.align	2
 1420              	.L161:
 1421 04f8 00440258 		.word	1476543488
 1422 04fc 00480258 		.word	1476544512
 1423              	.L157:
 772:Drivers/STM32H7xx_HAL_Driver/Src/stm32h7xx_hal_rcc.c ****                              RCC_OscInitStruct->PLL.PLLM,
 1424              		.loc 1 772 9 is_stmt 1 view .LVU473
 772:Drivers/STM32H7xx_HAL_Driver/Src/stm32h7xx_hal_rcc.c ****                              RCC_OscInitStruct->PLL.PLLM,
 1425              		.loc 1 772 9 view .LVU474
 1426 0500 4F4B     		ldr	r3, .L163
 1427 0502 996A     		ldr	r1, [r3, #40]
 1428 0504 4F4A     		ldr	r2, .L163+4
 1429 0506 0A40     		ands	r2, r2, r1
 1430 0508 A16A     		ldr	r1, [r4, #40]
 1431 050a E06A     		ldr	r0, [r4, #44]
 1432 050c 41EA0011 		orr	r1, r1, r0, lsl #4
 1433 0510 0A43     		orrs	r2, r2, r1
 1434 0512 9A62     		str	r2, [r3, #40]
 772:Drivers/STM32H7xx_HAL_Driver/Src/stm32h7xx_hal_rcc.c ****                              RCC_OscInitStruct->PLL.PLLM,
 1435              		.loc 1 772 9 view .LVU475
ARM GAS  C:\Users\root\AppData\Local\Temp\ccvogEgx.s 			page 44


 1436 0514 226B     		ldr	r2, [r4, #48]
 1437 0516 013A     		subs	r2, r2, #1
 1438 0518 C2F30802 		ubfx	r2, r2, #0, #9
 1439 051c 616B     		ldr	r1, [r4, #52]
 1440 051e 0139     		subs	r1, r1, #1
 1441 0520 4902     		lsls	r1, r1, #9
 1442 0522 89B2     		uxth	r1, r1
 1443 0524 0A43     		orrs	r2, r2, r1
 1444 0526 A16B     		ldr	r1, [r4, #56]
 1445 0528 0139     		subs	r1, r1, #1
 1446 052a 0904     		lsls	r1, r1, #16
 1447 052c 01F4FE01 		and	r1, r1, #8323072
 1448 0530 0A43     		orrs	r2, r2, r1
 1449 0532 E16B     		ldr	r1, [r4, #60]
 1450 0534 0139     		subs	r1, r1, #1
 1451 0536 0906     		lsls	r1, r1, #24
 1452 0538 01F0FE41 		and	r1, r1, #2130706432
 1453 053c 0A43     		orrs	r2, r2, r1
 1454 053e 1A63     		str	r2, [r3, #48]
 772:Drivers/STM32H7xx_HAL_Driver/Src/stm32h7xx_hal_rcc.c ****                              RCC_OscInitStruct->PLL.PLLM,
 1455              		.loc 1 772 9 view .LVU476
 780:Drivers/STM32H7xx_HAL_Driver/Src/stm32h7xx_hal_rcc.c **** 
 1456              		.loc 1 780 10 view .LVU477
 1457 0540 DA6A     		ldr	r2, [r3, #44]
 1458 0542 22F00102 		bic	r2, r2, #1
 1459 0546 DA62     		str	r2, [r3, #44]
 783:Drivers/STM32H7xx_HAL_Driver/Src/stm32h7xx_hal_rcc.c **** 
 1460              		.loc 1 783 10 view .LVU478
 1461 0548 596B     		ldr	r1, [r3, #52]
 1462 054a 3F4A     		ldr	r2, .L163+8
 1463 054c 0A40     		ands	r2, r2, r1
 1464 054e A16C     		ldr	r1, [r4, #72]
 1465 0550 42EAC102 		orr	r2, r2, r1, lsl #3
 1466 0554 5A63     		str	r2, [r3, #52]
 786:Drivers/STM32H7xx_HAL_Driver/Src/stm32h7xx_hal_rcc.c **** 
 1467              		.loc 1 786 9 view .LVU479
 1468 0556 DA6A     		ldr	r2, [r3, #44]
 1469 0558 22F00C02 		bic	r2, r2, #12
 1470 055c 216C     		ldr	r1, [r4, #64]
 1471 055e 0A43     		orrs	r2, r2, r1
 1472 0560 DA62     		str	r2, [r3, #44]
 789:Drivers/STM32H7xx_HAL_Driver/Src/stm32h7xx_hal_rcc.c **** 
 1473              		.loc 1 789 9 view .LVU480
 1474 0562 DA6A     		ldr	r2, [r3, #44]
 1475 0564 22F00202 		bic	r2, r2, #2
 1476 0568 616C     		ldr	r1, [r4, #68]
 1477 056a 0A43     		orrs	r2, r2, r1
 1478 056c DA62     		str	r2, [r3, #44]
 792:Drivers/STM32H7xx_HAL_Driver/Src/stm32h7xx_hal_rcc.c **** 
 1479              		.loc 1 792 10 view .LVU481
 1480 056e DA6A     		ldr	r2, [r3, #44]
 1481 0570 42F48032 		orr	r2, r2, #65536
 1482 0574 DA62     		str	r2, [r3, #44]
 795:Drivers/STM32H7xx_HAL_Driver/Src/stm32h7xx_hal_rcc.c **** 
 1483              		.loc 1 795 10 view .LVU482
 1484 0576 DA6A     		ldr	r2, [r3, #44]
 1485 0578 42F40032 		orr	r2, r2, #131072
ARM GAS  C:\Users\root\AppData\Local\Temp\ccvogEgx.s 			page 45


 1486 057c DA62     		str	r2, [r3, #44]
 798:Drivers/STM32H7xx_HAL_Driver/Src/stm32h7xx_hal_rcc.c **** 
 1487              		.loc 1 798 10 view .LVU483
 1488 057e DA6A     		ldr	r2, [r3, #44]
 1489 0580 42F48022 		orr	r2, r2, #262144
 1490 0584 DA62     		str	r2, [r3, #44]
 801:Drivers/STM32H7xx_HAL_Driver/Src/stm32h7xx_hal_rcc.c **** 
 1491              		.loc 1 801 10 view .LVU484
 1492 0586 DA6A     		ldr	r2, [r3, #44]
 1493 0588 42F00102 		orr	r2, r2, #1
 1494 058c DA62     		str	r2, [r3, #44]
 804:Drivers/STM32H7xx_HAL_Driver/Src/stm32h7xx_hal_rcc.c **** 
 1495              		.loc 1 804 9 view .LVU485
 1496 058e 1A68     		ldr	r2, [r3]
 1497 0590 42F08072 		orr	r2, r2, #16777216
 1498 0594 1A60     		str	r2, [r3]
 807:Drivers/STM32H7xx_HAL_Driver/Src/stm32h7xx_hal_rcc.c **** 
 1499              		.loc 1 807 9 view .LVU486
 807:Drivers/STM32H7xx_HAL_Driver/Src/stm32h7xx_hal_rcc.c **** 
 1500              		.loc 1 807 21 is_stmt 0 view .LVU487
 1501 0596 FFF7FEFF 		bl	HAL_GetTick
 1502              	.LVL111:
 1503 059a 0446     		mov	r4, r0
 1504              	.LVL112:
 810:Drivers/STM32H7xx_HAL_Driver/Src/stm32h7xx_hal_rcc.c ****         {
 1505              		.loc 1 810 9 is_stmt 1 view .LVU488
 1506              	.L103:
 810:Drivers/STM32H7xx_HAL_Driver/Src/stm32h7xx_hal_rcc.c ****         {
 1507              		.loc 1 810 14 view .LVU489
 810:Drivers/STM32H7xx_HAL_Driver/Src/stm32h7xx_hal_rcc.c ****         {
 1508              		.loc 1 810 15 is_stmt 0 view .LVU490
 1509 059c 284B     		ldr	r3, .L163
 1510 059e 1B68     		ldr	r3, [r3]
 810:Drivers/STM32H7xx_HAL_Driver/Src/stm32h7xx_hal_rcc.c ****         {
 1511              		.loc 1 810 14 view .LVU491
 1512 05a0 13F0007F 		tst	r3, #33554432
 1513 05a4 06D1     		bne	.L158
 812:Drivers/STM32H7xx_HAL_Driver/Src/stm32h7xx_hal_rcc.c ****           {
 1514              		.loc 1 812 11 is_stmt 1 view .LVU492
 812:Drivers/STM32H7xx_HAL_Driver/Src/stm32h7xx_hal_rcc.c ****           {
 1515              		.loc 1 812 15 is_stmt 0 view .LVU493
 1516 05a6 FFF7FEFF 		bl	HAL_GetTick
 1517              	.LVL113:
 812:Drivers/STM32H7xx_HAL_Driver/Src/stm32h7xx_hal_rcc.c ****           {
 1518              		.loc 1 812 29 view .LVU494
 1519 05aa 001B     		subs	r0, r0, r4
 812:Drivers/STM32H7xx_HAL_Driver/Src/stm32h7xx_hal_rcc.c ****           {
 1520              		.loc 1 812 13 view .LVU495
 1521 05ac 0228     		cmp	r0, #2
 1522 05ae F5D9     		bls	.L103
 814:Drivers/STM32H7xx_HAL_Driver/Src/stm32h7xx_hal_rcc.c ****           }
 1523              		.loc 1 814 20 view .LVU496
 1524 05b0 0320     		movs	r0, #3
 1525 05b2 35E0     		b	.L36
 1526              	.L158:
 832:Drivers/STM32H7xx_HAL_Driver/Src/stm32h7xx_hal_rcc.c ****           }
 833:Drivers/STM32H7xx_HAL_Driver/Src/stm32h7xx_hal_rcc.c ****         }
ARM GAS  C:\Users\root\AppData\Local\Temp\ccvogEgx.s 			page 46


 834:Drivers/STM32H7xx_HAL_Driver/Src/stm32h7xx_hal_rcc.c ****       }
 835:Drivers/STM32H7xx_HAL_Driver/Src/stm32h7xx_hal_rcc.c ****     }
 836:Drivers/STM32H7xx_HAL_Driver/Src/stm32h7xx_hal_rcc.c ****     else
 837:Drivers/STM32H7xx_HAL_Driver/Src/stm32h7xx_hal_rcc.c ****     {
 838:Drivers/STM32H7xx_HAL_Driver/Src/stm32h7xx_hal_rcc.c ****       /* Do not return HAL_ERROR if request repeats the current configuration */
 839:Drivers/STM32H7xx_HAL_Driver/Src/stm32h7xx_hal_rcc.c ****       temp1_pllckcfg = RCC->PLLCKSELR;
 840:Drivers/STM32H7xx_HAL_Driver/Src/stm32h7xx_hal_rcc.c ****       temp2_pllckcfg = RCC->PLL1DIVR;
 841:Drivers/STM32H7xx_HAL_Driver/Src/stm32h7xx_hal_rcc.c ****       if(((RCC_OscInitStruct->PLL.PLLState) == RCC_PLL_OFF) ||
 842:Drivers/STM32H7xx_HAL_Driver/Src/stm32h7xx_hal_rcc.c **** 	 (READ_BIT(temp1_pllckcfg, RCC_PLLCKSELR_PLLSRC) != RCC_OscInitStruct->PLL.PLLSource) ||
 843:Drivers/STM32H7xx_HAL_Driver/Src/stm32h7xx_hal_rcc.c ****          ((READ_BIT(temp1_pllckcfg, RCC_PLLCKSELR_DIVM1) >> RCC_PLLCKSELR_DIVM1_Pos) != RCC_OscInit
 844:Drivers/STM32H7xx_HAL_Driver/Src/stm32h7xx_hal_rcc.c ****          (READ_BIT(temp2_pllckcfg, RCC_PLL1DIVR_N1) != (RCC_OscInitStruct->PLL.PLLN - 1U)) ||
 845:Drivers/STM32H7xx_HAL_Driver/Src/stm32h7xx_hal_rcc.c ****          ((READ_BIT(temp2_pllckcfg, RCC_PLL1DIVR_P1) >> RCC_PLL1DIVR_P1_Pos) != (RCC_OscInitStruct-
 846:Drivers/STM32H7xx_HAL_Driver/Src/stm32h7xx_hal_rcc.c ****          ((READ_BIT(temp2_pllckcfg, RCC_PLL1DIVR_Q1) >> RCC_PLL1DIVR_Q1_Pos) != (RCC_OscInitStruct-
 847:Drivers/STM32H7xx_HAL_Driver/Src/stm32h7xx_hal_rcc.c ****          ((READ_BIT(temp2_pllckcfg, RCC_PLL1DIVR_R1) >> RCC_PLL1DIVR_R1_Pos) != (RCC_OscInitStruct-
 848:Drivers/STM32H7xx_HAL_Driver/Src/stm32h7xx_hal_rcc.c ****       {
 849:Drivers/STM32H7xx_HAL_Driver/Src/stm32h7xx_hal_rcc.c ****         return HAL_ERROR;
 850:Drivers/STM32H7xx_HAL_Driver/Src/stm32h7xx_hal_rcc.c ****       }
 851:Drivers/STM32H7xx_HAL_Driver/Src/stm32h7xx_hal_rcc.c ****     }
 852:Drivers/STM32H7xx_HAL_Driver/Src/stm32h7xx_hal_rcc.c ****   }
 853:Drivers/STM32H7xx_HAL_Driver/Src/stm32h7xx_hal_rcc.c ****   return HAL_OK;
 1527              		.loc 1 853 10 view .LVU497
 1528 05b4 0020     		movs	r0, #0
 1529 05b6 33E0     		b	.L36
 1530              	.L153:
 1531              		.loc 1 853 10 view .LVU498
 1532 05b8 0020     		movs	r0, #0
 1533 05ba 31E0     		b	.L36
 1534              	.LVL114:
 1535              	.L99:
 839:Drivers/STM32H7xx_HAL_Driver/Src/stm32h7xx_hal_rcc.c ****       temp2_pllckcfg = RCC->PLL1DIVR;
 1536              		.loc 1 839 7 is_stmt 1 view .LVU499
 839:Drivers/STM32H7xx_HAL_Driver/Src/stm32h7xx_hal_rcc.c ****       temp2_pllckcfg = RCC->PLL1DIVR;
 1537              		.loc 1 839 22 is_stmt 0 view .LVU500
 1538 05bc 204A     		ldr	r2, .L163
 1539 05be 916A     		ldr	r1, [r2, #40]
 1540              	.LVL115:
 840:Drivers/STM32H7xx_HAL_Driver/Src/stm32h7xx_hal_rcc.c ****       if(((RCC_OscInitStruct->PLL.PLLState) == RCC_PLL_OFF) ||
 1541              		.loc 1 840 7 is_stmt 1 view .LVU501
 840:Drivers/STM32H7xx_HAL_Driver/Src/stm32h7xx_hal_rcc.c ****       if(((RCC_OscInitStruct->PLL.PLLState) == RCC_PLL_OFF) ||
 1542              		.loc 1 840 22 is_stmt 0 view .LVU502
 1543 05c0 106B     		ldr	r0, [r2, #48]
 1544              	.LVL116:
 841:Drivers/STM32H7xx_HAL_Driver/Src/stm32h7xx_hal_rcc.c **** 	 (READ_BIT(temp1_pllckcfg, RCC_PLLCKSELR_PLLSRC) != RCC_OscInitStruct->PLL.PLLSource) ||
 1545              		.loc 1 841 7 is_stmt 1 view .LVU503
 841:Drivers/STM32H7xx_HAL_Driver/Src/stm32h7xx_hal_rcc.c **** 	 (READ_BIT(temp1_pllckcfg, RCC_PLLCKSELR_PLLSRC) != RCC_OscInitStruct->PLL.PLLSource) ||
 1546              		.loc 1 841 9 is_stmt 0 view .LVU504
 1547 05c2 012B     		cmp	r3, #1
 1548 05c4 2DD0     		beq	.L128
 842:Drivers/STM32H7xx_HAL_Driver/Src/stm32h7xx_hal_rcc.c ****          ((READ_BIT(temp1_pllckcfg, RCC_PLLCKSELR_DIVM1) >> RCC_PLLCKSELR_DIVM1_Pos) != RCC_OscInit
 1549              		.loc 1 842 4 discriminator 1 view .LVU505
 1550 05c6 01F00303 		and	r3, r1, #3
 842:Drivers/STM32H7xx_HAL_Driver/Src/stm32h7xx_hal_rcc.c ****          ((READ_BIT(temp1_pllckcfg, RCC_PLLCKSELR_DIVM1) >> RCC_PLLCKSELR_DIVM1_Pos) != RCC_OscInit
 1551              		.loc 1 842 76 discriminator 1 view .LVU506
 1552 05ca A26A     		ldr	r2, [r4, #40]
 841:Drivers/STM32H7xx_HAL_Driver/Src/stm32h7xx_hal_rcc.c **** 	 (READ_BIT(temp1_pllckcfg, RCC_PLLCKSELR_PLLSRC) != RCC_OscInitStruct->PLL.PLLSource) ||
 1553              		.loc 1 841 61 discriminator 1 view .LVU507
 1554 05cc 9342     		cmp	r3, r2
ARM GAS  C:\Users\root\AppData\Local\Temp\ccvogEgx.s 			page 47


 1555 05ce 2AD1     		bne	.L129
 843:Drivers/STM32H7xx_HAL_Driver/Src/stm32h7xx_hal_rcc.c ****          (READ_BIT(temp2_pllckcfg, RCC_PLL1DIVR_N1) != (RCC_OscInitStruct->PLL.PLLN - 1U)) ||
 1556              		.loc 1 843 58 view .LVU508
 1557 05d0 C1F30511 		ubfx	r1, r1, #4, #6
 1558              	.LVL117:
 843:Drivers/STM32H7xx_HAL_Driver/Src/stm32h7xx_hal_rcc.c ****          (READ_BIT(temp2_pllckcfg, RCC_PLL1DIVR_N1) != (RCC_OscInitStruct->PLL.PLLN - 1U)) ||
 1559              		.loc 1 843 111 view .LVU509
 1560 05d4 E36A     		ldr	r3, [r4, #44]
 842:Drivers/STM32H7xx_HAL_Driver/Src/stm32h7xx_hal_rcc.c ****          ((READ_BIT(temp1_pllckcfg, RCC_PLLCKSELR_DIVM1) >> RCC_PLLCKSELR_DIVM1_Pos) != RCC_OscInit
 1561              		.loc 1 842 88 view .LVU510
 1562 05d6 9942     		cmp	r1, r3
 1563 05d8 27D1     		bne	.L130
 844:Drivers/STM32H7xx_HAL_Driver/Src/stm32h7xx_hal_rcc.c ****          ((READ_BIT(temp2_pllckcfg, RCC_PLL1DIVR_P1) >> RCC_PLL1DIVR_P1_Pos) != (RCC_OscInitStruct-
 1564              		.loc 1 844 11 view .LVU511
 1565 05da C0F30802 		ubfx	r2, r0, #0, #9
 844:Drivers/STM32H7xx_HAL_Driver/Src/stm32h7xx_hal_rcc.c ****          ((READ_BIT(temp2_pllckcfg, RCC_PLL1DIVR_P1) >> RCC_PLL1DIVR_P1_Pos) != (RCC_OscInitStruct-
 1566              		.loc 1 844 79 view .LVU512
 1567 05de 236B     		ldr	r3, [r4, #48]
 844:Drivers/STM32H7xx_HAL_Driver/Src/stm32h7xx_hal_rcc.c ****          ((READ_BIT(temp2_pllckcfg, RCC_PLL1DIVR_P1) >> RCC_PLL1DIVR_P1_Pos) != (RCC_OscInitStruct-
 1568              		.loc 1 844 85 view .LVU513
 1569 05e0 013B     		subs	r3, r3, #1
 843:Drivers/STM32H7xx_HAL_Driver/Src/stm32h7xx_hal_rcc.c ****          (READ_BIT(temp2_pllckcfg, RCC_PLL1DIVR_N1) != (RCC_OscInitStruct->PLL.PLLN - 1U)) ||
 1570              		.loc 1 843 118 view .LVU514
 1571 05e2 9A42     		cmp	r2, r3
 1572 05e4 23D1     		bne	.L131
 845:Drivers/STM32H7xx_HAL_Driver/Src/stm32h7xx_hal_rcc.c ****          ((READ_BIT(temp2_pllckcfg, RCC_PLL1DIVR_Q1) >> RCC_PLL1DIVR_Q1_Pos) != (RCC_OscInitStruct-
 1573              		.loc 1 845 54 view .LVU515
 1574 05e6 C0F34622 		ubfx	r2, r0, #9, #7
 845:Drivers/STM32H7xx_HAL_Driver/Src/stm32h7xx_hal_rcc.c ****          ((READ_BIT(temp2_pllckcfg, RCC_PLL1DIVR_Q1) >> RCC_PLL1DIVR_Q1_Pos) != (RCC_OscInitStruct-
 1575              		.loc 1 845 104 view .LVU516
 1576 05ea 636B     		ldr	r3, [r4, #52]
 845:Drivers/STM32H7xx_HAL_Driver/Src/stm32h7xx_hal_rcc.c ****          ((READ_BIT(temp2_pllckcfg, RCC_PLL1DIVR_Q1) >> RCC_PLL1DIVR_Q1_Pos) != (RCC_OscInitStruct-
 1577              		.loc 1 845 110 view .LVU517
 1578 05ec 013B     		subs	r3, r3, #1
 844:Drivers/STM32H7xx_HAL_Driver/Src/stm32h7xx_hal_rcc.c ****          ((READ_BIT(temp2_pllckcfg, RCC_PLL1DIVR_P1) >> RCC_PLL1DIVR_P1_Pos) != (RCC_OscInitStruct-
 1579              		.loc 1 844 92 view .LVU518
 1580 05ee 9A42     		cmp	r2, r3
 1581 05f0 1FD1     		bne	.L132
 846:Drivers/STM32H7xx_HAL_Driver/Src/stm32h7xx_hal_rcc.c ****          ((READ_BIT(temp2_pllckcfg, RCC_PLL1DIVR_R1) >> RCC_PLL1DIVR_R1_Pos) != (RCC_OscInitStruct-
 1582              		.loc 1 846 54 view .LVU519
 1583 05f2 C0F30642 		ubfx	r2, r0, #16, #7
 846:Drivers/STM32H7xx_HAL_Driver/Src/stm32h7xx_hal_rcc.c ****          ((READ_BIT(temp2_pllckcfg, RCC_PLL1DIVR_R1) >> RCC_PLL1DIVR_R1_Pos) != (RCC_OscInitStruct-
 1584              		.loc 1 846 104 view .LVU520
 1585 05f6 A36B     		ldr	r3, [r4, #56]
 846:Drivers/STM32H7xx_HAL_Driver/Src/stm32h7xx_hal_rcc.c ****          ((READ_BIT(temp2_pllckcfg, RCC_PLL1DIVR_R1) >> RCC_PLL1DIVR_R1_Pos) != (RCC_OscInitStruct-
 1586              		.loc 1 846 110 view .LVU521
 1587 05f8 013B     		subs	r3, r3, #1
 845:Drivers/STM32H7xx_HAL_Driver/Src/stm32h7xx_hal_rcc.c ****          ((READ_BIT(temp2_pllckcfg, RCC_PLL1DIVR_Q1) >> RCC_PLL1DIVR_Q1_Pos) != (RCC_OscInitStruct-
 1588              		.loc 1 845 117 view .LVU522
 1589 05fa 9A42     		cmp	r2, r3
 1590 05fc 1BD1     		bne	.L133
 847:Drivers/STM32H7xx_HAL_Driver/Src/stm32h7xx_hal_rcc.c ****       {
 1591              		.loc 1 847 54 view .LVU523
 1592 05fe C0F30660 		ubfx	r0, r0, #24, #7
 1593              	.LVL118:
 847:Drivers/STM32H7xx_HAL_Driver/Src/stm32h7xx_hal_rcc.c ****       {
 1594              		.loc 1 847 104 view .LVU524
ARM GAS  C:\Users\root\AppData\Local\Temp\ccvogEgx.s 			page 48


 1595 0602 E36B     		ldr	r3, [r4, #60]
 847:Drivers/STM32H7xx_HAL_Driver/Src/stm32h7xx_hal_rcc.c ****       {
 1596              		.loc 1 847 110 view .LVU525
 1597 0604 013B     		subs	r3, r3, #1
 846:Drivers/STM32H7xx_HAL_Driver/Src/stm32h7xx_hal_rcc.c ****          ((READ_BIT(temp2_pllckcfg, RCC_PLL1DIVR_R1) >> RCC_PLL1DIVR_R1_Pos) != (RCC_OscInitStruct-
 1598              		.loc 1 846 117 view .LVU526
 1599 0606 9842     		cmp	r0, r3
 1600 0608 17D1     		bne	.L134
 1601              		.loc 1 853 10 view .LVU527
 1602 060a 0020     		movs	r0, #0
 1603 060c 08E0     		b	.L36
 1604              	.LVL119:
 1605              	.L107:
 1606              	.LCFI2:
 1607              		.cfi_def_cfa_offset 0
 1608              		.cfi_restore 3
 1609              		.cfi_restore 4
 1610              		.cfi_restore 5
 1611              		.cfi_restore 14
 410:Drivers/STM32H7xx_HAL_Driver/Src/stm32h7xx_hal_rcc.c ****   }
 1612              		.loc 1 410 12 view .LVU528
 1613 060e 0120     		movs	r0, #1
 1614              	.LVL120:
 854:Drivers/STM32H7xx_HAL_Driver/Src/stm32h7xx_hal_rcc.c **** }
 1615              		.loc 1 854 1 view .LVU529
 1616 0610 7047     		bx	lr
 1617              	.LVL121:
 1618              	.L141:
 1619              	.LCFI3:
 1620              		.cfi_def_cfa_offset 16
 1621              		.cfi_offset 3, -16
 1622              		.cfi_offset 4, -12
 1623              		.cfi_offset 5, -8
 1624              		.cfi_offset 14, -4
 1625              	.LBB10:
 428:Drivers/STM32H7xx_HAL_Driver/Src/stm32h7xx_hal_rcc.c ****       }
 1626              		.loc 1 428 16 view .LVU530
 1627 0612 0120     		movs	r0, #1
 1628              	.LVL122:
 428:Drivers/STM32H7xx_HAL_Driver/Src/stm32h7xx_hal_rcc.c ****       }
 1629              		.loc 1 428 16 view .LVU531
 1630 0614 04E0     		b	.L36
 1631              	.LVL123:
 1632              	.L111:
 428:Drivers/STM32H7xx_HAL_Driver/Src/stm32h7xx_hal_rcc.c ****       }
 1633              		.loc 1 428 16 view .LVU532
 1634              	.LBE10:
 1635              	.LBB11:
 482:Drivers/STM32H7xx_HAL_Driver/Src/stm32h7xx_hal_rcc.c ****       }
 1636              		.loc 1 482 16 view .LVU533
 1637 0616 0120     		movs	r0, #1
 1638 0618 02E0     		b	.L36
 1639              	.LVL124:
 1640              	.L114:
 482:Drivers/STM32H7xx_HAL_Driver/Src/stm32h7xx_hal_rcc.c ****       }
 1641              		.loc 1 482 16 view .LVU534
 1642              	.LBE11:
ARM GAS  C:\Users\root\AppData\Local\Temp\ccvogEgx.s 			page 49


 1643              	.LBB12:
 549:Drivers/STM32H7xx_HAL_Driver/Src/stm32h7xx_hal_rcc.c ****       }
 1644              		.loc 1 549 16 view .LVU535
 1645 061a 0120     		movs	r0, #1
 1646 061c 00E0     		b	.L36
 1647              	.L124:
 549:Drivers/STM32H7xx_HAL_Driver/Src/stm32h7xx_hal_rcc.c ****       }
 1648              		.loc 1 549 16 view .LVU536
 1649              	.LBE12:
 853:Drivers/STM32H7xx_HAL_Driver/Src/stm32h7xx_hal_rcc.c **** }
 1650              		.loc 1 853 10 view .LVU537
 1651 061e 0020     		movs	r0, #0
 1652              	.LVL125:
 1653              	.L36:
 1654              		.loc 1 854 1 view .LVU538
 1655 0620 38BD     		pop	{r3, r4, r5, pc}
 1656              	.LVL126:
 1657              	.L128:
 849:Drivers/STM32H7xx_HAL_Driver/Src/stm32h7xx_hal_rcc.c ****       }
 1658              		.loc 1 849 16 view .LVU539
 1659 0622 0120     		movs	r0, #1
 1660              	.LVL127:
 849:Drivers/STM32H7xx_HAL_Driver/Src/stm32h7xx_hal_rcc.c ****       }
 1661              		.loc 1 849 16 view .LVU540
 1662 0624 FCE7     		b	.L36
 1663              	.LVL128:
 1664              	.L129:
 849:Drivers/STM32H7xx_HAL_Driver/Src/stm32h7xx_hal_rcc.c ****       }
 1665              		.loc 1 849 16 view .LVU541
 1666 0626 0120     		movs	r0, #1
 1667              	.LVL129:
 849:Drivers/STM32H7xx_HAL_Driver/Src/stm32h7xx_hal_rcc.c ****       }
 1668              		.loc 1 849 16 view .LVU542
 1669 0628 FAE7     		b	.L36
 1670              	.LVL130:
 1671              	.L130:
 849:Drivers/STM32H7xx_HAL_Driver/Src/stm32h7xx_hal_rcc.c ****       }
 1672              		.loc 1 849 16 view .LVU543
 1673 062a 0120     		movs	r0, #1
 1674              	.LVL131:
 849:Drivers/STM32H7xx_HAL_Driver/Src/stm32h7xx_hal_rcc.c ****       }
 1675              		.loc 1 849 16 view .LVU544
 1676 062c F8E7     		b	.L36
 1677              	.LVL132:
 1678              	.L131:
 849:Drivers/STM32H7xx_HAL_Driver/Src/stm32h7xx_hal_rcc.c ****       }
 1679              		.loc 1 849 16 view .LVU545
 1680 062e 0120     		movs	r0, #1
 1681              	.LVL133:
 849:Drivers/STM32H7xx_HAL_Driver/Src/stm32h7xx_hal_rcc.c ****       }
 1682              		.loc 1 849 16 view .LVU546
 1683 0630 F6E7     		b	.L36
 1684              	.LVL134:
 1685              	.L132:
 849:Drivers/STM32H7xx_HAL_Driver/Src/stm32h7xx_hal_rcc.c ****       }
 1686              		.loc 1 849 16 view .LVU547
 1687 0632 0120     		movs	r0, #1
ARM GAS  C:\Users\root\AppData\Local\Temp\ccvogEgx.s 			page 50


 1688              	.LVL135:
 849:Drivers/STM32H7xx_HAL_Driver/Src/stm32h7xx_hal_rcc.c ****       }
 1689              		.loc 1 849 16 view .LVU548
 1690 0634 F4E7     		b	.L36
 1691              	.LVL136:
 1692              	.L133:
 849:Drivers/STM32H7xx_HAL_Driver/Src/stm32h7xx_hal_rcc.c ****       }
 1693              		.loc 1 849 16 view .LVU549
 1694 0636 0120     		movs	r0, #1
 1695              	.LVL137:
 849:Drivers/STM32H7xx_HAL_Driver/Src/stm32h7xx_hal_rcc.c ****       }
 1696              		.loc 1 849 16 view .LVU550
 1697 0638 F2E7     		b	.L36
 1698              	.L134:
 1699 063a 0120     		movs	r0, #1
 1700 063c F0E7     		b	.L36
 1701              	.L164:
 1702 063e 00BF     		.align	2
 1703              	.L163:
 1704 0640 00440258 		.word	1476543488
 1705 0644 0CFCFFFF 		.word	-1012
 1706 0648 0700FFFF 		.word	-65529
 1707              		.cfi_endproc
 1708              	.LFE142:
 1710              		.section	.text.HAL_RCC_MCOConfig,"ax",%progbits
 1711              		.align	1
 1712              		.global	HAL_RCC_MCOConfig
 1713              		.syntax unified
 1714              		.thumb
 1715              		.thumb_func
 1716              		.fpu fpv5-d16
 1718              	HAL_RCC_MCOConfig:
 1719              	.LVL138:
 1720              	.LFB144:
 855:Drivers/STM32H7xx_HAL_Driver/Src/stm32h7xx_hal_rcc.c **** 
 856:Drivers/STM32H7xx_HAL_Driver/Src/stm32h7xx_hal_rcc.c **** /**
 857:Drivers/STM32H7xx_HAL_Driver/Src/stm32h7xx_hal_rcc.c ****   * @brief  Initializes the CPU, AHB and APB buses clocks according to the specified
 858:Drivers/STM32H7xx_HAL_Driver/Src/stm32h7xx_hal_rcc.c ****   *         parameters in the RCC_ClkInitStruct.
 859:Drivers/STM32H7xx_HAL_Driver/Src/stm32h7xx_hal_rcc.c ****   * @param  RCC_ClkInitStruct: pointer to an RCC_OscInitTypeDef structure that
 860:Drivers/STM32H7xx_HAL_Driver/Src/stm32h7xx_hal_rcc.c ****   *         contains the configuration information for the RCC peripheral.
 861:Drivers/STM32H7xx_HAL_Driver/Src/stm32h7xx_hal_rcc.c ****   * @param  FLatency: FLASH Latency, this parameter depend on device selected
 862:Drivers/STM32H7xx_HAL_Driver/Src/stm32h7xx_hal_rcc.c ****   *
 863:Drivers/STM32H7xx_HAL_Driver/Src/stm32h7xx_hal_rcc.c ****   * @note   The SystemCoreClock CMSIS variable is used to store System Core Clock Frequency
 864:Drivers/STM32H7xx_HAL_Driver/Src/stm32h7xx_hal_rcc.c ****   *         and updated by HAL_InitTick() function called within this function
 865:Drivers/STM32H7xx_HAL_Driver/Src/stm32h7xx_hal_rcc.c ****   *
 866:Drivers/STM32H7xx_HAL_Driver/Src/stm32h7xx_hal_rcc.c ****   * @note   The HSI is used (enabled by hardware) as system clock source after
 867:Drivers/STM32H7xx_HAL_Driver/Src/stm32h7xx_hal_rcc.c ****   *         start-up from Reset, wake-up from STOP and STANDBY mode, or in case
 868:Drivers/STM32H7xx_HAL_Driver/Src/stm32h7xx_hal_rcc.c ****   *         of failure of the HSE used directly or indirectly as system clock
 869:Drivers/STM32H7xx_HAL_Driver/Src/stm32h7xx_hal_rcc.c ****   *         (if the Clock Security System CSS is enabled).
 870:Drivers/STM32H7xx_HAL_Driver/Src/stm32h7xx_hal_rcc.c ****   *
 871:Drivers/STM32H7xx_HAL_Driver/Src/stm32h7xx_hal_rcc.c ****   * @note   A switch from one clock source to another occurs only if the target
 872:Drivers/STM32H7xx_HAL_Driver/Src/stm32h7xx_hal_rcc.c ****   *         clock source is ready (clock stable after start-up delay or PLL locked).
 873:Drivers/STM32H7xx_HAL_Driver/Src/stm32h7xx_hal_rcc.c ****   *         If a clock source which is not yet ready is selected, the switch will
 874:Drivers/STM32H7xx_HAL_Driver/Src/stm32h7xx_hal_rcc.c ****   *         occur when the clock source will be ready.
 875:Drivers/STM32H7xx_HAL_Driver/Src/stm32h7xx_hal_rcc.c ****   *         You can use HAL_RCC_GetClockConfig() function to know which clock is
 876:Drivers/STM32H7xx_HAL_Driver/Src/stm32h7xx_hal_rcc.c ****   *         currently used as system clock source.
 877:Drivers/STM32H7xx_HAL_Driver/Src/stm32h7xx_hal_rcc.c ****   * @note   Depending on the device voltage range, the software has to set correctly
ARM GAS  C:\Users\root\AppData\Local\Temp\ccvogEgx.s 			page 51


 878:Drivers/STM32H7xx_HAL_Driver/Src/stm32h7xx_hal_rcc.c ****   *         D1CPRE[3:0] bits to ensure that  Domain1 core clock not exceed the maximum allowed freq
 879:Drivers/STM32H7xx_HAL_Driver/Src/stm32h7xx_hal_rcc.c ****   *         (for more details refer to section above "Initialization/de-initialization functions")
 880:Drivers/STM32H7xx_HAL_Driver/Src/stm32h7xx_hal_rcc.c ****   * @retval None
 881:Drivers/STM32H7xx_HAL_Driver/Src/stm32h7xx_hal_rcc.c ****   */
 882:Drivers/STM32H7xx_HAL_Driver/Src/stm32h7xx_hal_rcc.c **** HAL_StatusTypeDef HAL_RCC_ClockConfig(RCC_ClkInitTypeDef  *RCC_ClkInitStruct, uint32_t FLatency)
 883:Drivers/STM32H7xx_HAL_Driver/Src/stm32h7xx_hal_rcc.c **** {
 884:Drivers/STM32H7xx_HAL_Driver/Src/stm32h7xx_hal_rcc.c ****   HAL_StatusTypeDef halstatus;
 885:Drivers/STM32H7xx_HAL_Driver/Src/stm32h7xx_hal_rcc.c ****   uint32_t tickstart;
 886:Drivers/STM32H7xx_HAL_Driver/Src/stm32h7xx_hal_rcc.c ****   uint32_t common_system_clock;
 887:Drivers/STM32H7xx_HAL_Driver/Src/stm32h7xx_hal_rcc.c **** 
 888:Drivers/STM32H7xx_HAL_Driver/Src/stm32h7xx_hal_rcc.c ****    /* Check Null pointer */
 889:Drivers/STM32H7xx_HAL_Driver/Src/stm32h7xx_hal_rcc.c ****   if(RCC_ClkInitStruct == NULL)
 890:Drivers/STM32H7xx_HAL_Driver/Src/stm32h7xx_hal_rcc.c ****   {
 891:Drivers/STM32H7xx_HAL_Driver/Src/stm32h7xx_hal_rcc.c ****     return HAL_ERROR;
 892:Drivers/STM32H7xx_HAL_Driver/Src/stm32h7xx_hal_rcc.c ****   }
 893:Drivers/STM32H7xx_HAL_Driver/Src/stm32h7xx_hal_rcc.c **** 
 894:Drivers/STM32H7xx_HAL_Driver/Src/stm32h7xx_hal_rcc.c ****   /* Check the parameters */
 895:Drivers/STM32H7xx_HAL_Driver/Src/stm32h7xx_hal_rcc.c ****   assert_param(IS_RCC_CLOCKTYPE(RCC_ClkInitStruct->ClockType));
 896:Drivers/STM32H7xx_HAL_Driver/Src/stm32h7xx_hal_rcc.c ****   assert_param(IS_FLASH_LATENCY(FLatency));
 897:Drivers/STM32H7xx_HAL_Driver/Src/stm32h7xx_hal_rcc.c **** 
 898:Drivers/STM32H7xx_HAL_Driver/Src/stm32h7xx_hal_rcc.c ****   /* To correctly read data from FLASH memory, the number of wait states (LATENCY)
 899:Drivers/STM32H7xx_HAL_Driver/Src/stm32h7xx_hal_rcc.c ****     must be correctly programmed according to the frequency of the CPU clock
 900:Drivers/STM32H7xx_HAL_Driver/Src/stm32h7xx_hal_rcc.c ****     (HCLK) and the supply voltage of the device. */
 901:Drivers/STM32H7xx_HAL_Driver/Src/stm32h7xx_hal_rcc.c **** 
 902:Drivers/STM32H7xx_HAL_Driver/Src/stm32h7xx_hal_rcc.c ****   /* Increasing the CPU frequency */
 903:Drivers/STM32H7xx_HAL_Driver/Src/stm32h7xx_hal_rcc.c ****   if(FLatency > __HAL_FLASH_GET_LATENCY())
 904:Drivers/STM32H7xx_HAL_Driver/Src/stm32h7xx_hal_rcc.c ****   {
 905:Drivers/STM32H7xx_HAL_Driver/Src/stm32h7xx_hal_rcc.c ****     /* Program the new number of wait states to the LATENCY bits in the FLASH_ACR register */
 906:Drivers/STM32H7xx_HAL_Driver/Src/stm32h7xx_hal_rcc.c ****     __HAL_FLASH_SET_LATENCY(FLatency);
 907:Drivers/STM32H7xx_HAL_Driver/Src/stm32h7xx_hal_rcc.c **** 
 908:Drivers/STM32H7xx_HAL_Driver/Src/stm32h7xx_hal_rcc.c ****     /* Check that the new number of wait states is taken into account to access the Flash
 909:Drivers/STM32H7xx_HAL_Driver/Src/stm32h7xx_hal_rcc.c ****     memory by reading the FLASH_ACR register */
 910:Drivers/STM32H7xx_HAL_Driver/Src/stm32h7xx_hal_rcc.c ****     if(__HAL_FLASH_GET_LATENCY() != FLatency)
 911:Drivers/STM32H7xx_HAL_Driver/Src/stm32h7xx_hal_rcc.c ****     {
 912:Drivers/STM32H7xx_HAL_Driver/Src/stm32h7xx_hal_rcc.c ****       return HAL_ERROR;
 913:Drivers/STM32H7xx_HAL_Driver/Src/stm32h7xx_hal_rcc.c ****     }
 914:Drivers/STM32H7xx_HAL_Driver/Src/stm32h7xx_hal_rcc.c **** 
 915:Drivers/STM32H7xx_HAL_Driver/Src/stm32h7xx_hal_rcc.c ****   }
 916:Drivers/STM32H7xx_HAL_Driver/Src/stm32h7xx_hal_rcc.c **** 
 917:Drivers/STM32H7xx_HAL_Driver/Src/stm32h7xx_hal_rcc.c ****   /* Increasing the BUS frequency divider */
 918:Drivers/STM32H7xx_HAL_Driver/Src/stm32h7xx_hal_rcc.c ****   /*-------------------------- D1PCLK1/CDPCLK1 Configuration ---------------------------*/
 919:Drivers/STM32H7xx_HAL_Driver/Src/stm32h7xx_hal_rcc.c ****   if(((RCC_ClkInitStruct->ClockType) & RCC_CLOCKTYPE_D1PCLK1) == RCC_CLOCKTYPE_D1PCLK1)
 920:Drivers/STM32H7xx_HAL_Driver/Src/stm32h7xx_hal_rcc.c ****   {
 921:Drivers/STM32H7xx_HAL_Driver/Src/stm32h7xx_hal_rcc.c **** #if defined (RCC_D1CFGR_D1PPRE)
 922:Drivers/STM32H7xx_HAL_Driver/Src/stm32h7xx_hal_rcc.c ****     if((RCC_ClkInitStruct->APB3CLKDivider) > (RCC->D1CFGR & RCC_D1CFGR_D1PPRE))
 923:Drivers/STM32H7xx_HAL_Driver/Src/stm32h7xx_hal_rcc.c ****     {
 924:Drivers/STM32H7xx_HAL_Driver/Src/stm32h7xx_hal_rcc.c ****       assert_param(IS_RCC_D1PCLK1(RCC_ClkInitStruct->APB3CLKDivider));
 925:Drivers/STM32H7xx_HAL_Driver/Src/stm32h7xx_hal_rcc.c ****       MODIFY_REG(RCC->D1CFGR, RCC_D1CFGR_D1PPRE, RCC_ClkInitStruct->APB3CLKDivider);
 926:Drivers/STM32H7xx_HAL_Driver/Src/stm32h7xx_hal_rcc.c ****     }
 927:Drivers/STM32H7xx_HAL_Driver/Src/stm32h7xx_hal_rcc.c **** #else
 928:Drivers/STM32H7xx_HAL_Driver/Src/stm32h7xx_hal_rcc.c ****     if((RCC_ClkInitStruct->APB3CLKDivider) > (RCC->CDCFGR1 & RCC_CDCFGR1_CDPPRE))
 929:Drivers/STM32H7xx_HAL_Driver/Src/stm32h7xx_hal_rcc.c ****     {
 930:Drivers/STM32H7xx_HAL_Driver/Src/stm32h7xx_hal_rcc.c ****       assert_param(IS_RCC_CDPCLK1(RCC_ClkInitStruct->APB3CLKDivider));
 931:Drivers/STM32H7xx_HAL_Driver/Src/stm32h7xx_hal_rcc.c ****       MODIFY_REG(RCC->CDCFGR1, RCC_CDCFGR1_CDPPRE, RCC_ClkInitStruct->APB3CLKDivider);
 932:Drivers/STM32H7xx_HAL_Driver/Src/stm32h7xx_hal_rcc.c ****     }
 933:Drivers/STM32H7xx_HAL_Driver/Src/stm32h7xx_hal_rcc.c **** #endif
 934:Drivers/STM32H7xx_HAL_Driver/Src/stm32h7xx_hal_rcc.c ****   }
ARM GAS  C:\Users\root\AppData\Local\Temp\ccvogEgx.s 			page 52


 935:Drivers/STM32H7xx_HAL_Driver/Src/stm32h7xx_hal_rcc.c **** 
 936:Drivers/STM32H7xx_HAL_Driver/Src/stm32h7xx_hal_rcc.c ****   /*-------------------------- PCLK1 Configuration ---------------------------*/
 937:Drivers/STM32H7xx_HAL_Driver/Src/stm32h7xx_hal_rcc.c ****   if(((RCC_ClkInitStruct->ClockType) & RCC_CLOCKTYPE_PCLK1) == RCC_CLOCKTYPE_PCLK1)
 938:Drivers/STM32H7xx_HAL_Driver/Src/stm32h7xx_hal_rcc.c ****   {
 939:Drivers/STM32H7xx_HAL_Driver/Src/stm32h7xx_hal_rcc.c **** #if defined (RCC_D2CFGR_D2PPRE1)
 940:Drivers/STM32H7xx_HAL_Driver/Src/stm32h7xx_hal_rcc.c ****     if((RCC_ClkInitStruct->APB1CLKDivider) > (RCC->D2CFGR & RCC_D2CFGR_D2PPRE1))
 941:Drivers/STM32H7xx_HAL_Driver/Src/stm32h7xx_hal_rcc.c ****     {
 942:Drivers/STM32H7xx_HAL_Driver/Src/stm32h7xx_hal_rcc.c ****       assert_param(IS_RCC_PCLK1(RCC_ClkInitStruct->APB1CLKDivider));
 943:Drivers/STM32H7xx_HAL_Driver/Src/stm32h7xx_hal_rcc.c ****       MODIFY_REG(RCC->D2CFGR, RCC_D2CFGR_D2PPRE1, (RCC_ClkInitStruct->APB1CLKDivider));
 944:Drivers/STM32H7xx_HAL_Driver/Src/stm32h7xx_hal_rcc.c ****     }
 945:Drivers/STM32H7xx_HAL_Driver/Src/stm32h7xx_hal_rcc.c **** #else
 946:Drivers/STM32H7xx_HAL_Driver/Src/stm32h7xx_hal_rcc.c ****     if((RCC_ClkInitStruct->APB1CLKDivider) > (RCC->CDCFGR2 & RCC_CDCFGR2_CDPPRE1))
 947:Drivers/STM32H7xx_HAL_Driver/Src/stm32h7xx_hal_rcc.c ****     {
 948:Drivers/STM32H7xx_HAL_Driver/Src/stm32h7xx_hal_rcc.c ****       assert_param(IS_RCC_PCLK1(RCC_ClkInitStruct->APB1CLKDivider));
 949:Drivers/STM32H7xx_HAL_Driver/Src/stm32h7xx_hal_rcc.c ****       MODIFY_REG(RCC->CDCFGR2, RCC_CDCFGR2_CDPPRE1, (RCC_ClkInitStruct->APB1CLKDivider));
 950:Drivers/STM32H7xx_HAL_Driver/Src/stm32h7xx_hal_rcc.c ****   }
 951:Drivers/STM32H7xx_HAL_Driver/Src/stm32h7xx_hal_rcc.c **** #endif
 952:Drivers/STM32H7xx_HAL_Driver/Src/stm32h7xx_hal_rcc.c ****     }
 953:Drivers/STM32H7xx_HAL_Driver/Src/stm32h7xx_hal_rcc.c ****   /*-------------------------- PCLK2 Configuration ---------------------------*/
 954:Drivers/STM32H7xx_HAL_Driver/Src/stm32h7xx_hal_rcc.c ****   if(((RCC_ClkInitStruct->ClockType) & RCC_CLOCKTYPE_PCLK2) == RCC_CLOCKTYPE_PCLK2)
 955:Drivers/STM32H7xx_HAL_Driver/Src/stm32h7xx_hal_rcc.c ****   {
 956:Drivers/STM32H7xx_HAL_Driver/Src/stm32h7xx_hal_rcc.c **** #if defined(RCC_D2CFGR_D2PPRE2)
 957:Drivers/STM32H7xx_HAL_Driver/Src/stm32h7xx_hal_rcc.c ****     if((RCC_ClkInitStruct->APB2CLKDivider) > (RCC->D2CFGR & RCC_D2CFGR_D2PPRE2))
 958:Drivers/STM32H7xx_HAL_Driver/Src/stm32h7xx_hal_rcc.c ****     {
 959:Drivers/STM32H7xx_HAL_Driver/Src/stm32h7xx_hal_rcc.c ****       assert_param(IS_RCC_PCLK2(RCC_ClkInitStruct->APB2CLKDivider));
 960:Drivers/STM32H7xx_HAL_Driver/Src/stm32h7xx_hal_rcc.c ****       MODIFY_REG(RCC->D2CFGR, RCC_D2CFGR_D2PPRE2, (RCC_ClkInitStruct->APB2CLKDivider));
 961:Drivers/STM32H7xx_HAL_Driver/Src/stm32h7xx_hal_rcc.c ****     }
 962:Drivers/STM32H7xx_HAL_Driver/Src/stm32h7xx_hal_rcc.c **** #else
 963:Drivers/STM32H7xx_HAL_Driver/Src/stm32h7xx_hal_rcc.c ****      if((RCC_ClkInitStruct->APB2CLKDivider) > (RCC->CDCFGR2 & RCC_CDCFGR2_CDPPRE2))
 964:Drivers/STM32H7xx_HAL_Driver/Src/stm32h7xx_hal_rcc.c ****     {
 965:Drivers/STM32H7xx_HAL_Driver/Src/stm32h7xx_hal_rcc.c ****       assert_param(IS_RCC_PCLK2(RCC_ClkInitStruct->APB2CLKDivider));
 966:Drivers/STM32H7xx_HAL_Driver/Src/stm32h7xx_hal_rcc.c ****       MODIFY_REG(RCC->CDCFGR2, RCC_CDCFGR2_CDPPRE2, (RCC_ClkInitStruct->APB2CLKDivider));
 967:Drivers/STM32H7xx_HAL_Driver/Src/stm32h7xx_hal_rcc.c ****     }
 968:Drivers/STM32H7xx_HAL_Driver/Src/stm32h7xx_hal_rcc.c **** #endif
 969:Drivers/STM32H7xx_HAL_Driver/Src/stm32h7xx_hal_rcc.c ****   }
 970:Drivers/STM32H7xx_HAL_Driver/Src/stm32h7xx_hal_rcc.c **** 
 971:Drivers/STM32H7xx_HAL_Driver/Src/stm32h7xx_hal_rcc.c ****   /*-------------------------- D3PCLK1 Configuration ---------------------------*/
 972:Drivers/STM32H7xx_HAL_Driver/Src/stm32h7xx_hal_rcc.c ****   if(((RCC_ClkInitStruct->ClockType) & RCC_CLOCKTYPE_D3PCLK1) == RCC_CLOCKTYPE_D3PCLK1)
 973:Drivers/STM32H7xx_HAL_Driver/Src/stm32h7xx_hal_rcc.c ****   {
 974:Drivers/STM32H7xx_HAL_Driver/Src/stm32h7xx_hal_rcc.c **** #if defined(RCC_D3CFGR_D3PPRE)
 975:Drivers/STM32H7xx_HAL_Driver/Src/stm32h7xx_hal_rcc.c ****     if((RCC_ClkInitStruct->APB4CLKDivider) > (RCC->D3CFGR & RCC_D3CFGR_D3PPRE))
 976:Drivers/STM32H7xx_HAL_Driver/Src/stm32h7xx_hal_rcc.c ****     {
 977:Drivers/STM32H7xx_HAL_Driver/Src/stm32h7xx_hal_rcc.c ****       assert_param(IS_RCC_D3PCLK1(RCC_ClkInitStruct->APB4CLKDivider));
 978:Drivers/STM32H7xx_HAL_Driver/Src/stm32h7xx_hal_rcc.c ****       MODIFY_REG(RCC->D3CFGR, RCC_D3CFGR_D3PPRE, (RCC_ClkInitStruct->APB4CLKDivider) );
 979:Drivers/STM32H7xx_HAL_Driver/Src/stm32h7xx_hal_rcc.c ****     }
 980:Drivers/STM32H7xx_HAL_Driver/Src/stm32h7xx_hal_rcc.c **** #else
 981:Drivers/STM32H7xx_HAL_Driver/Src/stm32h7xx_hal_rcc.c ****     if((RCC_ClkInitStruct->APB4CLKDivider) > (RCC->SRDCFGR & RCC_SRDCFGR_SRDPPRE))
 982:Drivers/STM32H7xx_HAL_Driver/Src/stm32h7xx_hal_rcc.c ****     {
 983:Drivers/STM32H7xx_HAL_Driver/Src/stm32h7xx_hal_rcc.c ****       assert_param(IS_RCC_D3PCLK1(RCC_ClkInitStruct->APB4CLKDivider));
 984:Drivers/STM32H7xx_HAL_Driver/Src/stm32h7xx_hal_rcc.c ****       MODIFY_REG(RCC->SRDCFGR, RCC_SRDCFGR_SRDPPRE, (RCC_ClkInitStruct->APB4CLKDivider) );
 985:Drivers/STM32H7xx_HAL_Driver/Src/stm32h7xx_hal_rcc.c ****     }
 986:Drivers/STM32H7xx_HAL_Driver/Src/stm32h7xx_hal_rcc.c **** #endif
 987:Drivers/STM32H7xx_HAL_Driver/Src/stm32h7xx_hal_rcc.c ****   }
 988:Drivers/STM32H7xx_HAL_Driver/Src/stm32h7xx_hal_rcc.c **** 
 989:Drivers/STM32H7xx_HAL_Driver/Src/stm32h7xx_hal_rcc.c ****    /*-------------------------- HCLK Configuration --------------------------*/
 990:Drivers/STM32H7xx_HAL_Driver/Src/stm32h7xx_hal_rcc.c ****   if(((RCC_ClkInitStruct->ClockType) & RCC_CLOCKTYPE_HCLK) == RCC_CLOCKTYPE_HCLK)
 991:Drivers/STM32H7xx_HAL_Driver/Src/stm32h7xx_hal_rcc.c ****   {
ARM GAS  C:\Users\root\AppData\Local\Temp\ccvogEgx.s 			page 53


 992:Drivers/STM32H7xx_HAL_Driver/Src/stm32h7xx_hal_rcc.c **** #if defined (RCC_D1CFGR_HPRE)
 993:Drivers/STM32H7xx_HAL_Driver/Src/stm32h7xx_hal_rcc.c ****     if((RCC_ClkInitStruct->AHBCLKDivider) > (RCC->D1CFGR & RCC_D1CFGR_HPRE))
 994:Drivers/STM32H7xx_HAL_Driver/Src/stm32h7xx_hal_rcc.c ****     {
 995:Drivers/STM32H7xx_HAL_Driver/Src/stm32h7xx_hal_rcc.c ****       /* Set the new HCLK clock divider */
 996:Drivers/STM32H7xx_HAL_Driver/Src/stm32h7xx_hal_rcc.c ****       assert_param(IS_RCC_HCLK(RCC_ClkInitStruct->AHBCLKDivider));
 997:Drivers/STM32H7xx_HAL_Driver/Src/stm32h7xx_hal_rcc.c ****       MODIFY_REG(RCC->D1CFGR, RCC_D1CFGR_HPRE, RCC_ClkInitStruct->AHBCLKDivider);
 998:Drivers/STM32H7xx_HAL_Driver/Src/stm32h7xx_hal_rcc.c ****     }
 999:Drivers/STM32H7xx_HAL_Driver/Src/stm32h7xx_hal_rcc.c **** #else
1000:Drivers/STM32H7xx_HAL_Driver/Src/stm32h7xx_hal_rcc.c ****         if((RCC_ClkInitStruct->AHBCLKDivider) > (RCC->CDCFGR1 & RCC_CDCFGR1_HPRE))
1001:Drivers/STM32H7xx_HAL_Driver/Src/stm32h7xx_hal_rcc.c ****     {
1002:Drivers/STM32H7xx_HAL_Driver/Src/stm32h7xx_hal_rcc.c ****       /* Set the new HCLK clock divider */
1003:Drivers/STM32H7xx_HAL_Driver/Src/stm32h7xx_hal_rcc.c ****       assert_param(IS_RCC_HCLK(RCC_ClkInitStruct->AHBCLKDivider));
1004:Drivers/STM32H7xx_HAL_Driver/Src/stm32h7xx_hal_rcc.c ****       MODIFY_REG(RCC->CDCFGR1, RCC_CDCFGR1_HPRE, RCC_ClkInitStruct->AHBCLKDivider);
1005:Drivers/STM32H7xx_HAL_Driver/Src/stm32h7xx_hal_rcc.c ****     }
1006:Drivers/STM32H7xx_HAL_Driver/Src/stm32h7xx_hal_rcc.c **** #endif
1007:Drivers/STM32H7xx_HAL_Driver/Src/stm32h7xx_hal_rcc.c ****   }
1008:Drivers/STM32H7xx_HAL_Driver/Src/stm32h7xx_hal_rcc.c **** 
1009:Drivers/STM32H7xx_HAL_Driver/Src/stm32h7xx_hal_rcc.c ****     /*------------------------- SYSCLK Configuration -------------------------*/
1010:Drivers/STM32H7xx_HAL_Driver/Src/stm32h7xx_hal_rcc.c ****     if(((RCC_ClkInitStruct->ClockType) & RCC_CLOCKTYPE_SYSCLK) == RCC_CLOCKTYPE_SYSCLK)
1011:Drivers/STM32H7xx_HAL_Driver/Src/stm32h7xx_hal_rcc.c ****     {
1012:Drivers/STM32H7xx_HAL_Driver/Src/stm32h7xx_hal_rcc.c ****       assert_param(IS_RCC_SYSCLK(RCC_ClkInitStruct->SYSCLKDivider));
1013:Drivers/STM32H7xx_HAL_Driver/Src/stm32h7xx_hal_rcc.c ****       assert_param(IS_RCC_SYSCLKSOURCE(RCC_ClkInitStruct->SYSCLKSource));
1014:Drivers/STM32H7xx_HAL_Driver/Src/stm32h7xx_hal_rcc.c **** #if defined(RCC_D1CFGR_D1CPRE)
1015:Drivers/STM32H7xx_HAL_Driver/Src/stm32h7xx_hal_rcc.c ****       MODIFY_REG(RCC->D1CFGR, RCC_D1CFGR_D1CPRE, RCC_ClkInitStruct->SYSCLKDivider);
1016:Drivers/STM32H7xx_HAL_Driver/Src/stm32h7xx_hal_rcc.c **** #else
1017:Drivers/STM32H7xx_HAL_Driver/Src/stm32h7xx_hal_rcc.c ****       MODIFY_REG(RCC->CDCFGR1, RCC_CDCFGR1_CDCPRE, RCC_ClkInitStruct->SYSCLKDivider);
1018:Drivers/STM32H7xx_HAL_Driver/Src/stm32h7xx_hal_rcc.c **** #endif
1019:Drivers/STM32H7xx_HAL_Driver/Src/stm32h7xx_hal_rcc.c ****       /* HSE is selected as System Clock Source */
1020:Drivers/STM32H7xx_HAL_Driver/Src/stm32h7xx_hal_rcc.c ****       if(RCC_ClkInitStruct->SYSCLKSource == RCC_SYSCLKSOURCE_HSE)
1021:Drivers/STM32H7xx_HAL_Driver/Src/stm32h7xx_hal_rcc.c ****       {
1022:Drivers/STM32H7xx_HAL_Driver/Src/stm32h7xx_hal_rcc.c ****         /* Check the HSE ready flag */
1023:Drivers/STM32H7xx_HAL_Driver/Src/stm32h7xx_hal_rcc.c ****         if(__HAL_RCC_GET_FLAG(RCC_FLAG_HSERDY) == 0U)
1024:Drivers/STM32H7xx_HAL_Driver/Src/stm32h7xx_hal_rcc.c ****         {
1025:Drivers/STM32H7xx_HAL_Driver/Src/stm32h7xx_hal_rcc.c ****           return HAL_ERROR;
1026:Drivers/STM32H7xx_HAL_Driver/Src/stm32h7xx_hal_rcc.c ****         }
1027:Drivers/STM32H7xx_HAL_Driver/Src/stm32h7xx_hal_rcc.c ****       }
1028:Drivers/STM32H7xx_HAL_Driver/Src/stm32h7xx_hal_rcc.c ****       /* PLL is selected as System Clock Source */
1029:Drivers/STM32H7xx_HAL_Driver/Src/stm32h7xx_hal_rcc.c ****       else if(RCC_ClkInitStruct->SYSCLKSource == RCC_SYSCLKSOURCE_PLLCLK)
1030:Drivers/STM32H7xx_HAL_Driver/Src/stm32h7xx_hal_rcc.c ****       {
1031:Drivers/STM32H7xx_HAL_Driver/Src/stm32h7xx_hal_rcc.c ****         /* Check the PLL ready flag */
1032:Drivers/STM32H7xx_HAL_Driver/Src/stm32h7xx_hal_rcc.c ****         if(__HAL_RCC_GET_FLAG(RCC_FLAG_PLLRDY) == 0U)
1033:Drivers/STM32H7xx_HAL_Driver/Src/stm32h7xx_hal_rcc.c ****         {
1034:Drivers/STM32H7xx_HAL_Driver/Src/stm32h7xx_hal_rcc.c ****           return HAL_ERROR;
1035:Drivers/STM32H7xx_HAL_Driver/Src/stm32h7xx_hal_rcc.c ****         }
1036:Drivers/STM32H7xx_HAL_Driver/Src/stm32h7xx_hal_rcc.c ****       }
1037:Drivers/STM32H7xx_HAL_Driver/Src/stm32h7xx_hal_rcc.c ****       /* CSI is selected as System Clock Source */
1038:Drivers/STM32H7xx_HAL_Driver/Src/stm32h7xx_hal_rcc.c ****       else if(RCC_ClkInitStruct->SYSCLKSource == RCC_SYSCLKSOURCE_CSI)
1039:Drivers/STM32H7xx_HAL_Driver/Src/stm32h7xx_hal_rcc.c ****       {
1040:Drivers/STM32H7xx_HAL_Driver/Src/stm32h7xx_hal_rcc.c ****         /* Check the PLL ready flag */
1041:Drivers/STM32H7xx_HAL_Driver/Src/stm32h7xx_hal_rcc.c ****         if(__HAL_RCC_GET_FLAG(RCC_FLAG_CSIRDY) == 0U)
1042:Drivers/STM32H7xx_HAL_Driver/Src/stm32h7xx_hal_rcc.c ****         {
1043:Drivers/STM32H7xx_HAL_Driver/Src/stm32h7xx_hal_rcc.c ****           return HAL_ERROR;
1044:Drivers/STM32H7xx_HAL_Driver/Src/stm32h7xx_hal_rcc.c ****         }
1045:Drivers/STM32H7xx_HAL_Driver/Src/stm32h7xx_hal_rcc.c ****       }
1046:Drivers/STM32H7xx_HAL_Driver/Src/stm32h7xx_hal_rcc.c ****       /* HSI is selected as System Clock Source */
1047:Drivers/STM32H7xx_HAL_Driver/Src/stm32h7xx_hal_rcc.c ****       else
1048:Drivers/STM32H7xx_HAL_Driver/Src/stm32h7xx_hal_rcc.c ****       {
ARM GAS  C:\Users\root\AppData\Local\Temp\ccvogEgx.s 			page 54


1049:Drivers/STM32H7xx_HAL_Driver/Src/stm32h7xx_hal_rcc.c ****         /* Check the HSI ready flag */
1050:Drivers/STM32H7xx_HAL_Driver/Src/stm32h7xx_hal_rcc.c ****         if(__HAL_RCC_GET_FLAG(RCC_FLAG_HSIRDY) == 0U)
1051:Drivers/STM32H7xx_HAL_Driver/Src/stm32h7xx_hal_rcc.c ****         {
1052:Drivers/STM32H7xx_HAL_Driver/Src/stm32h7xx_hal_rcc.c ****           return HAL_ERROR;
1053:Drivers/STM32H7xx_HAL_Driver/Src/stm32h7xx_hal_rcc.c ****         }
1054:Drivers/STM32H7xx_HAL_Driver/Src/stm32h7xx_hal_rcc.c ****       }
1055:Drivers/STM32H7xx_HAL_Driver/Src/stm32h7xx_hal_rcc.c ****       MODIFY_REG(RCC->CFGR, RCC_CFGR_SW, RCC_ClkInitStruct->SYSCLKSource);
1056:Drivers/STM32H7xx_HAL_Driver/Src/stm32h7xx_hal_rcc.c **** 
1057:Drivers/STM32H7xx_HAL_Driver/Src/stm32h7xx_hal_rcc.c ****       /* Get Start Tick*/
1058:Drivers/STM32H7xx_HAL_Driver/Src/stm32h7xx_hal_rcc.c ****       tickstart = HAL_GetTick();
1059:Drivers/STM32H7xx_HAL_Driver/Src/stm32h7xx_hal_rcc.c **** 
1060:Drivers/STM32H7xx_HAL_Driver/Src/stm32h7xx_hal_rcc.c ****         while (__HAL_RCC_GET_SYSCLK_SOURCE() !=  (RCC_ClkInitStruct->SYSCLKSource << RCC_CFGR_SWS_P
1061:Drivers/STM32H7xx_HAL_Driver/Src/stm32h7xx_hal_rcc.c ****         {
1062:Drivers/STM32H7xx_HAL_Driver/Src/stm32h7xx_hal_rcc.c ****           if((HAL_GetTick() - tickstart ) > CLOCKSWITCH_TIMEOUT_VALUE)
1063:Drivers/STM32H7xx_HAL_Driver/Src/stm32h7xx_hal_rcc.c ****           {
1064:Drivers/STM32H7xx_HAL_Driver/Src/stm32h7xx_hal_rcc.c ****             return HAL_TIMEOUT;
1065:Drivers/STM32H7xx_HAL_Driver/Src/stm32h7xx_hal_rcc.c ****           }
1066:Drivers/STM32H7xx_HAL_Driver/Src/stm32h7xx_hal_rcc.c ****         }
1067:Drivers/STM32H7xx_HAL_Driver/Src/stm32h7xx_hal_rcc.c **** 
1068:Drivers/STM32H7xx_HAL_Driver/Src/stm32h7xx_hal_rcc.c ****     }
1069:Drivers/STM32H7xx_HAL_Driver/Src/stm32h7xx_hal_rcc.c **** 
1070:Drivers/STM32H7xx_HAL_Driver/Src/stm32h7xx_hal_rcc.c ****     /* Decreasing the BUS frequency divider */
1071:Drivers/STM32H7xx_HAL_Driver/Src/stm32h7xx_hal_rcc.c ****    /*-------------------------- HCLK Configuration --------------------------*/
1072:Drivers/STM32H7xx_HAL_Driver/Src/stm32h7xx_hal_rcc.c ****   if(((RCC_ClkInitStruct->ClockType) & RCC_CLOCKTYPE_HCLK) == RCC_CLOCKTYPE_HCLK)
1073:Drivers/STM32H7xx_HAL_Driver/Src/stm32h7xx_hal_rcc.c ****   {
1074:Drivers/STM32H7xx_HAL_Driver/Src/stm32h7xx_hal_rcc.c **** #if defined(RCC_D1CFGR_HPRE)
1075:Drivers/STM32H7xx_HAL_Driver/Src/stm32h7xx_hal_rcc.c ****     if((RCC_ClkInitStruct->AHBCLKDivider) < (RCC->D1CFGR & RCC_D1CFGR_HPRE))
1076:Drivers/STM32H7xx_HAL_Driver/Src/stm32h7xx_hal_rcc.c ****     {
1077:Drivers/STM32H7xx_HAL_Driver/Src/stm32h7xx_hal_rcc.c ****       /* Set the new HCLK clock divider */
1078:Drivers/STM32H7xx_HAL_Driver/Src/stm32h7xx_hal_rcc.c ****       assert_param(IS_RCC_HCLK(RCC_ClkInitStruct->AHBCLKDivider));
1079:Drivers/STM32H7xx_HAL_Driver/Src/stm32h7xx_hal_rcc.c ****       MODIFY_REG(RCC->D1CFGR, RCC_D1CFGR_HPRE, RCC_ClkInitStruct->AHBCLKDivider);
1080:Drivers/STM32H7xx_HAL_Driver/Src/stm32h7xx_hal_rcc.c ****     }
1081:Drivers/STM32H7xx_HAL_Driver/Src/stm32h7xx_hal_rcc.c **** #else
1082:Drivers/STM32H7xx_HAL_Driver/Src/stm32h7xx_hal_rcc.c ****     if((RCC_ClkInitStruct->AHBCLKDivider) < (RCC->CDCFGR1 & RCC_CDCFGR1_HPRE))
1083:Drivers/STM32H7xx_HAL_Driver/Src/stm32h7xx_hal_rcc.c ****     {
1084:Drivers/STM32H7xx_HAL_Driver/Src/stm32h7xx_hal_rcc.c ****       /* Set the new HCLK clock divider */
1085:Drivers/STM32H7xx_HAL_Driver/Src/stm32h7xx_hal_rcc.c ****       assert_param(IS_RCC_HCLK(RCC_ClkInitStruct->AHBCLKDivider));
1086:Drivers/STM32H7xx_HAL_Driver/Src/stm32h7xx_hal_rcc.c ****       MODIFY_REG(RCC->CDCFGR1, RCC_CDCFGR1_HPRE, RCC_ClkInitStruct->AHBCLKDivider);
1087:Drivers/STM32H7xx_HAL_Driver/Src/stm32h7xx_hal_rcc.c ****     }
1088:Drivers/STM32H7xx_HAL_Driver/Src/stm32h7xx_hal_rcc.c **** #endif
1089:Drivers/STM32H7xx_HAL_Driver/Src/stm32h7xx_hal_rcc.c ****   }
1090:Drivers/STM32H7xx_HAL_Driver/Src/stm32h7xx_hal_rcc.c **** 
1091:Drivers/STM32H7xx_HAL_Driver/Src/stm32h7xx_hal_rcc.c ****   /* Decreasing the number of wait states because of lower CPU frequency */
1092:Drivers/STM32H7xx_HAL_Driver/Src/stm32h7xx_hal_rcc.c ****   if(FLatency < __HAL_FLASH_GET_LATENCY())
1093:Drivers/STM32H7xx_HAL_Driver/Src/stm32h7xx_hal_rcc.c ****   {
1094:Drivers/STM32H7xx_HAL_Driver/Src/stm32h7xx_hal_rcc.c ****     /* Program the new number of wait states to the LATENCY bits in the FLASH_ACR register */
1095:Drivers/STM32H7xx_HAL_Driver/Src/stm32h7xx_hal_rcc.c ****     __HAL_FLASH_SET_LATENCY(FLatency);
1096:Drivers/STM32H7xx_HAL_Driver/Src/stm32h7xx_hal_rcc.c **** 
1097:Drivers/STM32H7xx_HAL_Driver/Src/stm32h7xx_hal_rcc.c ****     /* Check that the new number of wait states is taken into account to access the Flash
1098:Drivers/STM32H7xx_HAL_Driver/Src/stm32h7xx_hal_rcc.c ****     memory by reading the FLASH_ACR register */
1099:Drivers/STM32H7xx_HAL_Driver/Src/stm32h7xx_hal_rcc.c ****     if(__HAL_FLASH_GET_LATENCY() != FLatency)
1100:Drivers/STM32H7xx_HAL_Driver/Src/stm32h7xx_hal_rcc.c ****     {
1101:Drivers/STM32H7xx_HAL_Driver/Src/stm32h7xx_hal_rcc.c ****       return HAL_ERROR;
1102:Drivers/STM32H7xx_HAL_Driver/Src/stm32h7xx_hal_rcc.c ****     }
1103:Drivers/STM32H7xx_HAL_Driver/Src/stm32h7xx_hal_rcc.c ****  }
1104:Drivers/STM32H7xx_HAL_Driver/Src/stm32h7xx_hal_rcc.c **** 
1105:Drivers/STM32H7xx_HAL_Driver/Src/stm32h7xx_hal_rcc.c ****   /*-------------------------- D1PCLK1/CDPCLK Configuration ---------------------------*/
ARM GAS  C:\Users\root\AppData\Local\Temp\ccvogEgx.s 			page 55


1106:Drivers/STM32H7xx_HAL_Driver/Src/stm32h7xx_hal_rcc.c ****  if(((RCC_ClkInitStruct->ClockType) & RCC_CLOCKTYPE_D1PCLK1) == RCC_CLOCKTYPE_D1PCLK1)
1107:Drivers/STM32H7xx_HAL_Driver/Src/stm32h7xx_hal_rcc.c ****  {
1108:Drivers/STM32H7xx_HAL_Driver/Src/stm32h7xx_hal_rcc.c **** #if defined(RCC_D1CFGR_D1PPRE)
1109:Drivers/STM32H7xx_HAL_Driver/Src/stm32h7xx_hal_rcc.c ****    if((RCC_ClkInitStruct->APB3CLKDivider) < (RCC->D1CFGR & RCC_D1CFGR_D1PPRE))
1110:Drivers/STM32H7xx_HAL_Driver/Src/stm32h7xx_hal_rcc.c ****    {
1111:Drivers/STM32H7xx_HAL_Driver/Src/stm32h7xx_hal_rcc.c ****      assert_param(IS_RCC_D1PCLK1(RCC_ClkInitStruct->APB3CLKDivider));
1112:Drivers/STM32H7xx_HAL_Driver/Src/stm32h7xx_hal_rcc.c ****      MODIFY_REG(RCC->D1CFGR, RCC_D1CFGR_D1PPRE, RCC_ClkInitStruct->APB3CLKDivider);
1113:Drivers/STM32H7xx_HAL_Driver/Src/stm32h7xx_hal_rcc.c ****    }
1114:Drivers/STM32H7xx_HAL_Driver/Src/stm32h7xx_hal_rcc.c **** #else
1115:Drivers/STM32H7xx_HAL_Driver/Src/stm32h7xx_hal_rcc.c ****    if((RCC_ClkInitStruct->APB3CLKDivider) < (RCC->CDCFGR1 & RCC_CDCFGR1_CDPPRE))
1116:Drivers/STM32H7xx_HAL_Driver/Src/stm32h7xx_hal_rcc.c ****    {
1117:Drivers/STM32H7xx_HAL_Driver/Src/stm32h7xx_hal_rcc.c ****      assert_param(IS_RCC_CDPCLK1(RCC_ClkInitStruct->APB3CLKDivider));
1118:Drivers/STM32H7xx_HAL_Driver/Src/stm32h7xx_hal_rcc.c ****      MODIFY_REG(RCC->CDCFGR1, RCC_CDCFGR1_CDPPRE, RCC_ClkInitStruct->APB3CLKDivider);
1119:Drivers/STM32H7xx_HAL_Driver/Src/stm32h7xx_hal_rcc.c ****    }
1120:Drivers/STM32H7xx_HAL_Driver/Src/stm32h7xx_hal_rcc.c **** #endif
1121:Drivers/STM32H7xx_HAL_Driver/Src/stm32h7xx_hal_rcc.c ****  }
1122:Drivers/STM32H7xx_HAL_Driver/Src/stm32h7xx_hal_rcc.c **** 
1123:Drivers/STM32H7xx_HAL_Driver/Src/stm32h7xx_hal_rcc.c ****   /*-------------------------- PCLK1 Configuration ---------------------------*/
1124:Drivers/STM32H7xx_HAL_Driver/Src/stm32h7xx_hal_rcc.c ****  if(((RCC_ClkInitStruct->ClockType) & RCC_CLOCKTYPE_PCLK1) == RCC_CLOCKTYPE_PCLK1)
1125:Drivers/STM32H7xx_HAL_Driver/Src/stm32h7xx_hal_rcc.c ****  {
1126:Drivers/STM32H7xx_HAL_Driver/Src/stm32h7xx_hal_rcc.c **** #if defined(RCC_D2CFGR_D2PPRE1)
1127:Drivers/STM32H7xx_HAL_Driver/Src/stm32h7xx_hal_rcc.c ****    if((RCC_ClkInitStruct->APB1CLKDivider) < (RCC->D2CFGR & RCC_D2CFGR_D2PPRE1))
1128:Drivers/STM32H7xx_HAL_Driver/Src/stm32h7xx_hal_rcc.c ****    {
1129:Drivers/STM32H7xx_HAL_Driver/Src/stm32h7xx_hal_rcc.c ****      assert_param(IS_RCC_PCLK1(RCC_ClkInitStruct->APB1CLKDivider));
1130:Drivers/STM32H7xx_HAL_Driver/Src/stm32h7xx_hal_rcc.c ****      MODIFY_REG(RCC->D2CFGR, RCC_D2CFGR_D2PPRE1, (RCC_ClkInitStruct->APB1CLKDivider));
1131:Drivers/STM32H7xx_HAL_Driver/Src/stm32h7xx_hal_rcc.c ****    }
1132:Drivers/STM32H7xx_HAL_Driver/Src/stm32h7xx_hal_rcc.c **** #else
1133:Drivers/STM32H7xx_HAL_Driver/Src/stm32h7xx_hal_rcc.c ****    if((RCC_ClkInitStruct->APB1CLKDivider) < (RCC->CDCFGR2 & RCC_CDCFGR2_CDPPRE1))
1134:Drivers/STM32H7xx_HAL_Driver/Src/stm32h7xx_hal_rcc.c ****    {
1135:Drivers/STM32H7xx_HAL_Driver/Src/stm32h7xx_hal_rcc.c ****      assert_param(IS_RCC_PCLK1(RCC_ClkInitStruct->APB1CLKDivider));
1136:Drivers/STM32H7xx_HAL_Driver/Src/stm32h7xx_hal_rcc.c ****      MODIFY_REG(RCC->CDCFGR2, RCC_CDCFGR2_CDPPRE1, (RCC_ClkInitStruct->APB1CLKDivider));
1137:Drivers/STM32H7xx_HAL_Driver/Src/stm32h7xx_hal_rcc.c ****    }
1138:Drivers/STM32H7xx_HAL_Driver/Src/stm32h7xx_hal_rcc.c **** #endif
1139:Drivers/STM32H7xx_HAL_Driver/Src/stm32h7xx_hal_rcc.c ****  }
1140:Drivers/STM32H7xx_HAL_Driver/Src/stm32h7xx_hal_rcc.c **** 
1141:Drivers/STM32H7xx_HAL_Driver/Src/stm32h7xx_hal_rcc.c ****   /*-------------------------- PCLK2 Configuration ---------------------------*/
1142:Drivers/STM32H7xx_HAL_Driver/Src/stm32h7xx_hal_rcc.c ****  if(((RCC_ClkInitStruct->ClockType) & RCC_CLOCKTYPE_PCLK2) == RCC_CLOCKTYPE_PCLK2)
1143:Drivers/STM32H7xx_HAL_Driver/Src/stm32h7xx_hal_rcc.c ****  {
1144:Drivers/STM32H7xx_HAL_Driver/Src/stm32h7xx_hal_rcc.c **** #if defined (RCC_D2CFGR_D2PPRE2)
1145:Drivers/STM32H7xx_HAL_Driver/Src/stm32h7xx_hal_rcc.c ****    if((RCC_ClkInitStruct->APB2CLKDivider) < (RCC->D2CFGR & RCC_D2CFGR_D2PPRE2))
1146:Drivers/STM32H7xx_HAL_Driver/Src/stm32h7xx_hal_rcc.c ****    {
1147:Drivers/STM32H7xx_HAL_Driver/Src/stm32h7xx_hal_rcc.c ****      assert_param(IS_RCC_PCLK2(RCC_ClkInitStruct->APB2CLKDivider));
1148:Drivers/STM32H7xx_HAL_Driver/Src/stm32h7xx_hal_rcc.c ****      MODIFY_REG(RCC->D2CFGR, RCC_D2CFGR_D2PPRE2, (RCC_ClkInitStruct->APB2CLKDivider));
1149:Drivers/STM32H7xx_HAL_Driver/Src/stm32h7xx_hal_rcc.c ****    }
1150:Drivers/STM32H7xx_HAL_Driver/Src/stm32h7xx_hal_rcc.c **** #else
1151:Drivers/STM32H7xx_HAL_Driver/Src/stm32h7xx_hal_rcc.c ****    if((RCC_ClkInitStruct->APB2CLKDivider) < (RCC->CDCFGR2 & RCC_CDCFGR2_CDPPRE2))
1152:Drivers/STM32H7xx_HAL_Driver/Src/stm32h7xx_hal_rcc.c ****    {
1153:Drivers/STM32H7xx_HAL_Driver/Src/stm32h7xx_hal_rcc.c ****      assert_param(IS_RCC_PCLK2(RCC_ClkInitStruct->APB2CLKDivider));
1154:Drivers/STM32H7xx_HAL_Driver/Src/stm32h7xx_hal_rcc.c ****      MODIFY_REG(RCC->CDCFGR2, RCC_CDCFGR2_CDPPRE2, (RCC_ClkInitStruct->APB2CLKDivider));
1155:Drivers/STM32H7xx_HAL_Driver/Src/stm32h7xx_hal_rcc.c ****    }
1156:Drivers/STM32H7xx_HAL_Driver/Src/stm32h7xx_hal_rcc.c **** #endif
1157:Drivers/STM32H7xx_HAL_Driver/Src/stm32h7xx_hal_rcc.c ****  }
1158:Drivers/STM32H7xx_HAL_Driver/Src/stm32h7xx_hal_rcc.c **** 
1159:Drivers/STM32H7xx_HAL_Driver/Src/stm32h7xx_hal_rcc.c ****   /*-------------------------- D3PCLK1/SRDPCLK1 Configuration ---------------------------*/
1160:Drivers/STM32H7xx_HAL_Driver/Src/stm32h7xx_hal_rcc.c ****  if(((RCC_ClkInitStruct->ClockType) & RCC_CLOCKTYPE_D3PCLK1) == RCC_CLOCKTYPE_D3PCLK1)
1161:Drivers/STM32H7xx_HAL_Driver/Src/stm32h7xx_hal_rcc.c ****  {
1162:Drivers/STM32H7xx_HAL_Driver/Src/stm32h7xx_hal_rcc.c **** #if defined(RCC_D3CFGR_D3PPRE)
ARM GAS  C:\Users\root\AppData\Local\Temp\ccvogEgx.s 			page 56


1163:Drivers/STM32H7xx_HAL_Driver/Src/stm32h7xx_hal_rcc.c ****    if((RCC_ClkInitStruct->APB4CLKDivider) < (RCC->D3CFGR & RCC_D3CFGR_D3PPRE))
1164:Drivers/STM32H7xx_HAL_Driver/Src/stm32h7xx_hal_rcc.c ****    {
1165:Drivers/STM32H7xx_HAL_Driver/Src/stm32h7xx_hal_rcc.c ****      assert_param(IS_RCC_D3PCLK1(RCC_ClkInitStruct->APB4CLKDivider));
1166:Drivers/STM32H7xx_HAL_Driver/Src/stm32h7xx_hal_rcc.c ****      MODIFY_REG(RCC->D3CFGR, RCC_D3CFGR_D3PPRE, (RCC_ClkInitStruct->APB4CLKDivider) );
1167:Drivers/STM32H7xx_HAL_Driver/Src/stm32h7xx_hal_rcc.c ****    }
1168:Drivers/STM32H7xx_HAL_Driver/Src/stm32h7xx_hal_rcc.c **** #else
1169:Drivers/STM32H7xx_HAL_Driver/Src/stm32h7xx_hal_rcc.c ****    if((RCC_ClkInitStruct->APB4CLKDivider) < (RCC->SRDCFGR & RCC_SRDCFGR_SRDPPRE))
1170:Drivers/STM32H7xx_HAL_Driver/Src/stm32h7xx_hal_rcc.c ****    {
1171:Drivers/STM32H7xx_HAL_Driver/Src/stm32h7xx_hal_rcc.c ****      assert_param(IS_RCC_SRDPCLK1(RCC_ClkInitStruct->APB4CLKDivider));
1172:Drivers/STM32H7xx_HAL_Driver/Src/stm32h7xx_hal_rcc.c ****      MODIFY_REG(RCC->SRDCFGR, RCC_SRDCFGR_SRDPPRE, (RCC_ClkInitStruct->APB4CLKDivider) );
1173:Drivers/STM32H7xx_HAL_Driver/Src/stm32h7xx_hal_rcc.c ****    }
1174:Drivers/STM32H7xx_HAL_Driver/Src/stm32h7xx_hal_rcc.c **** #endif
1175:Drivers/STM32H7xx_HAL_Driver/Src/stm32h7xx_hal_rcc.c ****  }
1176:Drivers/STM32H7xx_HAL_Driver/Src/stm32h7xx_hal_rcc.c **** 
1177:Drivers/STM32H7xx_HAL_Driver/Src/stm32h7xx_hal_rcc.c ****   /* Update the SystemCoreClock global variable */
1178:Drivers/STM32H7xx_HAL_Driver/Src/stm32h7xx_hal_rcc.c **** #if defined(RCC_D1CFGR_D1CPRE)
1179:Drivers/STM32H7xx_HAL_Driver/Src/stm32h7xx_hal_rcc.c ****   common_system_clock = HAL_RCC_GetSysClockFreq() >> ((D1CorePrescTable[(RCC->D1CFGR & RCC_D1CFGR_D
1180:Drivers/STM32H7xx_HAL_Driver/Src/stm32h7xx_hal_rcc.c **** #else
1181:Drivers/STM32H7xx_HAL_Driver/Src/stm32h7xx_hal_rcc.c ****   common_system_clock = HAL_RCC_GetSysClockFreq() >> ((D1CorePrescTable[(RCC->CDCFGR1 & RCC_CDCFGR1
1182:Drivers/STM32H7xx_HAL_Driver/Src/stm32h7xx_hal_rcc.c **** #endif
1183:Drivers/STM32H7xx_HAL_Driver/Src/stm32h7xx_hal_rcc.c **** 
1184:Drivers/STM32H7xx_HAL_Driver/Src/stm32h7xx_hal_rcc.c **** #if defined(RCC_D1CFGR_HPRE)
1185:Drivers/STM32H7xx_HAL_Driver/Src/stm32h7xx_hal_rcc.c ****   SystemD2Clock = (common_system_clock >> ((D1CorePrescTable[(RCC->D1CFGR & RCC_D1CFGR_HPRE)>> RCC_
1186:Drivers/STM32H7xx_HAL_Driver/Src/stm32h7xx_hal_rcc.c **** #else
1187:Drivers/STM32H7xx_HAL_Driver/Src/stm32h7xx_hal_rcc.c ****   SystemD2Clock = (common_system_clock >> ((D1CorePrescTable[(RCC->CDCFGR1 & RCC_CDCFGR1_HPRE)>> RC
1188:Drivers/STM32H7xx_HAL_Driver/Src/stm32h7xx_hal_rcc.c **** #endif
1189:Drivers/STM32H7xx_HAL_Driver/Src/stm32h7xx_hal_rcc.c **** 
1190:Drivers/STM32H7xx_HAL_Driver/Src/stm32h7xx_hal_rcc.c **** #if defined(DUAL_CORE) && defined(CORE_CM4)
1191:Drivers/STM32H7xx_HAL_Driver/Src/stm32h7xx_hal_rcc.c ****   SystemCoreClock = SystemD2Clock;
1192:Drivers/STM32H7xx_HAL_Driver/Src/stm32h7xx_hal_rcc.c **** #else
1193:Drivers/STM32H7xx_HAL_Driver/Src/stm32h7xx_hal_rcc.c ****   SystemCoreClock = common_system_clock;
1194:Drivers/STM32H7xx_HAL_Driver/Src/stm32h7xx_hal_rcc.c **** #endif /* DUAL_CORE && CORE_CM4 */
1195:Drivers/STM32H7xx_HAL_Driver/Src/stm32h7xx_hal_rcc.c **** 
1196:Drivers/STM32H7xx_HAL_Driver/Src/stm32h7xx_hal_rcc.c ****   /* Configure the source of time base considering new system clocks settings*/
1197:Drivers/STM32H7xx_HAL_Driver/Src/stm32h7xx_hal_rcc.c ****   halstatus = HAL_InitTick (uwTickPrio);
1198:Drivers/STM32H7xx_HAL_Driver/Src/stm32h7xx_hal_rcc.c **** 
1199:Drivers/STM32H7xx_HAL_Driver/Src/stm32h7xx_hal_rcc.c ****   return halstatus;
1200:Drivers/STM32H7xx_HAL_Driver/Src/stm32h7xx_hal_rcc.c **** }
1201:Drivers/STM32H7xx_HAL_Driver/Src/stm32h7xx_hal_rcc.c **** 
1202:Drivers/STM32H7xx_HAL_Driver/Src/stm32h7xx_hal_rcc.c **** /**
1203:Drivers/STM32H7xx_HAL_Driver/Src/stm32h7xx_hal_rcc.c ****   * @}
1204:Drivers/STM32H7xx_HAL_Driver/Src/stm32h7xx_hal_rcc.c ****   */
1205:Drivers/STM32H7xx_HAL_Driver/Src/stm32h7xx_hal_rcc.c **** 
1206:Drivers/STM32H7xx_HAL_Driver/Src/stm32h7xx_hal_rcc.c **** /** @defgroup RCC_Group2 Peripheral Control functions
1207:Drivers/STM32H7xx_HAL_Driver/Src/stm32h7xx_hal_rcc.c ****  *  @brief   RCC clocks control functions
1208:Drivers/STM32H7xx_HAL_Driver/Src/stm32h7xx_hal_rcc.c ****  *
1209:Drivers/STM32H7xx_HAL_Driver/Src/stm32h7xx_hal_rcc.c **** @verbatim
1210:Drivers/STM32H7xx_HAL_Driver/Src/stm32h7xx_hal_rcc.c ****  ===============================================================================
1211:Drivers/STM32H7xx_HAL_Driver/Src/stm32h7xx_hal_rcc.c ****                       ##### Peripheral Control functions #####
1212:Drivers/STM32H7xx_HAL_Driver/Src/stm32h7xx_hal_rcc.c ****  ===============================================================================
1213:Drivers/STM32H7xx_HAL_Driver/Src/stm32h7xx_hal_rcc.c ****     [..]
1214:Drivers/STM32H7xx_HAL_Driver/Src/stm32h7xx_hal_rcc.c ****     This subsection provides a set of functions allowing to control the RCC Clocks
1215:Drivers/STM32H7xx_HAL_Driver/Src/stm32h7xx_hal_rcc.c ****     frequencies.
1216:Drivers/STM32H7xx_HAL_Driver/Src/stm32h7xx_hal_rcc.c **** 
1217:Drivers/STM32H7xx_HAL_Driver/Src/stm32h7xx_hal_rcc.c **** @endverbatim
1218:Drivers/STM32H7xx_HAL_Driver/Src/stm32h7xx_hal_rcc.c ****   * @{
1219:Drivers/STM32H7xx_HAL_Driver/Src/stm32h7xx_hal_rcc.c ****   */
ARM GAS  C:\Users\root\AppData\Local\Temp\ccvogEgx.s 			page 57


1220:Drivers/STM32H7xx_HAL_Driver/Src/stm32h7xx_hal_rcc.c **** 
1221:Drivers/STM32H7xx_HAL_Driver/Src/stm32h7xx_hal_rcc.c **** /**
1222:Drivers/STM32H7xx_HAL_Driver/Src/stm32h7xx_hal_rcc.c ****   * @brief  Selects the clock source to output on MCO1 pin(PA8) or on MCO2 pin(PC9).
1223:Drivers/STM32H7xx_HAL_Driver/Src/stm32h7xx_hal_rcc.c ****   * @note   PA8/PC9 should be configured in alternate function mode.
1224:Drivers/STM32H7xx_HAL_Driver/Src/stm32h7xx_hal_rcc.c ****   * @param  RCC_MCOx: specifies the output direction for the clock source.
1225:Drivers/STM32H7xx_HAL_Driver/Src/stm32h7xx_hal_rcc.c ****   *          This parameter can be one of the following values:
1226:Drivers/STM32H7xx_HAL_Driver/Src/stm32h7xx_hal_rcc.c ****   *            @arg RCC_MCO1: Clock source to output on MCO1 pin(PA8).
1227:Drivers/STM32H7xx_HAL_Driver/Src/stm32h7xx_hal_rcc.c ****   *            @arg RCC_MCO2: Clock source to output on MCO2 pin(PC9).
1228:Drivers/STM32H7xx_HAL_Driver/Src/stm32h7xx_hal_rcc.c ****   * @param  RCC_MCOSource: specifies the clock source to output.
1229:Drivers/STM32H7xx_HAL_Driver/Src/stm32h7xx_hal_rcc.c ****   *          This parameter can be one of the following values:
1230:Drivers/STM32H7xx_HAL_Driver/Src/stm32h7xx_hal_rcc.c ****   *            @arg RCC_MCO1SOURCE_HSI: HSI clock selected as MCO1 source
1231:Drivers/STM32H7xx_HAL_Driver/Src/stm32h7xx_hal_rcc.c ****   *            @arg RCC_MCO1SOURCE_LSE: LSE clock selected as MCO1 source
1232:Drivers/STM32H7xx_HAL_Driver/Src/stm32h7xx_hal_rcc.c ****   *            @arg RCC_MCO1SOURCE_HSE: HSE clock selected as MCO1 source
1233:Drivers/STM32H7xx_HAL_Driver/Src/stm32h7xx_hal_rcc.c ****   *            @arg RCC_MCO1SOURCE_PLL1QCLK:  PLL1Q clock selected as MCO1 source
1234:Drivers/STM32H7xx_HAL_Driver/Src/stm32h7xx_hal_rcc.c ****   *            @arg RCC_MCO1SOURCE_HSI48: HSI48 (48MHZ) selected as MCO1 source
1235:Drivers/STM32H7xx_HAL_Driver/Src/stm32h7xx_hal_rcc.c ****   *            @arg RCC_MCO2SOURCE_SYSCLK: System clock (SYSCLK) selected as MCO2 source
1236:Drivers/STM32H7xx_HAL_Driver/Src/stm32h7xx_hal_rcc.c ****   *            @arg RCC_MCO2SOURCE_PLL2PCLK: PLL2P clock selected as MCO2 source
1237:Drivers/STM32H7xx_HAL_Driver/Src/stm32h7xx_hal_rcc.c ****   *            @arg RCC_MCO2SOURCE_HSE: HSE clock selected as MCO2 source
1238:Drivers/STM32H7xx_HAL_Driver/Src/stm32h7xx_hal_rcc.c ****   *            @arg RCC_MCO2SOURCE_PLLCLK:  PLL1P clock selected as MCO2 source
1239:Drivers/STM32H7xx_HAL_Driver/Src/stm32h7xx_hal_rcc.c ****   *            @arg RCC_MCO2SOURCE_CSICLK:  CSI clock selected as MCO2 source
1240:Drivers/STM32H7xx_HAL_Driver/Src/stm32h7xx_hal_rcc.c ****   *            @arg RCC_MCO2SOURCE_LSICLK:  LSI clock selected as MCO2 source
1241:Drivers/STM32H7xx_HAL_Driver/Src/stm32h7xx_hal_rcc.c ****   * @param  RCC_MCODiv: specifies the MCOx pre-scaler.
1242:Drivers/STM32H7xx_HAL_Driver/Src/stm32h7xx_hal_rcc.c ****   *          This parameter can be one of the following values:
1243:Drivers/STM32H7xx_HAL_Driver/Src/stm32h7xx_hal_rcc.c ****   *            @arg RCC_MCODIV_1 up to RCC_MCODIV_15  : divider applied to MCOx clock
1244:Drivers/STM32H7xx_HAL_Driver/Src/stm32h7xx_hal_rcc.c ****   * @retval None
1245:Drivers/STM32H7xx_HAL_Driver/Src/stm32h7xx_hal_rcc.c ****   */
1246:Drivers/STM32H7xx_HAL_Driver/Src/stm32h7xx_hal_rcc.c **** void HAL_RCC_MCOConfig(uint32_t RCC_MCOx, uint32_t RCC_MCOSource, uint32_t RCC_MCODiv)
1247:Drivers/STM32H7xx_HAL_Driver/Src/stm32h7xx_hal_rcc.c **** {
 1721              		.loc 1 1247 1 is_stmt 1 view -0
 1722              		.cfi_startproc
 1723              		@ args = 0, pretend = 0, frame = 32
 1724              		@ frame_needed = 0, uses_anonymous_args = 0
 1725              		.loc 1 1247 1 is_stmt 0 view .LVU552
 1726 0000 70B5     		push	{r4, r5, r6, lr}
 1727              	.LCFI4:
 1728              		.cfi_def_cfa_offset 16
 1729              		.cfi_offset 4, -16
 1730              		.cfi_offset 5, -12
 1731              		.cfi_offset 6, -8
 1732              		.cfi_offset 14, -4
 1733 0002 88B0     		sub	sp, sp, #32
 1734              	.LCFI5:
 1735              		.cfi_def_cfa_offset 48
 1736 0004 0C46     		mov	r4, r1
 1737 0006 1546     		mov	r5, r2
1248:Drivers/STM32H7xx_HAL_Driver/Src/stm32h7xx_hal_rcc.c ****   GPIO_InitTypeDef GPIO_InitStruct;
 1738              		.loc 1 1248 3 is_stmt 1 view .LVU553
1249:Drivers/STM32H7xx_HAL_Driver/Src/stm32h7xx_hal_rcc.c ****   /* Check the parameters */
1250:Drivers/STM32H7xx_HAL_Driver/Src/stm32h7xx_hal_rcc.c ****   assert_param(IS_RCC_MCO(RCC_MCOx));
 1739              		.loc 1 1250 3 view .LVU554
1251:Drivers/STM32H7xx_HAL_Driver/Src/stm32h7xx_hal_rcc.c ****   assert_param(IS_RCC_MCODIV(RCC_MCODiv));
 1740              		.loc 1 1251 3 view .LVU555
1252:Drivers/STM32H7xx_HAL_Driver/Src/stm32h7xx_hal_rcc.c ****   /* RCC_MCO1 */
1253:Drivers/STM32H7xx_HAL_Driver/Src/stm32h7xx_hal_rcc.c ****   if(RCC_MCOx == RCC_MCO1)
 1741              		.loc 1 1253 3 view .LVU556
 1742              		.loc 1 1253 5 is_stmt 0 view .LVU557
 1743 0008 10BB     		cbnz	r0, .L166
ARM GAS  C:\Users\root\AppData\Local\Temp\ccvogEgx.s 			page 58


1254:Drivers/STM32H7xx_HAL_Driver/Src/stm32h7xx_hal_rcc.c ****   {
1255:Drivers/STM32H7xx_HAL_Driver/Src/stm32h7xx_hal_rcc.c ****     assert_param(IS_RCC_MCO1SOURCE(RCC_MCOSource));
 1744              		.loc 1 1255 5 is_stmt 1 view .LVU558
1256:Drivers/STM32H7xx_HAL_Driver/Src/stm32h7xx_hal_rcc.c **** 
1257:Drivers/STM32H7xx_HAL_Driver/Src/stm32h7xx_hal_rcc.c ****     /* MCO1 Clock Enable */
1258:Drivers/STM32H7xx_HAL_Driver/Src/stm32h7xx_hal_rcc.c ****     MCO1_CLK_ENABLE();
 1745              		.loc 1 1258 5 view .LVU559
 1746              	.LBB13:
 1747              		.loc 1 1258 5 view .LVU560
 1748              		.loc 1 1258 5 view .LVU561
 1749 000a 234E     		ldr	r6, .L169
 1750 000c D6F8E030 		ldr	r3, [r6, #224]
 1751 0010 43F00103 		orr	r3, r3, #1
 1752 0014 C6F8E030 		str	r3, [r6, #224]
 1753              		.loc 1 1258 5 view .LVU562
 1754 0018 D6F8E030 		ldr	r3, [r6, #224]
 1755 001c 03F00103 		and	r3, r3, #1
 1756 0020 0193     		str	r3, [sp, #4]
 1757              		.loc 1 1258 5 view .LVU563
 1758 0022 019B     		ldr	r3, [sp, #4]
 1759              	.LBE13:
 1760              		.loc 1 1258 5 view .LVU564
1259:Drivers/STM32H7xx_HAL_Driver/Src/stm32h7xx_hal_rcc.c **** 
1260:Drivers/STM32H7xx_HAL_Driver/Src/stm32h7xx_hal_rcc.c ****     /* Configure the MCO1 pin in alternate function mode */
1261:Drivers/STM32H7xx_HAL_Driver/Src/stm32h7xx_hal_rcc.c ****     GPIO_InitStruct.Pin = MCO1_PIN;
 1761              		.loc 1 1261 5 view .LVU565
 1762              		.loc 1 1261 25 is_stmt 0 view .LVU566
 1763 0024 4FF48073 		mov	r3, #256
 1764 0028 0393     		str	r3, [sp, #12]
1262:Drivers/STM32H7xx_HAL_Driver/Src/stm32h7xx_hal_rcc.c ****     GPIO_InitStruct.Mode = GPIO_MODE_AF_PP;
 1765              		.loc 1 1262 5 is_stmt 1 view .LVU567
 1766              		.loc 1 1262 26 is_stmt 0 view .LVU568
 1767 002a 0223     		movs	r3, #2
 1768 002c 0493     		str	r3, [sp, #16]
1263:Drivers/STM32H7xx_HAL_Driver/Src/stm32h7xx_hal_rcc.c ****     GPIO_InitStruct.Speed = GPIO_SPEED_FREQ_VERY_HIGH;
 1769              		.loc 1 1263 5 is_stmt 1 view .LVU569
 1770              		.loc 1 1263 27 is_stmt 0 view .LVU570
 1771 002e 0323     		movs	r3, #3
 1772 0030 0693     		str	r3, [sp, #24]
1264:Drivers/STM32H7xx_HAL_Driver/Src/stm32h7xx_hal_rcc.c ****     GPIO_InitStruct.Pull = GPIO_NOPULL;
 1773              		.loc 1 1264 5 is_stmt 1 view .LVU571
 1774              		.loc 1 1264 26 is_stmt 0 view .LVU572
 1775 0032 0023     		movs	r3, #0
 1776 0034 0593     		str	r3, [sp, #20]
1265:Drivers/STM32H7xx_HAL_Driver/Src/stm32h7xx_hal_rcc.c ****     GPIO_InitStruct.Alternate = GPIO_AF0_MCO;
 1777              		.loc 1 1265 5 is_stmt 1 view .LVU573
 1778              		.loc 1 1265 31 is_stmt 0 view .LVU574
 1779 0036 0793     		str	r3, [sp, #28]
1266:Drivers/STM32H7xx_HAL_Driver/Src/stm32h7xx_hal_rcc.c ****     HAL_GPIO_Init(MCO1_GPIO_PORT, &GPIO_InitStruct);
 1780              		.loc 1 1266 5 is_stmt 1 view .LVU575
 1781 0038 03A9     		add	r1, sp, #12
 1782              	.LVL139:
 1783              		.loc 1 1266 5 is_stmt 0 view .LVU576
 1784 003a 1848     		ldr	r0, .L169+4
 1785              	.LVL140:
 1786              		.loc 1 1266 5 view .LVU577
 1787 003c FFF7FEFF 		bl	HAL_GPIO_Init
ARM GAS  C:\Users\root\AppData\Local\Temp\ccvogEgx.s 			page 59


 1788              	.LVL141:
1267:Drivers/STM32H7xx_HAL_Driver/Src/stm32h7xx_hal_rcc.c **** 
1268:Drivers/STM32H7xx_HAL_Driver/Src/stm32h7xx_hal_rcc.c ****     /* Mask MCO1 and MCO1PRE[3:0] bits then Select MCO1 clock source and pre-scaler */
1269:Drivers/STM32H7xx_HAL_Driver/Src/stm32h7xx_hal_rcc.c ****     MODIFY_REG(RCC->CFGR, (RCC_CFGR_MCO1 | RCC_CFGR_MCO1PRE), (RCC_MCOSource | RCC_MCODiv));
 1789              		.loc 1 1269 5 is_stmt 1 view .LVU578
 1790 0040 3369     		ldr	r3, [r6, #16]
 1791 0042 23F0FE73 		bic	r3, r3, #33292288
 1792 0046 2C43     		orrs	r4, r4, r5
 1793              	.LVL142:
 1794              		.loc 1 1269 5 is_stmt 0 view .LVU579
 1795 0048 1C43     		orrs	r4, r4, r3
 1796 004a 3461     		str	r4, [r6, #16]
 1797              	.L165:
1270:Drivers/STM32H7xx_HAL_Driver/Src/stm32h7xx_hal_rcc.c ****   }
1271:Drivers/STM32H7xx_HAL_Driver/Src/stm32h7xx_hal_rcc.c ****   else
1272:Drivers/STM32H7xx_HAL_Driver/Src/stm32h7xx_hal_rcc.c ****   {
1273:Drivers/STM32H7xx_HAL_Driver/Src/stm32h7xx_hal_rcc.c ****     assert_param(IS_RCC_MCO2SOURCE(RCC_MCOSource));
1274:Drivers/STM32H7xx_HAL_Driver/Src/stm32h7xx_hal_rcc.c **** 
1275:Drivers/STM32H7xx_HAL_Driver/Src/stm32h7xx_hal_rcc.c ****     /* MCO2 Clock Enable */
1276:Drivers/STM32H7xx_HAL_Driver/Src/stm32h7xx_hal_rcc.c ****     MCO2_CLK_ENABLE();
1277:Drivers/STM32H7xx_HAL_Driver/Src/stm32h7xx_hal_rcc.c **** 
1278:Drivers/STM32H7xx_HAL_Driver/Src/stm32h7xx_hal_rcc.c ****     /* Configure the MCO2 pin in alternate function mode */
1279:Drivers/STM32H7xx_HAL_Driver/Src/stm32h7xx_hal_rcc.c ****     GPIO_InitStruct.Pin = MCO2_PIN;
1280:Drivers/STM32H7xx_HAL_Driver/Src/stm32h7xx_hal_rcc.c ****     GPIO_InitStruct.Mode = GPIO_MODE_AF_PP;
1281:Drivers/STM32H7xx_HAL_Driver/Src/stm32h7xx_hal_rcc.c ****     GPIO_InitStruct.Speed = GPIO_SPEED_FREQ_VERY_HIGH;
1282:Drivers/STM32H7xx_HAL_Driver/Src/stm32h7xx_hal_rcc.c ****     GPIO_InitStruct.Pull = GPIO_NOPULL;
1283:Drivers/STM32H7xx_HAL_Driver/Src/stm32h7xx_hal_rcc.c ****     GPIO_InitStruct.Alternate = GPIO_AF0_MCO;
1284:Drivers/STM32H7xx_HAL_Driver/Src/stm32h7xx_hal_rcc.c ****     HAL_GPIO_Init(MCO2_GPIO_PORT, &GPIO_InitStruct);
1285:Drivers/STM32H7xx_HAL_Driver/Src/stm32h7xx_hal_rcc.c **** 
1286:Drivers/STM32H7xx_HAL_Driver/Src/stm32h7xx_hal_rcc.c ****     /* Mask MCO2 and MCO2PRE[3:0] bits then Select MCO2 clock source and pre-scaler */
1287:Drivers/STM32H7xx_HAL_Driver/Src/stm32h7xx_hal_rcc.c ****     MODIFY_REG(RCC->CFGR, (RCC_CFGR_MCO2 | RCC_CFGR_MCO2PRE), (RCC_MCOSource | (RCC_MCODiv << 7U)))
1288:Drivers/STM32H7xx_HAL_Driver/Src/stm32h7xx_hal_rcc.c ****   }
1289:Drivers/STM32H7xx_HAL_Driver/Src/stm32h7xx_hal_rcc.c **** }
 1798              		.loc 1 1289 1 view .LVU580
 1799 004c 08B0     		add	sp, sp, #32
 1800              	.LCFI6:
 1801              		.cfi_remember_state
 1802              		.cfi_def_cfa_offset 16
 1803              		@ sp needed
 1804 004e 70BD     		pop	{r4, r5, r6, pc}
 1805              	.LVL143:
 1806              	.L166:
 1807              	.LCFI7:
 1808              		.cfi_restore_state
1273:Drivers/STM32H7xx_HAL_Driver/Src/stm32h7xx_hal_rcc.c **** 
 1809              		.loc 1 1273 5 is_stmt 1 view .LVU581
1276:Drivers/STM32H7xx_HAL_Driver/Src/stm32h7xx_hal_rcc.c **** 
 1810              		.loc 1 1276 5 view .LVU582
 1811              	.LBB14:
1276:Drivers/STM32H7xx_HAL_Driver/Src/stm32h7xx_hal_rcc.c **** 
 1812              		.loc 1 1276 5 view .LVU583
1276:Drivers/STM32H7xx_HAL_Driver/Src/stm32h7xx_hal_rcc.c **** 
 1813              		.loc 1 1276 5 view .LVU584
 1814 0050 114E     		ldr	r6, .L169
 1815 0052 D6F8E030 		ldr	r3, [r6, #224]
 1816 0056 43F00403 		orr	r3, r3, #4
 1817 005a C6F8E030 		str	r3, [r6, #224]
ARM GAS  C:\Users\root\AppData\Local\Temp\ccvogEgx.s 			page 60


1276:Drivers/STM32H7xx_HAL_Driver/Src/stm32h7xx_hal_rcc.c **** 
 1818              		.loc 1 1276 5 view .LVU585
 1819 005e D6F8E030 		ldr	r3, [r6, #224]
 1820 0062 03F00403 		and	r3, r3, #4
 1821 0066 0293     		str	r3, [sp, #8]
1276:Drivers/STM32H7xx_HAL_Driver/Src/stm32h7xx_hal_rcc.c **** 
 1822              		.loc 1 1276 5 view .LVU586
 1823 0068 029B     		ldr	r3, [sp, #8]
 1824              	.LBE14:
1276:Drivers/STM32H7xx_HAL_Driver/Src/stm32h7xx_hal_rcc.c **** 
 1825              		.loc 1 1276 5 view .LVU587
1279:Drivers/STM32H7xx_HAL_Driver/Src/stm32h7xx_hal_rcc.c ****     GPIO_InitStruct.Mode = GPIO_MODE_AF_PP;
 1826              		.loc 1 1279 5 view .LVU588
1279:Drivers/STM32H7xx_HAL_Driver/Src/stm32h7xx_hal_rcc.c ****     GPIO_InitStruct.Mode = GPIO_MODE_AF_PP;
 1827              		.loc 1 1279 25 is_stmt 0 view .LVU589
 1828 006a 4FF40073 		mov	r3, #512
 1829 006e 0393     		str	r3, [sp, #12]
1280:Drivers/STM32H7xx_HAL_Driver/Src/stm32h7xx_hal_rcc.c ****     GPIO_InitStruct.Speed = GPIO_SPEED_FREQ_VERY_HIGH;
 1830              		.loc 1 1280 5 is_stmt 1 view .LVU590
1280:Drivers/STM32H7xx_HAL_Driver/Src/stm32h7xx_hal_rcc.c ****     GPIO_InitStruct.Speed = GPIO_SPEED_FREQ_VERY_HIGH;
 1831              		.loc 1 1280 26 is_stmt 0 view .LVU591
 1832 0070 0223     		movs	r3, #2
 1833 0072 0493     		str	r3, [sp, #16]
1281:Drivers/STM32H7xx_HAL_Driver/Src/stm32h7xx_hal_rcc.c ****     GPIO_InitStruct.Pull = GPIO_NOPULL;
 1834              		.loc 1 1281 5 is_stmt 1 view .LVU592
1281:Drivers/STM32H7xx_HAL_Driver/Src/stm32h7xx_hal_rcc.c ****     GPIO_InitStruct.Pull = GPIO_NOPULL;
 1835              		.loc 1 1281 27 is_stmt 0 view .LVU593
 1836 0074 0323     		movs	r3, #3
 1837 0076 0693     		str	r3, [sp, #24]
1282:Drivers/STM32H7xx_HAL_Driver/Src/stm32h7xx_hal_rcc.c ****     GPIO_InitStruct.Alternate = GPIO_AF0_MCO;
 1838              		.loc 1 1282 5 is_stmt 1 view .LVU594
1282:Drivers/STM32H7xx_HAL_Driver/Src/stm32h7xx_hal_rcc.c ****     GPIO_InitStruct.Alternate = GPIO_AF0_MCO;
 1839              		.loc 1 1282 26 is_stmt 0 view .LVU595
 1840 0078 0023     		movs	r3, #0
 1841 007a 0593     		str	r3, [sp, #20]
1283:Drivers/STM32H7xx_HAL_Driver/Src/stm32h7xx_hal_rcc.c ****     HAL_GPIO_Init(MCO2_GPIO_PORT, &GPIO_InitStruct);
 1842              		.loc 1 1283 5 is_stmt 1 view .LVU596
1283:Drivers/STM32H7xx_HAL_Driver/Src/stm32h7xx_hal_rcc.c ****     HAL_GPIO_Init(MCO2_GPIO_PORT, &GPIO_InitStruct);
 1843              		.loc 1 1283 31 is_stmt 0 view .LVU597
 1844 007c 0793     		str	r3, [sp, #28]
1284:Drivers/STM32H7xx_HAL_Driver/Src/stm32h7xx_hal_rcc.c **** 
 1845              		.loc 1 1284 5 is_stmt 1 view .LVU598
 1846 007e 03A9     		add	r1, sp, #12
 1847              	.LVL144:
1284:Drivers/STM32H7xx_HAL_Driver/Src/stm32h7xx_hal_rcc.c **** 
 1848              		.loc 1 1284 5 is_stmt 0 view .LVU599
 1849 0080 0748     		ldr	r0, .L169+8
 1850              	.LVL145:
1284:Drivers/STM32H7xx_HAL_Driver/Src/stm32h7xx_hal_rcc.c **** 
 1851              		.loc 1 1284 5 view .LVU600
 1852 0082 FFF7FEFF 		bl	HAL_GPIO_Init
 1853              	.LVL146:
1287:Drivers/STM32H7xx_HAL_Driver/Src/stm32h7xx_hal_rcc.c ****   }
 1854              		.loc 1 1287 5 is_stmt 1 view .LVU601
 1855 0086 3369     		ldr	r3, [r6, #16]
 1856 0088 23F07E43 		bic	r3, r3, #-33554432
 1857 008c 44EAC514 		orr	r4, r4, r5, lsl #7
ARM GAS  C:\Users\root\AppData\Local\Temp\ccvogEgx.s 			page 61


 1858              	.LVL147:
1287:Drivers/STM32H7xx_HAL_Driver/Src/stm32h7xx_hal_rcc.c ****   }
 1859              		.loc 1 1287 5 is_stmt 0 view .LVU602
 1860 0090 1C43     		orrs	r4, r4, r3
 1861 0092 3461     		str	r4, [r6, #16]
 1862              		.loc 1 1289 1 view .LVU603
 1863 0094 DAE7     		b	.L165
 1864              	.L170:
 1865 0096 00BF     		.align	2
 1866              	.L169:
 1867 0098 00440258 		.word	1476543488
 1868 009c 00000258 		.word	1476526080
 1869 00a0 00080258 		.word	1476528128
 1870              		.cfi_endproc
 1871              	.LFE144:
 1873              		.section	.text.HAL_RCC_EnableCSS,"ax",%progbits
 1874              		.align	1
 1875              		.global	HAL_RCC_EnableCSS
 1876              		.syntax unified
 1877              		.thumb
 1878              		.thumb_func
 1879              		.fpu fpv5-d16
 1881              	HAL_RCC_EnableCSS:
 1882              	.LFB145:
1290:Drivers/STM32H7xx_HAL_Driver/Src/stm32h7xx_hal_rcc.c **** 
1291:Drivers/STM32H7xx_HAL_Driver/Src/stm32h7xx_hal_rcc.c **** /**
1292:Drivers/STM32H7xx_HAL_Driver/Src/stm32h7xx_hal_rcc.c ****   * @brief  Enables the Clock Security System.
1293:Drivers/STM32H7xx_HAL_Driver/Src/stm32h7xx_hal_rcc.c ****   * @note   If a failure is detected on the HSE oscillator clock, this oscillator
1294:Drivers/STM32H7xx_HAL_Driver/Src/stm32h7xx_hal_rcc.c ****   *         is automatically disabled and an interrupt is generated to inform the
1295:Drivers/STM32H7xx_HAL_Driver/Src/stm32h7xx_hal_rcc.c ****   *         software about the failure (Clock Security System Interrupt, CSSI),
1296:Drivers/STM32H7xx_HAL_Driver/Src/stm32h7xx_hal_rcc.c ****   *         allowing the MCU to perform rescue operations. The CSSI is linked to
1297:Drivers/STM32H7xx_HAL_Driver/Src/stm32h7xx_hal_rcc.c ****   *         the Cortex-M NMI (Non-Mask-able Interrupt) exception vector.
1298:Drivers/STM32H7xx_HAL_Driver/Src/stm32h7xx_hal_rcc.c ****   * @retval None
1299:Drivers/STM32H7xx_HAL_Driver/Src/stm32h7xx_hal_rcc.c ****   */
1300:Drivers/STM32H7xx_HAL_Driver/Src/stm32h7xx_hal_rcc.c **** void HAL_RCC_EnableCSS(void)
1301:Drivers/STM32H7xx_HAL_Driver/Src/stm32h7xx_hal_rcc.c **** {
 1883              		.loc 1 1301 1 is_stmt 1 view -0
 1884              		.cfi_startproc
 1885              		@ args = 0, pretend = 0, frame = 0
 1886              		@ frame_needed = 0, uses_anonymous_args = 0
 1887              		@ link register save eliminated.
1302:Drivers/STM32H7xx_HAL_Driver/Src/stm32h7xx_hal_rcc.c ****   SET_BIT(RCC->CR, RCC_CR_CSSHSEON) ;
 1888              		.loc 1 1302 3 view .LVU605
 1889 0000 024A     		ldr	r2, .L172
 1890 0002 1368     		ldr	r3, [r2]
 1891 0004 43F40023 		orr	r3, r3, #524288
 1892 0008 1360     		str	r3, [r2]
1303:Drivers/STM32H7xx_HAL_Driver/Src/stm32h7xx_hal_rcc.c **** }
 1893              		.loc 1 1303 1 is_stmt 0 view .LVU606
 1894 000a 7047     		bx	lr
 1895              	.L173:
 1896              		.align	2
 1897              	.L172:
 1898 000c 00440258 		.word	1476543488
 1899              		.cfi_endproc
 1900              	.LFE145:
 1902              		.section	.text.HAL_RCC_DisableCSS,"ax",%progbits
ARM GAS  C:\Users\root\AppData\Local\Temp\ccvogEgx.s 			page 62


 1903              		.align	1
 1904              		.global	HAL_RCC_DisableCSS
 1905              		.syntax unified
 1906              		.thumb
 1907              		.thumb_func
 1908              		.fpu fpv5-d16
 1910              	HAL_RCC_DisableCSS:
 1911              	.LFB146:
1304:Drivers/STM32H7xx_HAL_Driver/Src/stm32h7xx_hal_rcc.c **** 
1305:Drivers/STM32H7xx_HAL_Driver/Src/stm32h7xx_hal_rcc.c **** /**
1306:Drivers/STM32H7xx_HAL_Driver/Src/stm32h7xx_hal_rcc.c ****   * @brief  Disables the Clock Security System.
1307:Drivers/STM32H7xx_HAL_Driver/Src/stm32h7xx_hal_rcc.c ****   * @retval None
1308:Drivers/STM32H7xx_HAL_Driver/Src/stm32h7xx_hal_rcc.c ****   */
1309:Drivers/STM32H7xx_HAL_Driver/Src/stm32h7xx_hal_rcc.c **** void HAL_RCC_DisableCSS(void)
1310:Drivers/STM32H7xx_HAL_Driver/Src/stm32h7xx_hal_rcc.c **** {
 1912              		.loc 1 1310 1 is_stmt 1 view -0
 1913              		.cfi_startproc
 1914              		@ args = 0, pretend = 0, frame = 0
 1915              		@ frame_needed = 0, uses_anonymous_args = 0
 1916              		@ link register save eliminated.
1311:Drivers/STM32H7xx_HAL_Driver/Src/stm32h7xx_hal_rcc.c ****   CLEAR_BIT(RCC->CR, RCC_CR_CSSHSEON);
 1917              		.loc 1 1311 3 view .LVU608
 1918 0000 024A     		ldr	r2, .L175
 1919 0002 1368     		ldr	r3, [r2]
 1920 0004 23F40023 		bic	r3, r3, #524288
 1921 0008 1360     		str	r3, [r2]
1312:Drivers/STM32H7xx_HAL_Driver/Src/stm32h7xx_hal_rcc.c **** }
 1922              		.loc 1 1312 1 is_stmt 0 view .LVU609
 1923 000a 7047     		bx	lr
 1924              	.L176:
 1925              		.align	2
 1926              	.L175:
 1927 000c 00440258 		.word	1476543488
 1928              		.cfi_endproc
 1929              	.LFE146:
 1931              		.section	.text.HAL_RCC_GetSysClockFreq,"ax",%progbits
 1932              		.align	1
 1933              		.global	HAL_RCC_GetSysClockFreq
 1934              		.syntax unified
 1935              		.thumb
 1936              		.thumb_func
 1937              		.fpu fpv5-d16
 1939              	HAL_RCC_GetSysClockFreq:
 1940              	.LFB147:
1313:Drivers/STM32H7xx_HAL_Driver/Src/stm32h7xx_hal_rcc.c **** 
1314:Drivers/STM32H7xx_HAL_Driver/Src/stm32h7xx_hal_rcc.c **** /**
1315:Drivers/STM32H7xx_HAL_Driver/Src/stm32h7xx_hal_rcc.c ****   * @brief  Returns the SYSCLK frequency
1316:Drivers/STM32H7xx_HAL_Driver/Src/stm32h7xx_hal_rcc.c ****   *
1317:Drivers/STM32H7xx_HAL_Driver/Src/stm32h7xx_hal_rcc.c ****   * @note   The system frequency computed by this function is not the real
1318:Drivers/STM32H7xx_HAL_Driver/Src/stm32h7xx_hal_rcc.c ****   *         frequency in the chip. It is calculated based on the predefined
1319:Drivers/STM32H7xx_HAL_Driver/Src/stm32h7xx_hal_rcc.c ****   *         constant and the selected clock source:
1320:Drivers/STM32H7xx_HAL_Driver/Src/stm32h7xx_hal_rcc.c ****   * @note     If SYSCLK source is CSI, function returns values based on CSI_VALUE(*)
1321:Drivers/STM32H7xx_HAL_Driver/Src/stm32h7xx_hal_rcc.c ****   * @note     If SYSCLK source is HSI, function returns values based on HSI_VALUE(**)
1322:Drivers/STM32H7xx_HAL_Driver/Src/stm32h7xx_hal_rcc.c ****   * @note     If SYSCLK source is HSE, function returns values based on HSE_VALUE(***)
1323:Drivers/STM32H7xx_HAL_Driver/Src/stm32h7xx_hal_rcc.c ****   * @note     If SYSCLK source is PLL, function returns values based on CSI_VALUE(*),
1324:Drivers/STM32H7xx_HAL_Driver/Src/stm32h7xx_hal_rcc.c ****   *           HSI_VALUE(**) or HSE_VALUE(***) multiplied/divided by the PLL factors.
1325:Drivers/STM32H7xx_HAL_Driver/Src/stm32h7xx_hal_rcc.c ****   * @note     (*) CSI_VALUE is a constant defined in stm32h7xx_hal_conf.h file (default value
ARM GAS  C:\Users\root\AppData\Local\Temp\ccvogEgx.s 			page 63


1326:Drivers/STM32H7xx_HAL_Driver/Src/stm32h7xx_hal_rcc.c ****   *               4 MHz) but the real value may vary depending on the variations
1327:Drivers/STM32H7xx_HAL_Driver/Src/stm32h7xx_hal_rcc.c ****   *               in voltage and temperature.
1328:Drivers/STM32H7xx_HAL_Driver/Src/stm32h7xx_hal_rcc.c ****   * @note     (**) HSI_VALUE is a constant defined in stm32h7xx_hal_conf.h file (default value
1329:Drivers/STM32H7xx_HAL_Driver/Src/stm32h7xx_hal_rcc.c ****   *               64 MHz) but the real value may vary depending on the variations
1330:Drivers/STM32H7xx_HAL_Driver/Src/stm32h7xx_hal_rcc.c ****   *               in voltage and temperature.
1331:Drivers/STM32H7xx_HAL_Driver/Src/stm32h7xx_hal_rcc.c ****   * @note     (***) HSE_VALUE is a constant defined in stm32h7xx_hal_conf.h file (default value
1332:Drivers/STM32H7xx_HAL_Driver/Src/stm32h7xx_hal_rcc.c ****   *                25 MHz), user has to ensure that HSE_VALUE is same as the real
1333:Drivers/STM32H7xx_HAL_Driver/Src/stm32h7xx_hal_rcc.c ****   *                frequency of the crystal used. Otherwise, this function may
1334:Drivers/STM32H7xx_HAL_Driver/Src/stm32h7xx_hal_rcc.c ****   *                have wrong result.
1335:Drivers/STM32H7xx_HAL_Driver/Src/stm32h7xx_hal_rcc.c ****   *
1336:Drivers/STM32H7xx_HAL_Driver/Src/stm32h7xx_hal_rcc.c ****   * @note   The result of this function could be not correct when using fractional
1337:Drivers/STM32H7xx_HAL_Driver/Src/stm32h7xx_hal_rcc.c ****   *         value for HSE crystal.
1338:Drivers/STM32H7xx_HAL_Driver/Src/stm32h7xx_hal_rcc.c ****   *
1339:Drivers/STM32H7xx_HAL_Driver/Src/stm32h7xx_hal_rcc.c ****   * @note   This function can be used by the user application to compute the
1340:Drivers/STM32H7xx_HAL_Driver/Src/stm32h7xx_hal_rcc.c ****   *         baud rate for the communication peripherals or configure other parameters.
1341:Drivers/STM32H7xx_HAL_Driver/Src/stm32h7xx_hal_rcc.c ****   *
1342:Drivers/STM32H7xx_HAL_Driver/Src/stm32h7xx_hal_rcc.c ****   * @note   Each time SYSCLK changes, this function must be called to update the
1343:Drivers/STM32H7xx_HAL_Driver/Src/stm32h7xx_hal_rcc.c ****   *         right SYSCLK value. Otherwise, any configuration based on this function will be incorre
1344:Drivers/STM32H7xx_HAL_Driver/Src/stm32h7xx_hal_rcc.c ****   *
1345:Drivers/STM32H7xx_HAL_Driver/Src/stm32h7xx_hal_rcc.c ****   *
1346:Drivers/STM32H7xx_HAL_Driver/Src/stm32h7xx_hal_rcc.c ****   * @retval SYSCLK frequency
1347:Drivers/STM32H7xx_HAL_Driver/Src/stm32h7xx_hal_rcc.c ****   */
1348:Drivers/STM32H7xx_HAL_Driver/Src/stm32h7xx_hal_rcc.c **** uint32_t HAL_RCC_GetSysClockFreq(void)
1349:Drivers/STM32H7xx_HAL_Driver/Src/stm32h7xx_hal_rcc.c **** {
 1941              		.loc 1 1349 1 is_stmt 1 view -0
 1942              		.cfi_startproc
 1943              		@ args = 0, pretend = 0, frame = 0
 1944              		@ frame_needed = 0, uses_anonymous_args = 0
 1945              		@ link register save eliminated.
1350:Drivers/STM32H7xx_HAL_Driver/Src/stm32h7xx_hal_rcc.c ****   uint32_t pllp, pllsource, pllm, pllfracen, hsivalue;
 1946              		.loc 1 1350 3 view .LVU611
1351:Drivers/STM32H7xx_HAL_Driver/Src/stm32h7xx_hal_rcc.c ****   float_t fracn1, pllvco;
 1947              		.loc 1 1351 3 view .LVU612
1352:Drivers/STM32H7xx_HAL_Driver/Src/stm32h7xx_hal_rcc.c ****   uint32_t sysclockfreq;
 1948              		.loc 1 1352 3 view .LVU613
1353:Drivers/STM32H7xx_HAL_Driver/Src/stm32h7xx_hal_rcc.c **** 
1354:Drivers/STM32H7xx_HAL_Driver/Src/stm32h7xx_hal_rcc.c ****   /* Get SYSCLK source -------------------------------------------------------*/
1355:Drivers/STM32H7xx_HAL_Driver/Src/stm32h7xx_hal_rcc.c **** 
1356:Drivers/STM32H7xx_HAL_Driver/Src/stm32h7xx_hal_rcc.c ****   switch (RCC->CFGR & RCC_CFGR_SWS)
 1949              		.loc 1 1356 3 view .LVU614
 1950              		.loc 1 1356 14 is_stmt 0 view .LVU615
 1951 0000 744B     		ldr	r3, .L193
 1952 0002 1B69     		ldr	r3, [r3, #16]
 1953              		.loc 1 1356 21 view .LVU616
 1954 0004 03F03803 		and	r3, r3, #56
 1955              		.loc 1 1356 3 view .LVU617
 1956 0008 102B     		cmp	r3, #16
 1957 000a 00F0DF80 		beq	.L185
 1958 000e 182B     		cmp	r3, #24
 1959 0010 10D0     		beq	.L179
 1960 0012 0BB1     		cbz	r3, .L191
 1961 0014 7048     		ldr	r0, .L193+4
 1962 0016 7047     		bx	lr
 1963              	.L191:
1357:Drivers/STM32H7xx_HAL_Driver/Src/stm32h7xx_hal_rcc.c ****   {
1358:Drivers/STM32H7xx_HAL_Driver/Src/stm32h7xx_hal_rcc.c ****   case RCC_CFGR_SWS_HSI:  /* HSI used as system clock source */
1359:Drivers/STM32H7xx_HAL_Driver/Src/stm32h7xx_hal_rcc.c **** 
ARM GAS  C:\Users\root\AppData\Local\Temp\ccvogEgx.s 			page 64


1360:Drivers/STM32H7xx_HAL_Driver/Src/stm32h7xx_hal_rcc.c ****    if (__HAL_RCC_GET_FLAG(RCC_FLAG_HSIDIV) != 0U)
 1964              		.loc 1 1360 4 is_stmt 1 view .LVU618
 1965              		.loc 1 1360 8 is_stmt 0 view .LVU619
 1966 0018 6E4B     		ldr	r3, .L193
 1967 001a 1B68     		ldr	r3, [r3]
 1968              		.loc 1 1360 7 view .LVU620
 1969 001c 13F0200F 		tst	r3, #32
 1970 0020 00F0D680 		beq	.L187
1361:Drivers/STM32H7xx_HAL_Driver/Src/stm32h7xx_hal_rcc.c ****       {
1362:Drivers/STM32H7xx_HAL_Driver/Src/stm32h7xx_hal_rcc.c ****         sysclockfreq = (uint32_t) (HSI_VALUE >> (__HAL_RCC_GET_HSI_DIVIDER()>> 3));
 1971              		.loc 1 1362 9 is_stmt 1 view .LVU621
 1972              		.loc 1 1362 50 is_stmt 0 view .LVU622
 1973 0024 6B4B     		ldr	r3, .L193
 1974 0026 1868     		ldr	r0, [r3]
 1975              		.loc 1 1362 77 view .LVU623
 1976 0028 C0F3C100 		ubfx	r0, r0, #3, #2
 1977              		.loc 1 1362 22 view .LVU624
 1978 002c 6B4B     		ldr	r3, .L193+8
 1979 002e 23FA00F0 		lsr	r0, r3, r0
 1980              	.LVL148:
 1981              		.loc 1 1362 22 view .LVU625
 1982 0032 7047     		bx	lr
 1983              	.LVL149:
 1984              	.L179:
1349:Drivers/STM32H7xx_HAL_Driver/Src/stm32h7xx_hal_rcc.c ****   uint32_t pllp, pllsource, pllm, pllfracen, hsivalue;
 1985              		.loc 1 1349 1 view .LVU626
 1986 0034 10B4     		push	{r4}
 1987              	.LCFI8:
 1988              		.cfi_def_cfa_offset 4
 1989              		.cfi_offset 4, -4
1363:Drivers/STM32H7xx_HAL_Driver/Src/stm32h7xx_hal_rcc.c ****       }
1364:Drivers/STM32H7xx_HAL_Driver/Src/stm32h7xx_hal_rcc.c ****       else
1365:Drivers/STM32H7xx_HAL_Driver/Src/stm32h7xx_hal_rcc.c ****       {
1366:Drivers/STM32H7xx_HAL_Driver/Src/stm32h7xx_hal_rcc.c ****         sysclockfreq = (uint32_t) HSI_VALUE;
1367:Drivers/STM32H7xx_HAL_Driver/Src/stm32h7xx_hal_rcc.c ****       }
1368:Drivers/STM32H7xx_HAL_Driver/Src/stm32h7xx_hal_rcc.c **** 
1369:Drivers/STM32H7xx_HAL_Driver/Src/stm32h7xx_hal_rcc.c ****     break;
1370:Drivers/STM32H7xx_HAL_Driver/Src/stm32h7xx_hal_rcc.c **** 
1371:Drivers/STM32H7xx_HAL_Driver/Src/stm32h7xx_hal_rcc.c ****   case RCC_CFGR_SWS_CSI:  /* CSI used as system clock  source */
1372:Drivers/STM32H7xx_HAL_Driver/Src/stm32h7xx_hal_rcc.c ****     sysclockfreq = CSI_VALUE;
1373:Drivers/STM32H7xx_HAL_Driver/Src/stm32h7xx_hal_rcc.c ****     break;
1374:Drivers/STM32H7xx_HAL_Driver/Src/stm32h7xx_hal_rcc.c **** 
1375:Drivers/STM32H7xx_HAL_Driver/Src/stm32h7xx_hal_rcc.c ****   case RCC_CFGR_SWS_HSE:  /* HSE used as system clock  source */
1376:Drivers/STM32H7xx_HAL_Driver/Src/stm32h7xx_hal_rcc.c ****     sysclockfreq = HSE_VALUE;
1377:Drivers/STM32H7xx_HAL_Driver/Src/stm32h7xx_hal_rcc.c ****     break;
1378:Drivers/STM32H7xx_HAL_Driver/Src/stm32h7xx_hal_rcc.c **** 
1379:Drivers/STM32H7xx_HAL_Driver/Src/stm32h7xx_hal_rcc.c ****   case RCC_CFGR_SWS_PLL1:  /* PLL1 used as system clock  source */
1380:Drivers/STM32H7xx_HAL_Driver/Src/stm32h7xx_hal_rcc.c **** 
1381:Drivers/STM32H7xx_HAL_Driver/Src/stm32h7xx_hal_rcc.c ****     /* PLL_VCO = (HSE_VALUE or HSI_VALUE or CSI_VALUE/ PLLM) * PLLN
1382:Drivers/STM32H7xx_HAL_Driver/Src/stm32h7xx_hal_rcc.c ****     SYSCLK = PLL_VCO / PLLR
1383:Drivers/STM32H7xx_HAL_Driver/Src/stm32h7xx_hal_rcc.c ****     */
1384:Drivers/STM32H7xx_HAL_Driver/Src/stm32h7xx_hal_rcc.c ****     pllsource = (RCC->PLLCKSELR & RCC_PLLCKSELR_PLLSRC);
 1990              		.loc 1 1384 5 is_stmt 1 view .LVU627
 1991              		.loc 1 1384 21 is_stmt 0 view .LVU628
 1992 0036 674A     		ldr	r2, .L193
 1993 0038 916A     		ldr	r1, [r2, #40]
 1994              		.loc 1 1384 15 view .LVU629
ARM GAS  C:\Users\root\AppData\Local\Temp\ccvogEgx.s 			page 65


 1995 003a 01F00301 		and	r1, r1, #3
 1996              	.LVL150:
1385:Drivers/STM32H7xx_HAL_Driver/Src/stm32h7xx_hal_rcc.c ****     pllm = ((RCC->PLLCKSELR & RCC_PLLCKSELR_DIVM1)>> 4)  ;
 1997              		.loc 1 1385 5 is_stmt 1 view .LVU630
 1998              		.loc 1 1385 17 is_stmt 0 view .LVU631
 1999 003e 946A     		ldr	r4, [r2, #40]
 2000              		.loc 1 1385 10 view .LVU632
 2001 0040 C4F30510 		ubfx	r0, r4, #4, #6
 2002              	.LVL151:
1386:Drivers/STM32H7xx_HAL_Driver/Src/stm32h7xx_hal_rcc.c ****     pllfracen = ((RCC-> PLLCFGR & RCC_PLLCFGR_PLL1FRACEN)>>RCC_PLLCFGR_PLL1FRACEN_Pos);
 2003              		.loc 1 1386 5 is_stmt 1 view .LVU633
 2004              		.loc 1 1386 22 is_stmt 0 view .LVU634
 2005 0044 D36A     		ldr	r3, [r2, #44]
 2006              		.loc 1 1386 15 view .LVU635
 2007 0046 03F00103 		and	r3, r3, #1
 2008              	.LVL152:
1387:Drivers/STM32H7xx_HAL_Driver/Src/stm32h7xx_hal_rcc.c ****     fracn1 = (float_t)(uint32_t)(pllfracen* ((RCC->PLL1FRACR & RCC_PLL1FRACR_FRACN1)>> 3));
 2009              		.loc 1 1387 5 is_stmt 1 view .LVU636
 2010              		.loc 1 1387 50 is_stmt 0 view .LVU637
 2011 004a 526B     		ldr	r2, [r2, #52]
 2012              		.loc 1 1387 85 view .LVU638
 2013 004c C2F3CC02 		ubfx	r2, r2, #3, #13
 2014              		.loc 1 1387 23 view .LVU639
 2015 0050 03FB02F3 		mul	r3, r3, r2
 2016              	.LVL153:
 2017              		.loc 1 1387 12 view .LVU640
 2018 0054 07EE903A 		vmov	s15, r3	@ int
 2019 0058 F8EE677A 		vcvt.f32.u32	s15, s15
 2020              	.LVL154:
1388:Drivers/STM32H7xx_HAL_Driver/Src/stm32h7xx_hal_rcc.c **** 
1389:Drivers/STM32H7xx_HAL_Driver/Src/stm32h7xx_hal_rcc.c ****     if (pllm != 0U)
 2021              		.loc 1 1389 5 is_stmt 1 view .LVU641
 2022              		.loc 1 1389 8 is_stmt 0 view .LVU642
 2023 005c 14F47C7F 		tst	r4, #1008
 2024 0060 00F09480 		beq	.L177
1390:Drivers/STM32H7xx_HAL_Driver/Src/stm32h7xx_hal_rcc.c ****     {
1391:Drivers/STM32H7xx_HAL_Driver/Src/stm32h7xx_hal_rcc.c ****       switch (pllsource)
 2025              		.loc 1 1391 7 is_stmt 1 view .LVU643
 2026 0064 0129     		cmp	r1, #1
 2027 0066 66D0     		beq	.L180
 2028 0068 0229     		cmp	r1, #2
 2029 006a 00F09280 		beq	.L181
 2030 006e E1B1     		cbz	r1, .L192
1392:Drivers/STM32H7xx_HAL_Driver/Src/stm32h7xx_hal_rcc.c ****       {
1393:Drivers/STM32H7xx_HAL_Driver/Src/stm32h7xx_hal_rcc.c ****       case RCC_PLLSOURCE_HSI:  /* HSI used as PLL clock source */
1394:Drivers/STM32H7xx_HAL_Driver/Src/stm32h7xx_hal_rcc.c **** 
1395:Drivers/STM32H7xx_HAL_Driver/Src/stm32h7xx_hal_rcc.c ****        if (__HAL_RCC_GET_FLAG(RCC_FLAG_HSIDIV) != 0U)
1396:Drivers/STM32H7xx_HAL_Driver/Src/stm32h7xx_hal_rcc.c ****         {
1397:Drivers/STM32H7xx_HAL_Driver/Src/stm32h7xx_hal_rcc.c ****           hsivalue= (HSI_VALUE >> (__HAL_RCC_GET_HSI_DIVIDER()>> 3));
1398:Drivers/STM32H7xx_HAL_Driver/Src/stm32h7xx_hal_rcc.c ****           pllvco = ( (float_t)hsivalue / (float_t)pllm) * ((float_t)(uint32_t)(RCC->PLL1DIVR & RCC_
1399:Drivers/STM32H7xx_HAL_Driver/Src/stm32h7xx_hal_rcc.c ****         }
1400:Drivers/STM32H7xx_HAL_Driver/Src/stm32h7xx_hal_rcc.c ****         else
1401:Drivers/STM32H7xx_HAL_Driver/Src/stm32h7xx_hal_rcc.c ****         {
1402:Drivers/STM32H7xx_HAL_Driver/Src/stm32h7xx_hal_rcc.c ****           pllvco = ((float_t)HSI_VALUE / (float_t)pllm) * ((float_t)(uint32_t)(RCC->PLL1DIVR & RCC_
1403:Drivers/STM32H7xx_HAL_Driver/Src/stm32h7xx_hal_rcc.c ****         }
1404:Drivers/STM32H7xx_HAL_Driver/Src/stm32h7xx_hal_rcc.c ****         break;
1405:Drivers/STM32H7xx_HAL_Driver/Src/stm32h7xx_hal_rcc.c **** 
ARM GAS  C:\Users\root\AppData\Local\Temp\ccvogEgx.s 			page 66


1406:Drivers/STM32H7xx_HAL_Driver/Src/stm32h7xx_hal_rcc.c ****       case RCC_PLLSOURCE_CSI:  /* CSI used as PLL clock source */
1407:Drivers/STM32H7xx_HAL_Driver/Src/stm32h7xx_hal_rcc.c ****         pllvco = ((float_t)CSI_VALUE / (float_t)pllm) * ((float_t)(uint32_t)(RCC->PLL1DIVR & RCC_PL
1408:Drivers/STM32H7xx_HAL_Driver/Src/stm32h7xx_hal_rcc.c ****         break;
1409:Drivers/STM32H7xx_HAL_Driver/Src/stm32h7xx_hal_rcc.c **** 
1410:Drivers/STM32H7xx_HAL_Driver/Src/stm32h7xx_hal_rcc.c ****       case RCC_PLLSOURCE_HSE:  /* HSE used as PLL clock source */
1411:Drivers/STM32H7xx_HAL_Driver/Src/stm32h7xx_hal_rcc.c ****         pllvco = ((float_t)HSE_VALUE / (float_t)pllm) * ((float_t)(uint32_t)(RCC->PLL1DIVR & RCC_PL
1412:Drivers/STM32H7xx_HAL_Driver/Src/stm32h7xx_hal_rcc.c ****         break;
1413:Drivers/STM32H7xx_HAL_Driver/Src/stm32h7xx_hal_rcc.c **** 
1414:Drivers/STM32H7xx_HAL_Driver/Src/stm32h7xx_hal_rcc.c ****       default:
1415:Drivers/STM32H7xx_HAL_Driver/Src/stm32h7xx_hal_rcc.c ****         pllvco = ((float_t)CSI_VALUE / (float_t)pllm) * ((float_t)(uint32_t)(RCC->PLL1DIVR & RCC_PL
 2031              		.loc 1 1415 9 view .LVU644
 2032              		.loc 1 1415 40 is_stmt 0 view .LVU645
 2033 0070 07EE100A 		vmov	s14, r0	@ int
 2034 0074 F8EE476A 		vcvt.f32.u32	s13, s14
 2035              		.loc 1 1415 38 view .LVU646
 2036 0078 9FED596A 		vldr.32	s12, .L193+12
 2037 007c 86EE267A 		vdiv.f32	s14, s12, s13
 2038              		.loc 1 1415 81 view .LVU647
 2039 0080 544B     		ldr	r3, .L193
 2040 0082 1B6B     		ldr	r3, [r3, #48]
 2041              		.loc 1 1415 67 view .LVU648
 2042 0084 C3F30803 		ubfx	r3, r3, #0, #9
 2043              		.loc 1 1415 58 view .LVU649
 2044 0088 06EE903A 		vmov	s13, r3	@ int
 2045 008c F8EE666A 		vcvt.f32.u32	s13, s13
 2046              		.loc 1 1415 120 view .LVU650
 2047 0090 9FED546A 		vldr.32	s12, .L193+16
 2048 0094 67EE867A 		vmul.f32	s15, s15, s12
 2049              	.LVL155:
 2050              		.loc 1 1415 111 view .LVU651
 2051 0098 76EEA77A 		vadd.f32	s15, s13, s15
 2052              		.loc 1 1415 138 view .LVU652
 2053 009c F7EE006A 		vmov.f32	s13, #1.0e+0
 2054 00a0 77EEA67A 		vadd.f32	s15, s15, s13
 2055              		.loc 1 1415 16 view .LVU653
 2056 00a4 27EE277A 		vmul.f32	s14, s14, s15
 2057              	.LVL156:
1416:Drivers/STM32H7xx_HAL_Driver/Src/stm32h7xx_hal_rcc.c ****         break;
 2058              		.loc 1 1416 9 is_stmt 1 view .LVU654
 2059 00a8 61E0     		b	.L184
 2060              	.LVL157:
 2061              	.L192:
1395:Drivers/STM32H7xx_HAL_Driver/Src/stm32h7xx_hal_rcc.c ****         {
 2062              		.loc 1 1395 8 view .LVU655
1395:Drivers/STM32H7xx_HAL_Driver/Src/stm32h7xx_hal_rcc.c ****         {
 2063              		.loc 1 1395 12 is_stmt 0 view .LVU656
 2064 00aa 4A4B     		ldr	r3, .L193
 2065 00ac 1B68     		ldr	r3, [r3]
1395:Drivers/STM32H7xx_HAL_Driver/Src/stm32h7xx_hal_rcc.c ****         {
 2066              		.loc 1 1395 11 view .LVU657
 2067 00ae 13F0200F 		tst	r3, #32
 2068 00b2 23D0     		beq	.L183
1397:Drivers/STM32H7xx_HAL_Driver/Src/stm32h7xx_hal_rcc.c ****           pllvco = ( (float_t)hsivalue / (float_t)pllm) * ((float_t)(uint32_t)(RCC->PLL1DIVR & RCC_
 2069              		.loc 1 1397 11 is_stmt 1 view .LVU658
1397:Drivers/STM32H7xx_HAL_Driver/Src/stm32h7xx_hal_rcc.c ****           pllvco = ( (float_t)hsivalue / (float_t)pllm) * ((float_t)(uint32_t)(RCC->PLL1DIVR & RCC_
 2070              		.loc 1 1397 36 is_stmt 0 view .LVU659
 2071 00b4 4749     		ldr	r1, .L193
ARM GAS  C:\Users\root\AppData\Local\Temp\ccvogEgx.s 			page 67


 2072              	.LVL158:
1397:Drivers/STM32H7xx_HAL_Driver/Src/stm32h7xx_hal_rcc.c ****           pllvco = ( (float_t)hsivalue / (float_t)pllm) * ((float_t)(uint32_t)(RCC->PLL1DIVR & RCC_
 2073              		.loc 1 1397 36 view .LVU660
 2074 00b6 0A68     		ldr	r2, [r1]
1397:Drivers/STM32H7xx_HAL_Driver/Src/stm32h7xx_hal_rcc.c ****           pllvco = ( (float_t)hsivalue / (float_t)pllm) * ((float_t)(uint32_t)(RCC->PLL1DIVR & RCC_
 2075              		.loc 1 1397 63 view .LVU661
 2076 00b8 C2F3C102 		ubfx	r2, r2, #3, #2
1397:Drivers/STM32H7xx_HAL_Driver/Src/stm32h7xx_hal_rcc.c ****           pllvco = ( (float_t)hsivalue / (float_t)pllm) * ((float_t)(uint32_t)(RCC->PLL1DIVR & RCC_
 2077              		.loc 1 1397 19 view .LVU662
 2078 00bc 474B     		ldr	r3, .L193+8
 2079 00be D340     		lsrs	r3, r3, r2
 2080              	.LVL159:
1398:Drivers/STM32H7xx_HAL_Driver/Src/stm32h7xx_hal_rcc.c ****         }
 2081              		.loc 1 1398 11 is_stmt 1 view .LVU663
1398:Drivers/STM32H7xx_HAL_Driver/Src/stm32h7xx_hal_rcc.c ****         }
 2082              		.loc 1 1398 22 is_stmt 0 view .LVU664
 2083 00c0 07EE103A 		vmov	s14, r3	@ int
 2084 00c4 F8EE476A 		vcvt.f32.u32	s13, s14
1398:Drivers/STM32H7xx_HAL_Driver/Src/stm32h7xx_hal_rcc.c ****         }
 2085              		.loc 1 1398 42 view .LVU665
 2086 00c8 07EE100A 		vmov	s14, r0	@ int
 2087 00cc B8EE476A 		vcvt.f32.u32	s12, s14
1398:Drivers/STM32H7xx_HAL_Driver/Src/stm32h7xx_hal_rcc.c ****         }
 2088              		.loc 1 1398 40 view .LVU666
 2089 00d0 86EE867A 		vdiv.f32	s14, s13, s12
1398:Drivers/STM32H7xx_HAL_Driver/Src/stm32h7xx_hal_rcc.c ****         }
 2090              		.loc 1 1398 83 view .LVU667
 2091 00d4 0B6B     		ldr	r3, [r1, #48]
 2092              	.LVL160:
1398:Drivers/STM32H7xx_HAL_Driver/Src/stm32h7xx_hal_rcc.c ****         }
 2093              		.loc 1 1398 69 view .LVU668
 2094 00d6 C3F30803 		ubfx	r3, r3, #0, #9
1398:Drivers/STM32H7xx_HAL_Driver/Src/stm32h7xx_hal_rcc.c ****         }
 2095              		.loc 1 1398 60 view .LVU669
 2096 00da 06EE903A 		vmov	s13, r3	@ int
 2097 00de F8EE666A 		vcvt.f32.u32	s13, s13
1398:Drivers/STM32H7xx_HAL_Driver/Src/stm32h7xx_hal_rcc.c ****         }
 2098              		.loc 1 1398 122 view .LVU670
 2099 00e2 9FED406A 		vldr.32	s12, .L193+16
 2100 00e6 67EE867A 		vmul.f32	s15, s15, s12
 2101              	.LVL161:
1398:Drivers/STM32H7xx_HAL_Driver/Src/stm32h7xx_hal_rcc.c ****         }
 2102              		.loc 1 1398 113 view .LVU671
 2103 00ea 76EEA77A 		vadd.f32	s15, s13, s15
1398:Drivers/STM32H7xx_HAL_Driver/Src/stm32h7xx_hal_rcc.c ****         }
 2104              		.loc 1 1398 140 view .LVU672
 2105 00ee F7EE006A 		vmov.f32	s13, #1.0e+0
 2106 00f2 77EEA67A 		vadd.f32	s15, s15, s13
1398:Drivers/STM32H7xx_HAL_Driver/Src/stm32h7xx_hal_rcc.c ****         }
 2107              		.loc 1 1398 18 view .LVU673
 2108 00f6 27EE277A 		vmul.f32	s14, s14, s15
 2109              	.LVL162:
1398:Drivers/STM32H7xx_HAL_Driver/Src/stm32h7xx_hal_rcc.c ****         }
 2110              		.loc 1 1398 18 view .LVU674
 2111 00fa 38E0     		b	.L184
 2112              	.LVL163:
 2113              	.L183:
ARM GAS  C:\Users\root\AppData\Local\Temp\ccvogEgx.s 			page 68


1402:Drivers/STM32H7xx_HAL_Driver/Src/stm32h7xx_hal_rcc.c ****         }
 2114              		.loc 1 1402 11 is_stmt 1 view .LVU675
1402:Drivers/STM32H7xx_HAL_Driver/Src/stm32h7xx_hal_rcc.c ****         }
 2115              		.loc 1 1402 42 is_stmt 0 view .LVU676
 2116 00fc 07EE100A 		vmov	s14, r0	@ int
 2117 0100 F8EE476A 		vcvt.f32.u32	s13, s14
1402:Drivers/STM32H7xx_HAL_Driver/Src/stm32h7xx_hal_rcc.c ****         }
 2118              		.loc 1 1402 40 view .LVU677
 2119 0104 9FED386A 		vldr.32	s12, .L193+20
 2120 0108 86EE267A 		vdiv.f32	s14, s12, s13
1402:Drivers/STM32H7xx_HAL_Driver/Src/stm32h7xx_hal_rcc.c ****         }
 2121              		.loc 1 1402 83 view .LVU678
 2122 010c 314B     		ldr	r3, .L193
 2123 010e 1B6B     		ldr	r3, [r3, #48]
1402:Drivers/STM32H7xx_HAL_Driver/Src/stm32h7xx_hal_rcc.c ****         }
 2124              		.loc 1 1402 69 view .LVU679
 2125 0110 C3F30803 		ubfx	r3, r3, #0, #9
1402:Drivers/STM32H7xx_HAL_Driver/Src/stm32h7xx_hal_rcc.c ****         }
 2126              		.loc 1 1402 60 view .LVU680
 2127 0114 06EE903A 		vmov	s13, r3	@ int
 2128 0118 F8EE666A 		vcvt.f32.u32	s13, s13
1402:Drivers/STM32H7xx_HAL_Driver/Src/stm32h7xx_hal_rcc.c ****         }
 2129              		.loc 1 1402 122 view .LVU681
 2130 011c 9FED316A 		vldr.32	s12, .L193+16
 2131 0120 67EE867A 		vmul.f32	s15, s15, s12
 2132              	.LVL164:
1402:Drivers/STM32H7xx_HAL_Driver/Src/stm32h7xx_hal_rcc.c ****         }
 2133              		.loc 1 1402 113 view .LVU682
 2134 0124 76EEA77A 		vadd.f32	s15, s13, s15
1402:Drivers/STM32H7xx_HAL_Driver/Src/stm32h7xx_hal_rcc.c ****         }
 2135              		.loc 1 1402 140 view .LVU683
 2136 0128 F7EE006A 		vmov.f32	s13, #1.0e+0
 2137 012c 77EEA67A 		vadd.f32	s15, s15, s13
1402:Drivers/STM32H7xx_HAL_Driver/Src/stm32h7xx_hal_rcc.c ****         }
 2138              		.loc 1 1402 18 view .LVU684
 2139 0130 27EE277A 		vmul.f32	s14, s14, s15
 2140              	.LVL165:
1402:Drivers/STM32H7xx_HAL_Driver/Src/stm32h7xx_hal_rcc.c ****         }
 2141              		.loc 1 1402 18 view .LVU685
 2142 0134 1BE0     		b	.L184
 2143              	.LVL166:
 2144              	.L180:
1407:Drivers/STM32H7xx_HAL_Driver/Src/stm32h7xx_hal_rcc.c ****         break;
 2145              		.loc 1 1407 9 is_stmt 1 view .LVU686
1407:Drivers/STM32H7xx_HAL_Driver/Src/stm32h7xx_hal_rcc.c ****         break;
 2146              		.loc 1 1407 40 is_stmt 0 view .LVU687
 2147 0136 07EE100A 		vmov	s14, r0	@ int
 2148 013a F8EE476A 		vcvt.f32.u32	s13, s14
1407:Drivers/STM32H7xx_HAL_Driver/Src/stm32h7xx_hal_rcc.c ****         break;
 2149              		.loc 1 1407 38 view .LVU688
 2150 013e 9FED286A 		vldr.32	s12, .L193+12
 2151 0142 86EE267A 		vdiv.f32	s14, s12, s13
1407:Drivers/STM32H7xx_HAL_Driver/Src/stm32h7xx_hal_rcc.c ****         break;
 2152              		.loc 1 1407 81 view .LVU689
 2153 0146 234B     		ldr	r3, .L193
 2154 0148 1B6B     		ldr	r3, [r3, #48]
1407:Drivers/STM32H7xx_HAL_Driver/Src/stm32h7xx_hal_rcc.c ****         break;
ARM GAS  C:\Users\root\AppData\Local\Temp\ccvogEgx.s 			page 69


 2155              		.loc 1 1407 67 view .LVU690
 2156 014a C3F30803 		ubfx	r3, r3, #0, #9
1407:Drivers/STM32H7xx_HAL_Driver/Src/stm32h7xx_hal_rcc.c ****         break;
 2157              		.loc 1 1407 58 view .LVU691
 2158 014e 06EE903A 		vmov	s13, r3	@ int
 2159 0152 F8EE666A 		vcvt.f32.u32	s13, s13
1407:Drivers/STM32H7xx_HAL_Driver/Src/stm32h7xx_hal_rcc.c ****         break;
 2160              		.loc 1 1407 120 view .LVU692
 2161 0156 9FED236A 		vldr.32	s12, .L193+16
 2162 015a 67EE867A 		vmul.f32	s15, s15, s12
 2163              	.LVL167:
1407:Drivers/STM32H7xx_HAL_Driver/Src/stm32h7xx_hal_rcc.c ****         break;
 2164              		.loc 1 1407 111 view .LVU693
 2165 015e 76EEA77A 		vadd.f32	s15, s13, s15
1407:Drivers/STM32H7xx_HAL_Driver/Src/stm32h7xx_hal_rcc.c ****         break;
 2166              		.loc 1 1407 138 view .LVU694
 2167 0162 F7EE006A 		vmov.f32	s13, #1.0e+0
 2168 0166 77EEA67A 		vadd.f32	s15, s15, s13
1407:Drivers/STM32H7xx_HAL_Driver/Src/stm32h7xx_hal_rcc.c ****         break;
 2169              		.loc 1 1407 16 view .LVU695
 2170 016a 27EE277A 		vmul.f32	s14, s14, s15
 2171              	.LVL168:
1408:Drivers/STM32H7xx_HAL_Driver/Src/stm32h7xx_hal_rcc.c **** 
 2172              		.loc 1 1408 9 is_stmt 1 view .LVU696
 2173              	.L184:
1417:Drivers/STM32H7xx_HAL_Driver/Src/stm32h7xx_hal_rcc.c ****       }
1418:Drivers/STM32H7xx_HAL_Driver/Src/stm32h7xx_hal_rcc.c ****       pllp = (((RCC->PLL1DIVR & RCC_PLL1DIVR_P1) >>9) + 1U ) ;
 2174              		.loc 1 1418 7 view .LVU697
 2175              		.loc 1 1418 20 is_stmt 0 view .LVU698
 2176 016e 194B     		ldr	r3, .L193
 2177 0170 1B6B     		ldr	r3, [r3, #48]
 2178              		.loc 1 1418 50 view .LVU699
 2179 0172 C3F34623 		ubfx	r3, r3, #9, #7
 2180              		.loc 1 1418 12 view .LVU700
 2181 0176 0133     		adds	r3, r3, #1
 2182              	.LVL169:
1419:Drivers/STM32H7xx_HAL_Driver/Src/stm32h7xx_hal_rcc.c ****       sysclockfreq =  (uint32_t)(float_t)(pllvco/(float_t)pllp);
 2183              		.loc 1 1419 7 is_stmt 1 view .LVU701
 2184              		.loc 1 1419 50 is_stmt 0 view .LVU702
 2185 0178 07EE903A 		vmov	s15, r3	@ int
 2186 017c F8EE677A 		vcvt.f32.u32	s15, s15
 2187              		.loc 1 1419 33 view .LVU703
 2188 0180 C7EE276A 		vdiv.f32	s13, s14, s15
 2189              		.loc 1 1419 20 view .LVU704
 2190 0184 FCEEE67A 		vcvt.u32.f32	s15, s13
 2191 0188 17EE900A 		vmov	r0, s15	@ int
 2192              	.LVL170:
 2193              	.L177:
1420:Drivers/STM32H7xx_HAL_Driver/Src/stm32h7xx_hal_rcc.c ****     }
1421:Drivers/STM32H7xx_HAL_Driver/Src/stm32h7xx_hal_rcc.c ****     else
1422:Drivers/STM32H7xx_HAL_Driver/Src/stm32h7xx_hal_rcc.c ****     {
1423:Drivers/STM32H7xx_HAL_Driver/Src/stm32h7xx_hal_rcc.c ****       sysclockfreq = 0U;
1424:Drivers/STM32H7xx_HAL_Driver/Src/stm32h7xx_hal_rcc.c ****     }
1425:Drivers/STM32H7xx_HAL_Driver/Src/stm32h7xx_hal_rcc.c ****     break;
1426:Drivers/STM32H7xx_HAL_Driver/Src/stm32h7xx_hal_rcc.c **** 
1427:Drivers/STM32H7xx_HAL_Driver/Src/stm32h7xx_hal_rcc.c ****   default:
1428:Drivers/STM32H7xx_HAL_Driver/Src/stm32h7xx_hal_rcc.c ****     sysclockfreq = CSI_VALUE;
ARM GAS  C:\Users\root\AppData\Local\Temp\ccvogEgx.s 			page 70


1429:Drivers/STM32H7xx_HAL_Driver/Src/stm32h7xx_hal_rcc.c ****     break;
1430:Drivers/STM32H7xx_HAL_Driver/Src/stm32h7xx_hal_rcc.c ****   }
1431:Drivers/STM32H7xx_HAL_Driver/Src/stm32h7xx_hal_rcc.c **** 
1432:Drivers/STM32H7xx_HAL_Driver/Src/stm32h7xx_hal_rcc.c ****   return sysclockfreq;
1433:Drivers/STM32H7xx_HAL_Driver/Src/stm32h7xx_hal_rcc.c **** }
 2194              		.loc 1 1433 1 view .LVU705
 2195 018c 5DF8044B 		ldr	r4, [sp], #4
 2196              	.LCFI9:
 2197              		.cfi_remember_state
 2198              		.cfi_restore 4
 2199              		.cfi_def_cfa_offset 0
 2200              	.LVL171:
 2201              		.loc 1 1433 1 view .LVU706
 2202 0190 7047     		bx	lr
 2203              	.LVL172:
 2204              	.L181:
 2205              	.LCFI10:
 2206              		.cfi_restore_state
1411:Drivers/STM32H7xx_HAL_Driver/Src/stm32h7xx_hal_rcc.c ****         break;
 2207              		.loc 1 1411 9 is_stmt 1 view .LVU707
1411:Drivers/STM32H7xx_HAL_Driver/Src/stm32h7xx_hal_rcc.c ****         break;
 2208              		.loc 1 1411 40 is_stmt 0 view .LVU708
 2209 0192 07EE100A 		vmov	s14, r0	@ int
 2210 0196 F8EE476A 		vcvt.f32.u32	s13, s14
1411:Drivers/STM32H7xx_HAL_Driver/Src/stm32h7xx_hal_rcc.c ****         break;
 2211              		.loc 1 1411 38 view .LVU709
 2212 019a 9FED146A 		vldr.32	s12, .L193+24
 2213 019e 86EE267A 		vdiv.f32	s14, s12, s13
1411:Drivers/STM32H7xx_HAL_Driver/Src/stm32h7xx_hal_rcc.c ****         break;
 2214              		.loc 1 1411 81 view .LVU710
 2215 01a2 0C4B     		ldr	r3, .L193
 2216 01a4 1B6B     		ldr	r3, [r3, #48]
1411:Drivers/STM32H7xx_HAL_Driver/Src/stm32h7xx_hal_rcc.c ****         break;
 2217              		.loc 1 1411 67 view .LVU711
 2218 01a6 C3F30803 		ubfx	r3, r3, #0, #9
1411:Drivers/STM32H7xx_HAL_Driver/Src/stm32h7xx_hal_rcc.c ****         break;
 2219              		.loc 1 1411 58 view .LVU712
 2220 01aa 06EE903A 		vmov	s13, r3	@ int
 2221 01ae F8EE666A 		vcvt.f32.u32	s13, s13
1411:Drivers/STM32H7xx_HAL_Driver/Src/stm32h7xx_hal_rcc.c ****         break;
 2222              		.loc 1 1411 120 view .LVU713
 2223 01b2 9FED0C6A 		vldr.32	s12, .L193+16
 2224 01b6 67EE867A 		vmul.f32	s15, s15, s12
 2225              	.LVL173:
1411:Drivers/STM32H7xx_HAL_Driver/Src/stm32h7xx_hal_rcc.c ****         break;
 2226              		.loc 1 1411 111 view .LVU714
 2227 01ba 76EEA77A 		vadd.f32	s15, s13, s15
1411:Drivers/STM32H7xx_HAL_Driver/Src/stm32h7xx_hal_rcc.c ****         break;
 2228              		.loc 1 1411 138 view .LVU715
 2229 01be F7EE006A 		vmov.f32	s13, #1.0e+0
 2230 01c2 77EEA67A 		vadd.f32	s15, s15, s13
1411:Drivers/STM32H7xx_HAL_Driver/Src/stm32h7xx_hal_rcc.c ****         break;
 2231              		.loc 1 1411 16 view .LVU716
 2232 01c6 27EE277A 		vmul.f32	s14, s14, s15
 2233              	.LVL174:
1412:Drivers/STM32H7xx_HAL_Driver/Src/stm32h7xx_hal_rcc.c **** 
 2234              		.loc 1 1412 9 is_stmt 1 view .LVU717
ARM GAS  C:\Users\root\AppData\Local\Temp\ccvogEgx.s 			page 71


 2235 01ca D0E7     		b	.L184
 2236              	.LVL175:
 2237              	.L185:
 2238              	.LCFI11:
 2239              		.cfi_def_cfa_offset 0
 2240              		.cfi_restore 4
1376:Drivers/STM32H7xx_HAL_Driver/Src/stm32h7xx_hal_rcc.c ****     break;
 2241              		.loc 1 1376 18 is_stmt 0 view .LVU718
 2242 01cc 0848     		ldr	r0, .L193+28
 2243 01ce 7047     		bx	lr
 2244              	.L187:
1366:Drivers/STM32H7xx_HAL_Driver/Src/stm32h7xx_hal_rcc.c ****       }
 2245              		.loc 1 1366 22 view .LVU719
 2246 01d0 0248     		ldr	r0, .L193+8
 2247              	.LVL176:
1432:Drivers/STM32H7xx_HAL_Driver/Src/stm32h7xx_hal_rcc.c **** }
 2248              		.loc 1 1432 3 is_stmt 1 view .LVU720
 2249              		.loc 1 1433 1 is_stmt 0 view .LVU721
 2250 01d2 7047     		bx	lr
 2251              	.L194:
 2252              		.align	2
 2253              	.L193:
 2254 01d4 00440258 		.word	1476543488
 2255 01d8 00093D00 		.word	4000000
 2256 01dc 0090D003 		.word	64000000
 2257 01e0 0024744A 		.word	1249125376
 2258 01e4 00000039 		.word	956301312
 2259 01e8 0024744C 		.word	1282679808
 2260 01ec 20BCBE4B 		.word	1270791200
 2261 01f0 40787D01 		.word	25000000
 2262              		.cfi_endproc
 2263              	.LFE147:
 2265              		.section	.text.HAL_RCC_ClockConfig,"ax",%progbits
 2266              		.align	1
 2267              		.global	HAL_RCC_ClockConfig
 2268              		.syntax unified
 2269              		.thumb
 2270              		.thumb_func
 2271              		.fpu fpv5-d16
 2273              	HAL_RCC_ClockConfig:
 2274              	.LVL177:
 2275              	.LFB143:
 883:Drivers/STM32H7xx_HAL_Driver/Src/stm32h7xx_hal_rcc.c ****   HAL_StatusTypeDef halstatus;
 2276              		.loc 1 883 1 is_stmt 1 view -0
 2277              		.cfi_startproc
 2278              		@ args = 0, pretend = 0, frame = 0
 2279              		@ frame_needed = 0, uses_anonymous_args = 0
 884:Drivers/STM32H7xx_HAL_Driver/Src/stm32h7xx_hal_rcc.c ****   uint32_t tickstart;
 2280              		.loc 1 884 3 view .LVU723
 885:Drivers/STM32H7xx_HAL_Driver/Src/stm32h7xx_hal_rcc.c ****   uint32_t common_system_clock;
 2281              		.loc 1 885 3 view .LVU724
 886:Drivers/STM32H7xx_HAL_Driver/Src/stm32h7xx_hal_rcc.c **** 
 2282              		.loc 1 886 3 view .LVU725
 889:Drivers/STM32H7xx_HAL_Driver/Src/stm32h7xx_hal_rcc.c ****   {
 2283              		.loc 1 889 3 view .LVU726
 889:Drivers/STM32H7xx_HAL_Driver/Src/stm32h7xx_hal_rcc.c ****   {
 2284              		.loc 1 889 5 is_stmt 0 view .LVU727
ARM GAS  C:\Users\root\AppData\Local\Temp\ccvogEgx.s 			page 72


 2285 0000 0028     		cmp	r0, #0
 2286 0002 00F03281 		beq	.L216
 883:Drivers/STM32H7xx_HAL_Driver/Src/stm32h7xx_hal_rcc.c ****   HAL_StatusTypeDef halstatus;
 2287              		.loc 1 883 1 view .LVU728
 2288 0006 70B5     		push	{r4, r5, r6, lr}
 2289              	.LCFI12:
 2290              		.cfi_def_cfa_offset 16
 2291              		.cfi_offset 4, -16
 2292              		.cfi_offset 5, -12
 2293              		.cfi_offset 6, -8
 2294              		.cfi_offset 14, -4
 2295 0008 0D46     		mov	r5, r1
 2296 000a 0446     		mov	r4, r0
 895:Drivers/STM32H7xx_HAL_Driver/Src/stm32h7xx_hal_rcc.c ****   assert_param(IS_FLASH_LATENCY(FLatency));
 2297              		.loc 1 895 3 is_stmt 1 view .LVU729
 896:Drivers/STM32H7xx_HAL_Driver/Src/stm32h7xx_hal_rcc.c **** 
 2298              		.loc 1 896 3 view .LVU730
 903:Drivers/STM32H7xx_HAL_Driver/Src/stm32h7xx_hal_rcc.c ****   {
 2299              		.loc 1 903 3 view .LVU731
 903:Drivers/STM32H7xx_HAL_Driver/Src/stm32h7xx_hal_rcc.c ****   {
 2300              		.loc 1 903 17 is_stmt 0 view .LVU732
 2301 000c 9B4B     		ldr	r3, .L232
 2302 000e 1B68     		ldr	r3, [r3]
 2303 0010 03F00F03 		and	r3, r3, #15
 903:Drivers/STM32H7xx_HAL_Driver/Src/stm32h7xx_hal_rcc.c ****   {
 2304              		.loc 1 903 5 view .LVU733
 2305 0014 8B42     		cmp	r3, r1
 2306 0016 0BD2     		bcs	.L197
 906:Drivers/STM32H7xx_HAL_Driver/Src/stm32h7xx_hal_rcc.c **** 
 2307              		.loc 1 906 5 is_stmt 1 view .LVU734
 2308 0018 984A     		ldr	r2, .L232
 2309 001a 1368     		ldr	r3, [r2]
 2310 001c 23F00F03 		bic	r3, r3, #15
 2311 0020 0B43     		orrs	r3, r3, r1
 2312 0022 1360     		str	r3, [r2]
 910:Drivers/STM32H7xx_HAL_Driver/Src/stm32h7xx_hal_rcc.c ****     {
 2313              		.loc 1 910 5 view .LVU735
 910:Drivers/STM32H7xx_HAL_Driver/Src/stm32h7xx_hal_rcc.c ****     {
 2314              		.loc 1 910 8 is_stmt 0 view .LVU736
 2315 0024 1368     		ldr	r3, [r2]
 2316 0026 03F00F03 		and	r3, r3, #15
 910:Drivers/STM32H7xx_HAL_Driver/Src/stm32h7xx_hal_rcc.c ****     {
 2317              		.loc 1 910 7 view .LVU737
 2318 002a 8B42     		cmp	r3, r1
 2319 002c 40F01F81 		bne	.L217
 2320              	.L197:
 919:Drivers/STM32H7xx_HAL_Driver/Src/stm32h7xx_hal_rcc.c ****   {
 2321              		.loc 1 919 3 is_stmt 1 view .LVU738
 919:Drivers/STM32H7xx_HAL_Driver/Src/stm32h7xx_hal_rcc.c ****   {
 2322              		.loc 1 919 25 is_stmt 0 view .LVU739
 2323 0030 2368     		ldr	r3, [r4]
 919:Drivers/STM32H7xx_HAL_Driver/Src/stm32h7xx_hal_rcc.c ****   {
 2324              		.loc 1 919 5 view .LVU740
 2325 0032 13F0040F 		tst	r3, #4
 2326 0036 0CD0     		beq	.L198
 922:Drivers/STM32H7xx_HAL_Driver/Src/stm32h7xx_hal_rcc.c ****     {
 2327              		.loc 1 922 5 is_stmt 1 view .LVU741
ARM GAS  C:\Users\root\AppData\Local\Temp\ccvogEgx.s 			page 73


 922:Drivers/STM32H7xx_HAL_Driver/Src/stm32h7xx_hal_rcc.c ****     {
 2328              		.loc 1 922 26 is_stmt 0 view .LVU742
 2329 0038 2269     		ldr	r2, [r4, #16]
 922:Drivers/STM32H7xx_HAL_Driver/Src/stm32h7xx_hal_rcc.c ****     {
 2330              		.loc 1 922 50 view .LVU743
 2331 003a 914B     		ldr	r3, .L232+4
 2332 003c 9B69     		ldr	r3, [r3, #24]
 922:Drivers/STM32H7xx_HAL_Driver/Src/stm32h7xx_hal_rcc.c ****     {
 2333              		.loc 1 922 59 view .LVU744
 2334 003e 03F07003 		and	r3, r3, #112
 922:Drivers/STM32H7xx_HAL_Driver/Src/stm32h7xx_hal_rcc.c ****     {
 2335              		.loc 1 922 7 view .LVU745
 2336 0042 9A42     		cmp	r2, r3
 2337 0044 05D9     		bls	.L198
 924:Drivers/STM32H7xx_HAL_Driver/Src/stm32h7xx_hal_rcc.c ****       MODIFY_REG(RCC->D1CFGR, RCC_D1CFGR_D1PPRE, RCC_ClkInitStruct->APB3CLKDivider);
 2338              		.loc 1 924 7 is_stmt 1 view .LVU746
 925:Drivers/STM32H7xx_HAL_Driver/Src/stm32h7xx_hal_rcc.c ****     }
 2339              		.loc 1 925 7 view .LVU747
 2340 0046 8E49     		ldr	r1, .L232+4
 2341              	.LVL178:
 925:Drivers/STM32H7xx_HAL_Driver/Src/stm32h7xx_hal_rcc.c ****     }
 2342              		.loc 1 925 7 is_stmt 0 view .LVU748
 2343 0048 8B69     		ldr	r3, [r1, #24]
 2344 004a 23F07003 		bic	r3, r3, #112
 2345 004e 1A43     		orrs	r2, r2, r3
 2346 0050 8A61     		str	r2, [r1, #24]
 2347              	.L198:
 937:Drivers/STM32H7xx_HAL_Driver/Src/stm32h7xx_hal_rcc.c ****   {
 2348              		.loc 1 937 3 is_stmt 1 view .LVU749
 937:Drivers/STM32H7xx_HAL_Driver/Src/stm32h7xx_hal_rcc.c ****   {
 2349              		.loc 1 937 25 is_stmt 0 view .LVU750
 2350 0052 2368     		ldr	r3, [r4]
 937:Drivers/STM32H7xx_HAL_Driver/Src/stm32h7xx_hal_rcc.c ****   {
 2351              		.loc 1 937 5 view .LVU751
 2352 0054 13F0080F 		tst	r3, #8
 2353 0058 0CD0     		beq	.L199
 940:Drivers/STM32H7xx_HAL_Driver/Src/stm32h7xx_hal_rcc.c ****     {
 2354              		.loc 1 940 5 is_stmt 1 view .LVU752
 940:Drivers/STM32H7xx_HAL_Driver/Src/stm32h7xx_hal_rcc.c ****     {
 2355              		.loc 1 940 26 is_stmt 0 view .LVU753
 2356 005a 6269     		ldr	r2, [r4, #20]
 940:Drivers/STM32H7xx_HAL_Driver/Src/stm32h7xx_hal_rcc.c ****     {
 2357              		.loc 1 940 50 view .LVU754
 2358 005c 884B     		ldr	r3, .L232+4
 2359 005e DB69     		ldr	r3, [r3, #28]
 940:Drivers/STM32H7xx_HAL_Driver/Src/stm32h7xx_hal_rcc.c ****     {
 2360              		.loc 1 940 59 view .LVU755
 2361 0060 03F07003 		and	r3, r3, #112
 940:Drivers/STM32H7xx_HAL_Driver/Src/stm32h7xx_hal_rcc.c ****     {
 2362              		.loc 1 940 7 view .LVU756
 2363 0064 9A42     		cmp	r2, r3
 2364 0066 05D9     		bls	.L199
 942:Drivers/STM32H7xx_HAL_Driver/Src/stm32h7xx_hal_rcc.c ****       MODIFY_REG(RCC->D2CFGR, RCC_D2CFGR_D2PPRE1, (RCC_ClkInitStruct->APB1CLKDivider));
 2365              		.loc 1 942 7 is_stmt 1 view .LVU757
 943:Drivers/STM32H7xx_HAL_Driver/Src/stm32h7xx_hal_rcc.c ****     }
 2366              		.loc 1 943 7 view .LVU758
 2367 0068 8549     		ldr	r1, .L232+4
ARM GAS  C:\Users\root\AppData\Local\Temp\ccvogEgx.s 			page 74


 2368 006a CB69     		ldr	r3, [r1, #28]
 2369 006c 23F07003 		bic	r3, r3, #112
 2370 0070 1A43     		orrs	r2, r2, r3
 2371 0072 CA61     		str	r2, [r1, #28]
 2372              	.L199:
 954:Drivers/STM32H7xx_HAL_Driver/Src/stm32h7xx_hal_rcc.c ****   {
 2373              		.loc 1 954 3 view .LVU759
 954:Drivers/STM32H7xx_HAL_Driver/Src/stm32h7xx_hal_rcc.c ****   {
 2374              		.loc 1 954 25 is_stmt 0 view .LVU760
 2375 0074 2368     		ldr	r3, [r4]
 954:Drivers/STM32H7xx_HAL_Driver/Src/stm32h7xx_hal_rcc.c ****   {
 2376              		.loc 1 954 5 view .LVU761
 2377 0076 13F0100F 		tst	r3, #16
 2378 007a 0CD0     		beq	.L200
 957:Drivers/STM32H7xx_HAL_Driver/Src/stm32h7xx_hal_rcc.c ****     {
 2379              		.loc 1 957 5 is_stmt 1 view .LVU762
 957:Drivers/STM32H7xx_HAL_Driver/Src/stm32h7xx_hal_rcc.c ****     {
 2380              		.loc 1 957 26 is_stmt 0 view .LVU763
 2381 007c A269     		ldr	r2, [r4, #24]
 957:Drivers/STM32H7xx_HAL_Driver/Src/stm32h7xx_hal_rcc.c ****     {
 2382              		.loc 1 957 50 view .LVU764
 2383 007e 804B     		ldr	r3, .L232+4
 2384 0080 DB69     		ldr	r3, [r3, #28]
 957:Drivers/STM32H7xx_HAL_Driver/Src/stm32h7xx_hal_rcc.c ****     {
 2385              		.loc 1 957 59 view .LVU765
 2386 0082 03F4E063 		and	r3, r3, #1792
 957:Drivers/STM32H7xx_HAL_Driver/Src/stm32h7xx_hal_rcc.c ****     {
 2387              		.loc 1 957 7 view .LVU766
 2388 0086 9A42     		cmp	r2, r3
 2389 0088 05D9     		bls	.L200
 959:Drivers/STM32H7xx_HAL_Driver/Src/stm32h7xx_hal_rcc.c ****       MODIFY_REG(RCC->D2CFGR, RCC_D2CFGR_D2PPRE2, (RCC_ClkInitStruct->APB2CLKDivider));
 2390              		.loc 1 959 7 is_stmt 1 view .LVU767
 960:Drivers/STM32H7xx_HAL_Driver/Src/stm32h7xx_hal_rcc.c ****     }
 2391              		.loc 1 960 7 view .LVU768
 2392 008a 7D49     		ldr	r1, .L232+4
 2393 008c CB69     		ldr	r3, [r1, #28]
 2394 008e 23F4E063 		bic	r3, r3, #1792
 2395 0092 1A43     		orrs	r2, r2, r3
 2396 0094 CA61     		str	r2, [r1, #28]
 2397              	.L200:
 972:Drivers/STM32H7xx_HAL_Driver/Src/stm32h7xx_hal_rcc.c ****   {
 2398              		.loc 1 972 3 view .LVU769
 972:Drivers/STM32H7xx_HAL_Driver/Src/stm32h7xx_hal_rcc.c ****   {
 2399              		.loc 1 972 25 is_stmt 0 view .LVU770
 2400 0096 2368     		ldr	r3, [r4]
 972:Drivers/STM32H7xx_HAL_Driver/Src/stm32h7xx_hal_rcc.c ****   {
 2401              		.loc 1 972 5 view .LVU771
 2402 0098 13F0200F 		tst	r3, #32
 2403 009c 0CD0     		beq	.L201
 975:Drivers/STM32H7xx_HAL_Driver/Src/stm32h7xx_hal_rcc.c ****     {
 2404              		.loc 1 975 5 is_stmt 1 view .LVU772
 975:Drivers/STM32H7xx_HAL_Driver/Src/stm32h7xx_hal_rcc.c ****     {
 2405              		.loc 1 975 26 is_stmt 0 view .LVU773
 2406 009e E269     		ldr	r2, [r4, #28]
 975:Drivers/STM32H7xx_HAL_Driver/Src/stm32h7xx_hal_rcc.c ****     {
 2407              		.loc 1 975 50 view .LVU774
 2408 00a0 774B     		ldr	r3, .L232+4
ARM GAS  C:\Users\root\AppData\Local\Temp\ccvogEgx.s 			page 75


 2409 00a2 1B6A     		ldr	r3, [r3, #32]
 975:Drivers/STM32H7xx_HAL_Driver/Src/stm32h7xx_hal_rcc.c ****     {
 2410              		.loc 1 975 59 view .LVU775
 2411 00a4 03F07003 		and	r3, r3, #112
 975:Drivers/STM32H7xx_HAL_Driver/Src/stm32h7xx_hal_rcc.c ****     {
 2412              		.loc 1 975 7 view .LVU776
 2413 00a8 9A42     		cmp	r2, r3
 2414 00aa 05D9     		bls	.L201
 977:Drivers/STM32H7xx_HAL_Driver/Src/stm32h7xx_hal_rcc.c ****       MODIFY_REG(RCC->D3CFGR, RCC_D3CFGR_D3PPRE, (RCC_ClkInitStruct->APB4CLKDivider) );
 2415              		.loc 1 977 7 is_stmt 1 view .LVU777
 978:Drivers/STM32H7xx_HAL_Driver/Src/stm32h7xx_hal_rcc.c ****     }
 2416              		.loc 1 978 7 view .LVU778
 2417 00ac 7449     		ldr	r1, .L232+4
 2418 00ae 0B6A     		ldr	r3, [r1, #32]
 2419 00b0 23F07003 		bic	r3, r3, #112
 2420 00b4 1A43     		orrs	r2, r2, r3
 2421 00b6 0A62     		str	r2, [r1, #32]
 2422              	.L201:
 990:Drivers/STM32H7xx_HAL_Driver/Src/stm32h7xx_hal_rcc.c ****   {
 2423              		.loc 1 990 3 view .LVU779
 990:Drivers/STM32H7xx_HAL_Driver/Src/stm32h7xx_hal_rcc.c ****   {
 2424              		.loc 1 990 25 is_stmt 0 view .LVU780
 2425 00b8 2368     		ldr	r3, [r4]
 990:Drivers/STM32H7xx_HAL_Driver/Src/stm32h7xx_hal_rcc.c ****   {
 2426              		.loc 1 990 5 view .LVU781
 2427 00ba 13F0020F 		tst	r3, #2
 2428 00be 0CD0     		beq	.L202
 993:Drivers/STM32H7xx_HAL_Driver/Src/stm32h7xx_hal_rcc.c ****     {
 2429              		.loc 1 993 5 is_stmt 1 view .LVU782
 993:Drivers/STM32H7xx_HAL_Driver/Src/stm32h7xx_hal_rcc.c ****     {
 2430              		.loc 1 993 26 is_stmt 0 view .LVU783
 2431 00c0 E268     		ldr	r2, [r4, #12]
 993:Drivers/STM32H7xx_HAL_Driver/Src/stm32h7xx_hal_rcc.c ****     {
 2432              		.loc 1 993 49 view .LVU784
 2433 00c2 6F4B     		ldr	r3, .L232+4
 2434 00c4 9B69     		ldr	r3, [r3, #24]
 993:Drivers/STM32H7xx_HAL_Driver/Src/stm32h7xx_hal_rcc.c ****     {
 2435              		.loc 1 993 58 view .LVU785
 2436 00c6 03F00F03 		and	r3, r3, #15
 993:Drivers/STM32H7xx_HAL_Driver/Src/stm32h7xx_hal_rcc.c ****     {
 2437              		.loc 1 993 7 view .LVU786
 2438 00ca 9A42     		cmp	r2, r3
 2439 00cc 05D9     		bls	.L202
 996:Drivers/STM32H7xx_HAL_Driver/Src/stm32h7xx_hal_rcc.c ****       MODIFY_REG(RCC->D1CFGR, RCC_D1CFGR_HPRE, RCC_ClkInitStruct->AHBCLKDivider);
 2440              		.loc 1 996 7 is_stmt 1 view .LVU787
 997:Drivers/STM32H7xx_HAL_Driver/Src/stm32h7xx_hal_rcc.c ****     }
 2441              		.loc 1 997 7 view .LVU788
 2442 00ce 6C49     		ldr	r1, .L232+4
 2443 00d0 8B69     		ldr	r3, [r1, #24]
 2444 00d2 23F00F03 		bic	r3, r3, #15
 2445 00d6 1A43     		orrs	r2, r2, r3
 2446 00d8 8A61     		str	r2, [r1, #24]
 2447              	.L202:
1010:Drivers/STM32H7xx_HAL_Driver/Src/stm32h7xx_hal_rcc.c ****     {
 2448              		.loc 1 1010 5 view .LVU789
1010:Drivers/STM32H7xx_HAL_Driver/Src/stm32h7xx_hal_rcc.c ****     {
 2449              		.loc 1 1010 27 is_stmt 0 view .LVU790
ARM GAS  C:\Users\root\AppData\Local\Temp\ccvogEgx.s 			page 76


 2450 00da 2368     		ldr	r3, [r4]
1010:Drivers/STM32H7xx_HAL_Driver/Src/stm32h7xx_hal_rcc.c ****     {
 2451              		.loc 1 1010 7 view .LVU791
 2452 00dc 13F0010F 		tst	r3, #1
 2453 00e0 41D0     		beq	.L203
1012:Drivers/STM32H7xx_HAL_Driver/Src/stm32h7xx_hal_rcc.c ****       assert_param(IS_RCC_SYSCLKSOURCE(RCC_ClkInitStruct->SYSCLKSource));
 2454              		.loc 1 1012 7 is_stmt 1 view .LVU792
1013:Drivers/STM32H7xx_HAL_Driver/Src/stm32h7xx_hal_rcc.c **** #if defined(RCC_D1CFGR_D1CPRE)
 2455              		.loc 1 1013 7 view .LVU793
1015:Drivers/STM32H7xx_HAL_Driver/Src/stm32h7xx_hal_rcc.c **** #else
 2456              		.loc 1 1015 7 view .LVU794
 2457 00e2 674A     		ldr	r2, .L232+4
 2458 00e4 9369     		ldr	r3, [r2, #24]
 2459 00e6 23F47063 		bic	r3, r3, #3840
 2460 00ea A168     		ldr	r1, [r4, #8]
 2461 00ec 0B43     		orrs	r3, r3, r1
 2462 00ee 9361     		str	r3, [r2, #24]
1020:Drivers/STM32H7xx_HAL_Driver/Src/stm32h7xx_hal_rcc.c ****       {
 2463              		.loc 1 1020 7 view .LVU795
1020:Drivers/STM32H7xx_HAL_Driver/Src/stm32h7xx_hal_rcc.c ****       {
 2464              		.loc 1 1020 27 is_stmt 0 view .LVU796
 2465 00f0 6368     		ldr	r3, [r4, #4]
1020:Drivers/STM32H7xx_HAL_Driver/Src/stm32h7xx_hal_rcc.c ****       {
 2466              		.loc 1 1020 9 view .LVU797
 2467 00f2 022B     		cmp	r3, #2
 2468 00f4 0AD0     		beq	.L228
1029:Drivers/STM32H7xx_HAL_Driver/Src/stm32h7xx_hal_rcc.c ****       {
 2469              		.loc 1 1029 12 is_stmt 1 view .LVU798
1029:Drivers/STM32H7xx_HAL_Driver/Src/stm32h7xx_hal_rcc.c ****       {
 2470              		.loc 1 1029 14 is_stmt 0 view .LVU799
 2471 00f6 032B     		cmp	r3, #3
 2472 00f8 27D0     		beq	.L229
1038:Drivers/STM32H7xx_HAL_Driver/Src/stm32h7xx_hal_rcc.c ****       {
 2473              		.loc 1 1038 12 is_stmt 1 view .LVU800
1038:Drivers/STM32H7xx_HAL_Driver/Src/stm32h7xx_hal_rcc.c ****       {
 2474              		.loc 1 1038 14 is_stmt 0 view .LVU801
 2475 00fa 012B     		cmp	r3, #1
 2476 00fc 2CD0     		beq	.L230
1050:Drivers/STM32H7xx_HAL_Driver/Src/stm32h7xx_hal_rcc.c ****         {
 2477              		.loc 1 1050 9 is_stmt 1 view .LVU802
1050:Drivers/STM32H7xx_HAL_Driver/Src/stm32h7xx_hal_rcc.c ****         {
 2478              		.loc 1 1050 12 is_stmt 0 view .LVU803
 2479 00fe 604A     		ldr	r2, .L232+4
 2480 0100 1268     		ldr	r2, [r2]
1050:Drivers/STM32H7xx_HAL_Driver/Src/stm32h7xx_hal_rcc.c ****         {
 2481              		.loc 1 1050 11 view .LVU804
 2482 0102 12F0040F 		tst	r2, #4
 2483 0106 06D1     		bne	.L205
1052:Drivers/STM32H7xx_HAL_Driver/Src/stm32h7xx_hal_rcc.c ****         }
 2484              		.loc 1 1052 18 view .LVU805
 2485 0108 0120     		movs	r0, #1
 2486              	.LVL179:
1052:Drivers/STM32H7xx_HAL_Driver/Src/stm32h7xx_hal_rcc.c ****         }
 2487              		.loc 1 1052 18 view .LVU806
 2488 010a ADE0     		b	.L196
 2489              	.LVL180:
 2490              	.L228:
ARM GAS  C:\Users\root\AppData\Local\Temp\ccvogEgx.s 			page 77


1023:Drivers/STM32H7xx_HAL_Driver/Src/stm32h7xx_hal_rcc.c ****         {
 2491              		.loc 1 1023 9 is_stmt 1 view .LVU807
1023:Drivers/STM32H7xx_HAL_Driver/Src/stm32h7xx_hal_rcc.c ****         {
 2492              		.loc 1 1023 12 is_stmt 0 view .LVU808
 2493 010c 1268     		ldr	r2, [r2]
1023:Drivers/STM32H7xx_HAL_Driver/Src/stm32h7xx_hal_rcc.c ****         {
 2494              		.loc 1 1023 11 view .LVU809
 2495 010e 12F4003F 		tst	r2, #131072
 2496 0112 00F0AE80 		beq	.L231
 2497              	.L205:
1055:Drivers/STM32H7xx_HAL_Driver/Src/stm32h7xx_hal_rcc.c **** 
 2498              		.loc 1 1055 7 is_stmt 1 view .LVU810
 2499 0116 5A49     		ldr	r1, .L232+4
 2500 0118 0A69     		ldr	r2, [r1, #16]
 2501 011a 22F00702 		bic	r2, r2, #7
 2502 011e 1343     		orrs	r3, r3, r2
 2503 0120 0B61     		str	r3, [r1, #16]
1058:Drivers/STM32H7xx_HAL_Driver/Src/stm32h7xx_hal_rcc.c **** 
 2504              		.loc 1 1058 7 view .LVU811
1058:Drivers/STM32H7xx_HAL_Driver/Src/stm32h7xx_hal_rcc.c **** 
 2505              		.loc 1 1058 19 is_stmt 0 view .LVU812
 2506 0122 FFF7FEFF 		bl	HAL_GetTick
 2507              	.LVL181:
1058:Drivers/STM32H7xx_HAL_Driver/Src/stm32h7xx_hal_rcc.c **** 
 2508              		.loc 1 1058 19 view .LVU813
 2509 0126 0646     		mov	r6, r0
 2510              	.LVL182:
1060:Drivers/STM32H7xx_HAL_Driver/Src/stm32h7xx_hal_rcc.c ****         {
 2511              		.loc 1 1060 9 is_stmt 1 view .LVU814
 2512              	.L208:
1060:Drivers/STM32H7xx_HAL_Driver/Src/stm32h7xx_hal_rcc.c ****         {
 2513              		.loc 1 1060 15 view .LVU815
1060:Drivers/STM32H7xx_HAL_Driver/Src/stm32h7xx_hal_rcc.c ****         {
 2514              		.loc 1 1060 16 is_stmt 0 view .LVU816
 2515 0128 554B     		ldr	r3, .L232+4
 2516 012a 1B69     		ldr	r3, [r3, #16]
 2517 012c 03F03803 		and	r3, r3, #56
1060:Drivers/STM32H7xx_HAL_Driver/Src/stm32h7xx_hal_rcc.c ****         {
 2518              		.loc 1 1060 68 view .LVU817
 2519 0130 6268     		ldr	r2, [r4, #4]
1060:Drivers/STM32H7xx_HAL_Driver/Src/stm32h7xx_hal_rcc.c ****         {
 2520              		.loc 1 1060 15 view .LVU818
 2521 0132 B3EBC20F 		cmp	r3, r2, lsl #3
 2522 0136 16D0     		beq	.L203
1062:Drivers/STM32H7xx_HAL_Driver/Src/stm32h7xx_hal_rcc.c ****           {
 2523              		.loc 1 1062 11 is_stmt 1 view .LVU819
1062:Drivers/STM32H7xx_HAL_Driver/Src/stm32h7xx_hal_rcc.c ****           {
 2524              		.loc 1 1062 15 is_stmt 0 view .LVU820
 2525 0138 FFF7FEFF 		bl	HAL_GetTick
 2526              	.LVL183:
1062:Drivers/STM32H7xx_HAL_Driver/Src/stm32h7xx_hal_rcc.c ****           {
 2527              		.loc 1 1062 29 view .LVU821
 2528 013c 801B     		subs	r0, r0, r6
1062:Drivers/STM32H7xx_HAL_Driver/Src/stm32h7xx_hal_rcc.c ****           {
 2529              		.loc 1 1062 13 view .LVU822
 2530 013e 41F28833 		movw	r3, #5000
 2531 0142 9842     		cmp	r0, r3
ARM GAS  C:\Users\root\AppData\Local\Temp\ccvogEgx.s 			page 78


 2532 0144 F0D9     		bls	.L208
1064:Drivers/STM32H7xx_HAL_Driver/Src/stm32h7xx_hal_rcc.c ****           }
 2533              		.loc 1 1064 20 view .LVU823
 2534 0146 0320     		movs	r0, #3
 2535 0148 8EE0     		b	.L196
 2536              	.LVL184:
 2537              	.L229:
1032:Drivers/STM32H7xx_HAL_Driver/Src/stm32h7xx_hal_rcc.c ****         {
 2538              		.loc 1 1032 9 is_stmt 1 view .LVU824
1032:Drivers/STM32H7xx_HAL_Driver/Src/stm32h7xx_hal_rcc.c ****         {
 2539              		.loc 1 1032 12 is_stmt 0 view .LVU825
 2540 014a 4D4A     		ldr	r2, .L232+4
 2541 014c 1268     		ldr	r2, [r2]
1032:Drivers/STM32H7xx_HAL_Driver/Src/stm32h7xx_hal_rcc.c ****         {
 2542              		.loc 1 1032 11 view .LVU826
 2543 014e 12F0007F 		tst	r2, #33554432
 2544 0152 E0D1     		bne	.L205
1034:Drivers/STM32H7xx_HAL_Driver/Src/stm32h7xx_hal_rcc.c ****         }
 2545              		.loc 1 1034 18 view .LVU827
 2546 0154 0120     		movs	r0, #1
 2547              	.LVL185:
1034:Drivers/STM32H7xx_HAL_Driver/Src/stm32h7xx_hal_rcc.c ****         }
 2548              		.loc 1 1034 18 view .LVU828
 2549 0156 87E0     		b	.L196
 2550              	.LVL186:
 2551              	.L230:
1041:Drivers/STM32H7xx_HAL_Driver/Src/stm32h7xx_hal_rcc.c ****         {
 2552              		.loc 1 1041 9 is_stmt 1 view .LVU829
1041:Drivers/STM32H7xx_HAL_Driver/Src/stm32h7xx_hal_rcc.c ****         {
 2553              		.loc 1 1041 12 is_stmt 0 view .LVU830
 2554 0158 494A     		ldr	r2, .L232+4
 2555 015a 1268     		ldr	r2, [r2]
1041:Drivers/STM32H7xx_HAL_Driver/Src/stm32h7xx_hal_rcc.c ****         {
 2556              		.loc 1 1041 11 view .LVU831
 2557 015c 12F4807F 		tst	r2, #256
 2558 0160 D9D1     		bne	.L205
1043:Drivers/STM32H7xx_HAL_Driver/Src/stm32h7xx_hal_rcc.c ****         }
 2559              		.loc 1 1043 18 view .LVU832
 2560 0162 0120     		movs	r0, #1
 2561              	.LVL187:
1043:Drivers/STM32H7xx_HAL_Driver/Src/stm32h7xx_hal_rcc.c ****         }
 2562              		.loc 1 1043 18 view .LVU833
 2563 0164 80E0     		b	.L196
 2564              	.L203:
1072:Drivers/STM32H7xx_HAL_Driver/Src/stm32h7xx_hal_rcc.c ****   {
 2565              		.loc 1 1072 3 is_stmt 1 view .LVU834
1072:Drivers/STM32H7xx_HAL_Driver/Src/stm32h7xx_hal_rcc.c ****   {
 2566              		.loc 1 1072 25 is_stmt 0 view .LVU835
 2567 0166 2368     		ldr	r3, [r4]
1072:Drivers/STM32H7xx_HAL_Driver/Src/stm32h7xx_hal_rcc.c ****   {
 2568              		.loc 1 1072 5 view .LVU836
 2569 0168 13F0020F 		tst	r3, #2
 2570 016c 0CD0     		beq	.L210
1075:Drivers/STM32H7xx_HAL_Driver/Src/stm32h7xx_hal_rcc.c ****     {
 2571              		.loc 1 1075 5 is_stmt 1 view .LVU837
1075:Drivers/STM32H7xx_HAL_Driver/Src/stm32h7xx_hal_rcc.c ****     {
 2572              		.loc 1 1075 26 is_stmt 0 view .LVU838
ARM GAS  C:\Users\root\AppData\Local\Temp\ccvogEgx.s 			page 79


 2573 016e E268     		ldr	r2, [r4, #12]
1075:Drivers/STM32H7xx_HAL_Driver/Src/stm32h7xx_hal_rcc.c ****     {
 2574              		.loc 1 1075 49 view .LVU839
 2575 0170 434B     		ldr	r3, .L232+4
 2576 0172 9B69     		ldr	r3, [r3, #24]
1075:Drivers/STM32H7xx_HAL_Driver/Src/stm32h7xx_hal_rcc.c ****     {
 2577              		.loc 1 1075 58 view .LVU840
 2578 0174 03F00F03 		and	r3, r3, #15
1075:Drivers/STM32H7xx_HAL_Driver/Src/stm32h7xx_hal_rcc.c ****     {
 2579              		.loc 1 1075 7 view .LVU841
 2580 0178 9A42     		cmp	r2, r3
 2581 017a 05D2     		bcs	.L210
1078:Drivers/STM32H7xx_HAL_Driver/Src/stm32h7xx_hal_rcc.c ****       MODIFY_REG(RCC->D1CFGR, RCC_D1CFGR_HPRE, RCC_ClkInitStruct->AHBCLKDivider);
 2582              		.loc 1 1078 7 is_stmt 1 view .LVU842
1079:Drivers/STM32H7xx_HAL_Driver/Src/stm32h7xx_hal_rcc.c ****     }
 2583              		.loc 1 1079 7 view .LVU843
 2584 017c 4049     		ldr	r1, .L232+4
 2585 017e 8B69     		ldr	r3, [r1, #24]
 2586 0180 23F00F03 		bic	r3, r3, #15
 2587 0184 1A43     		orrs	r2, r2, r3
 2588 0186 8A61     		str	r2, [r1, #24]
 2589              	.L210:
1092:Drivers/STM32H7xx_HAL_Driver/Src/stm32h7xx_hal_rcc.c ****   {
 2590              		.loc 1 1092 3 view .LVU844
1092:Drivers/STM32H7xx_HAL_Driver/Src/stm32h7xx_hal_rcc.c ****   {
 2591              		.loc 1 1092 17 is_stmt 0 view .LVU845
 2592 0188 3C4B     		ldr	r3, .L232
 2593 018a 1B68     		ldr	r3, [r3]
 2594 018c 03F00F03 		and	r3, r3, #15
1092:Drivers/STM32H7xx_HAL_Driver/Src/stm32h7xx_hal_rcc.c ****   {
 2595              		.loc 1 1092 5 view .LVU846
 2596 0190 AB42     		cmp	r3, r5
 2597 0192 0AD9     		bls	.L211
1095:Drivers/STM32H7xx_HAL_Driver/Src/stm32h7xx_hal_rcc.c **** 
 2598              		.loc 1 1095 5 is_stmt 1 view .LVU847
 2599 0194 394A     		ldr	r2, .L232
 2600 0196 1368     		ldr	r3, [r2]
 2601 0198 23F00F03 		bic	r3, r3, #15
 2602 019c 2B43     		orrs	r3, r3, r5
 2603 019e 1360     		str	r3, [r2]
1099:Drivers/STM32H7xx_HAL_Driver/Src/stm32h7xx_hal_rcc.c ****     {
 2604              		.loc 1 1099 5 view .LVU848
1099:Drivers/STM32H7xx_HAL_Driver/Src/stm32h7xx_hal_rcc.c ****     {
 2605              		.loc 1 1099 8 is_stmt 0 view .LVU849
 2606 01a0 1368     		ldr	r3, [r2]
 2607 01a2 03F00F03 		and	r3, r3, #15
1099:Drivers/STM32H7xx_HAL_Driver/Src/stm32h7xx_hal_rcc.c ****     {
 2608              		.loc 1 1099 7 view .LVU850
 2609 01a6 AB42     		cmp	r3, r5
 2610 01a8 65D1     		bne	.L223
 2611              	.L211:
1106:Drivers/STM32H7xx_HAL_Driver/Src/stm32h7xx_hal_rcc.c ****  {
 2612              		.loc 1 1106 2 is_stmt 1 view .LVU851
1106:Drivers/STM32H7xx_HAL_Driver/Src/stm32h7xx_hal_rcc.c ****  {
 2613              		.loc 1 1106 24 is_stmt 0 view .LVU852
 2614 01aa 2368     		ldr	r3, [r4]
1106:Drivers/STM32H7xx_HAL_Driver/Src/stm32h7xx_hal_rcc.c ****  {
ARM GAS  C:\Users\root\AppData\Local\Temp\ccvogEgx.s 			page 80


 2615              		.loc 1 1106 4 view .LVU853
 2616 01ac 13F0040F 		tst	r3, #4
 2617 01b0 0CD0     		beq	.L212
1109:Drivers/STM32H7xx_HAL_Driver/Src/stm32h7xx_hal_rcc.c ****    {
 2618              		.loc 1 1109 4 is_stmt 1 view .LVU854
1109:Drivers/STM32H7xx_HAL_Driver/Src/stm32h7xx_hal_rcc.c ****    {
 2619              		.loc 1 1109 25 is_stmt 0 view .LVU855
 2620 01b2 2269     		ldr	r2, [r4, #16]
1109:Drivers/STM32H7xx_HAL_Driver/Src/stm32h7xx_hal_rcc.c ****    {
 2621              		.loc 1 1109 49 view .LVU856
 2622 01b4 324B     		ldr	r3, .L232+4
 2623 01b6 9B69     		ldr	r3, [r3, #24]
1109:Drivers/STM32H7xx_HAL_Driver/Src/stm32h7xx_hal_rcc.c ****    {
 2624              		.loc 1 1109 58 view .LVU857
 2625 01b8 03F07003 		and	r3, r3, #112
1109:Drivers/STM32H7xx_HAL_Driver/Src/stm32h7xx_hal_rcc.c ****    {
 2626              		.loc 1 1109 6 view .LVU858
 2627 01bc 9A42     		cmp	r2, r3
 2628 01be 05D2     		bcs	.L212
1111:Drivers/STM32H7xx_HAL_Driver/Src/stm32h7xx_hal_rcc.c ****      MODIFY_REG(RCC->D1CFGR, RCC_D1CFGR_D1PPRE, RCC_ClkInitStruct->APB3CLKDivider);
 2629              		.loc 1 1111 6 is_stmt 1 view .LVU859
1112:Drivers/STM32H7xx_HAL_Driver/Src/stm32h7xx_hal_rcc.c ****    }
 2630              		.loc 1 1112 6 view .LVU860
 2631 01c0 2F49     		ldr	r1, .L232+4
 2632 01c2 8B69     		ldr	r3, [r1, #24]
 2633 01c4 23F07003 		bic	r3, r3, #112
 2634 01c8 1A43     		orrs	r2, r2, r3
 2635 01ca 8A61     		str	r2, [r1, #24]
 2636              	.L212:
1124:Drivers/STM32H7xx_HAL_Driver/Src/stm32h7xx_hal_rcc.c ****  {
 2637              		.loc 1 1124 2 view .LVU861
1124:Drivers/STM32H7xx_HAL_Driver/Src/stm32h7xx_hal_rcc.c ****  {
 2638              		.loc 1 1124 24 is_stmt 0 view .LVU862
 2639 01cc 2368     		ldr	r3, [r4]
1124:Drivers/STM32H7xx_HAL_Driver/Src/stm32h7xx_hal_rcc.c ****  {
 2640              		.loc 1 1124 4 view .LVU863
 2641 01ce 13F0080F 		tst	r3, #8
 2642 01d2 0CD0     		beq	.L213
1127:Drivers/STM32H7xx_HAL_Driver/Src/stm32h7xx_hal_rcc.c ****    {
 2643              		.loc 1 1127 4 is_stmt 1 view .LVU864
1127:Drivers/STM32H7xx_HAL_Driver/Src/stm32h7xx_hal_rcc.c ****    {
 2644              		.loc 1 1127 25 is_stmt 0 view .LVU865
 2645 01d4 6269     		ldr	r2, [r4, #20]
1127:Drivers/STM32H7xx_HAL_Driver/Src/stm32h7xx_hal_rcc.c ****    {
 2646              		.loc 1 1127 49 view .LVU866
 2647 01d6 2A4B     		ldr	r3, .L232+4
 2648 01d8 DB69     		ldr	r3, [r3, #28]
1127:Drivers/STM32H7xx_HAL_Driver/Src/stm32h7xx_hal_rcc.c ****    {
 2649              		.loc 1 1127 58 view .LVU867
 2650 01da 03F07003 		and	r3, r3, #112
1127:Drivers/STM32H7xx_HAL_Driver/Src/stm32h7xx_hal_rcc.c ****    {
 2651              		.loc 1 1127 6 view .LVU868
 2652 01de 9A42     		cmp	r2, r3
 2653 01e0 05D2     		bcs	.L213
1129:Drivers/STM32H7xx_HAL_Driver/Src/stm32h7xx_hal_rcc.c ****      MODIFY_REG(RCC->D2CFGR, RCC_D2CFGR_D2PPRE1, (RCC_ClkInitStruct->APB1CLKDivider));
 2654              		.loc 1 1129 6 is_stmt 1 view .LVU869
1130:Drivers/STM32H7xx_HAL_Driver/Src/stm32h7xx_hal_rcc.c ****    }
ARM GAS  C:\Users\root\AppData\Local\Temp\ccvogEgx.s 			page 81


 2655              		.loc 1 1130 6 view .LVU870
 2656 01e2 2749     		ldr	r1, .L232+4
 2657 01e4 CB69     		ldr	r3, [r1, #28]
 2658 01e6 23F07003 		bic	r3, r3, #112
 2659 01ea 1A43     		orrs	r2, r2, r3
 2660 01ec CA61     		str	r2, [r1, #28]
 2661              	.L213:
1142:Drivers/STM32H7xx_HAL_Driver/Src/stm32h7xx_hal_rcc.c ****  {
 2662              		.loc 1 1142 2 view .LVU871
1142:Drivers/STM32H7xx_HAL_Driver/Src/stm32h7xx_hal_rcc.c ****  {
 2663              		.loc 1 1142 24 is_stmt 0 view .LVU872
 2664 01ee 2368     		ldr	r3, [r4]
1142:Drivers/STM32H7xx_HAL_Driver/Src/stm32h7xx_hal_rcc.c ****  {
 2665              		.loc 1 1142 4 view .LVU873
 2666 01f0 13F0100F 		tst	r3, #16
 2667 01f4 0CD0     		beq	.L214
1145:Drivers/STM32H7xx_HAL_Driver/Src/stm32h7xx_hal_rcc.c ****    {
 2668              		.loc 1 1145 4 is_stmt 1 view .LVU874
1145:Drivers/STM32H7xx_HAL_Driver/Src/stm32h7xx_hal_rcc.c ****    {
 2669              		.loc 1 1145 25 is_stmt 0 view .LVU875
 2670 01f6 A269     		ldr	r2, [r4, #24]
1145:Drivers/STM32H7xx_HAL_Driver/Src/stm32h7xx_hal_rcc.c ****    {
 2671              		.loc 1 1145 49 view .LVU876
 2672 01f8 214B     		ldr	r3, .L232+4
 2673 01fa DB69     		ldr	r3, [r3, #28]
1145:Drivers/STM32H7xx_HAL_Driver/Src/stm32h7xx_hal_rcc.c ****    {
 2674              		.loc 1 1145 58 view .LVU877
 2675 01fc 03F4E063 		and	r3, r3, #1792
1145:Drivers/STM32H7xx_HAL_Driver/Src/stm32h7xx_hal_rcc.c ****    {
 2676              		.loc 1 1145 6 view .LVU878
 2677 0200 9A42     		cmp	r2, r3
 2678 0202 05D2     		bcs	.L214
1147:Drivers/STM32H7xx_HAL_Driver/Src/stm32h7xx_hal_rcc.c ****      MODIFY_REG(RCC->D2CFGR, RCC_D2CFGR_D2PPRE2, (RCC_ClkInitStruct->APB2CLKDivider));
 2679              		.loc 1 1147 6 is_stmt 1 view .LVU879
1148:Drivers/STM32H7xx_HAL_Driver/Src/stm32h7xx_hal_rcc.c ****    }
 2680              		.loc 1 1148 6 view .LVU880
 2681 0204 1E49     		ldr	r1, .L232+4
 2682 0206 CB69     		ldr	r3, [r1, #28]
 2683 0208 23F4E063 		bic	r3, r3, #1792
 2684 020c 1A43     		orrs	r2, r2, r3
 2685 020e CA61     		str	r2, [r1, #28]
 2686              	.L214:
1160:Drivers/STM32H7xx_HAL_Driver/Src/stm32h7xx_hal_rcc.c ****  {
 2687              		.loc 1 1160 2 view .LVU881
1160:Drivers/STM32H7xx_HAL_Driver/Src/stm32h7xx_hal_rcc.c ****  {
 2688              		.loc 1 1160 24 is_stmt 0 view .LVU882
 2689 0210 2368     		ldr	r3, [r4]
1160:Drivers/STM32H7xx_HAL_Driver/Src/stm32h7xx_hal_rcc.c ****  {
 2690              		.loc 1 1160 4 view .LVU883
 2691 0212 13F0200F 		tst	r3, #32
 2692 0216 0CD0     		beq	.L215
1163:Drivers/STM32H7xx_HAL_Driver/Src/stm32h7xx_hal_rcc.c ****    {
 2693              		.loc 1 1163 4 is_stmt 1 view .LVU884
1163:Drivers/STM32H7xx_HAL_Driver/Src/stm32h7xx_hal_rcc.c ****    {
 2694              		.loc 1 1163 25 is_stmt 0 view .LVU885
 2695 0218 E269     		ldr	r2, [r4, #28]
1163:Drivers/STM32H7xx_HAL_Driver/Src/stm32h7xx_hal_rcc.c ****    {
ARM GAS  C:\Users\root\AppData\Local\Temp\ccvogEgx.s 			page 82


 2696              		.loc 1 1163 49 view .LVU886
 2697 021a 194B     		ldr	r3, .L232+4
 2698 021c 1B6A     		ldr	r3, [r3, #32]
1163:Drivers/STM32H7xx_HAL_Driver/Src/stm32h7xx_hal_rcc.c ****    {
 2699              		.loc 1 1163 58 view .LVU887
 2700 021e 03F07003 		and	r3, r3, #112
1163:Drivers/STM32H7xx_HAL_Driver/Src/stm32h7xx_hal_rcc.c ****    {
 2701              		.loc 1 1163 6 view .LVU888
 2702 0222 9A42     		cmp	r2, r3
 2703 0224 05D2     		bcs	.L215
1165:Drivers/STM32H7xx_HAL_Driver/Src/stm32h7xx_hal_rcc.c ****      MODIFY_REG(RCC->D3CFGR, RCC_D3CFGR_D3PPRE, (RCC_ClkInitStruct->APB4CLKDivider) );
 2704              		.loc 1 1165 6 is_stmt 1 view .LVU889
1166:Drivers/STM32H7xx_HAL_Driver/Src/stm32h7xx_hal_rcc.c ****    }
 2705              		.loc 1 1166 6 view .LVU890
 2706 0226 1649     		ldr	r1, .L232+4
 2707 0228 0B6A     		ldr	r3, [r1, #32]
 2708 022a 23F07003 		bic	r3, r3, #112
 2709 022e 1A43     		orrs	r2, r2, r3
 2710 0230 0A62     		str	r2, [r1, #32]
 2711              	.L215:
1179:Drivers/STM32H7xx_HAL_Driver/Src/stm32h7xx_hal_rcc.c **** #else
 2712              		.loc 1 1179 3 view .LVU891
1179:Drivers/STM32H7xx_HAL_Driver/Src/stm32h7xx_hal_rcc.c **** #else
 2713              		.loc 1 1179 25 is_stmt 0 view .LVU892
 2714 0232 FFF7FEFF 		bl	HAL_RCC_GetSysClockFreq
 2715              	.LVL188:
1179:Drivers/STM32H7xx_HAL_Driver/Src/stm32h7xx_hal_rcc.c **** #else
 2716              		.loc 1 1179 77 view .LVU893
 2717 0236 1249     		ldr	r1, .L232+4
 2718 0238 8B69     		ldr	r3, [r1, #24]
1179:Drivers/STM32H7xx_HAL_Driver/Src/stm32h7xx_hal_rcc.c **** #else
 2719              		.loc 1 1179 106 view .LVU894
 2720 023a C3F30323 		ubfx	r3, r3, #8, #4
1179:Drivers/STM32H7xx_HAL_Driver/Src/stm32h7xx_hal_rcc.c **** #else
 2721              		.loc 1 1179 72 view .LVU895
 2722 023e 114A     		ldr	r2, .L232+8
 2723 0240 D35C     		ldrb	r3, [r2, r3]	@ zero_extendqisi2
1179:Drivers/STM32H7xx_HAL_Driver/Src/stm32h7xx_hal_rcc.c **** #else
 2724              		.loc 1 1179 133 view .LVU896
 2725 0242 03F01F03 		and	r3, r3, #31
1179:Drivers/STM32H7xx_HAL_Driver/Src/stm32h7xx_hal_rcc.c **** #else
 2726              		.loc 1 1179 23 view .LVU897
 2727 0246 D840     		lsrs	r0, r0, r3
 2728              	.LVL189:
1185:Drivers/STM32H7xx_HAL_Driver/Src/stm32h7xx_hal_rcc.c **** #else
 2729              		.loc 1 1185 3 is_stmt 1 view .LVU898
1185:Drivers/STM32H7xx_HAL_Driver/Src/stm32h7xx_hal_rcc.c **** #else
 2730              		.loc 1 1185 66 is_stmt 0 view .LVU899
 2731 0248 8B69     		ldr	r3, [r1, #24]
1185:Drivers/STM32H7xx_HAL_Driver/Src/stm32h7xx_hal_rcc.c **** #else
 2732              		.loc 1 1185 93 view .LVU900
 2733 024a 03F00F03 		and	r3, r3, #15
1185:Drivers/STM32H7xx_HAL_Driver/Src/stm32h7xx_hal_rcc.c **** #else
 2734              		.loc 1 1185 61 view .LVU901
 2735 024e D35C     		ldrb	r3, [r2, r3]	@ zero_extendqisi2
1185:Drivers/STM32H7xx_HAL_Driver/Src/stm32h7xx_hal_rcc.c **** #else
 2736              		.loc 1 1185 118 view .LVU902
ARM GAS  C:\Users\root\AppData\Local\Temp\ccvogEgx.s 			page 83


 2737 0250 03F01F03 		and	r3, r3, #31
1185:Drivers/STM32H7xx_HAL_Driver/Src/stm32h7xx_hal_rcc.c **** #else
 2738              		.loc 1 1185 40 view .LVU903
 2739 0254 20FA03F3 		lsr	r3, r0, r3
1185:Drivers/STM32H7xx_HAL_Driver/Src/stm32h7xx_hal_rcc.c **** #else
 2740              		.loc 1 1185 17 view .LVU904
 2741 0258 0B4A     		ldr	r2, .L232+12
 2742 025a 1360     		str	r3, [r2]
1193:Drivers/STM32H7xx_HAL_Driver/Src/stm32h7xx_hal_rcc.c **** #endif /* DUAL_CORE && CORE_CM4 */
 2743              		.loc 1 1193 3 is_stmt 1 view .LVU905
1193:Drivers/STM32H7xx_HAL_Driver/Src/stm32h7xx_hal_rcc.c **** #endif /* DUAL_CORE && CORE_CM4 */
 2744              		.loc 1 1193 19 is_stmt 0 view .LVU906
 2745 025c 0B4B     		ldr	r3, .L232+16
 2746 025e 1860     		str	r0, [r3]
1197:Drivers/STM32H7xx_HAL_Driver/Src/stm32h7xx_hal_rcc.c **** 
 2747              		.loc 1 1197 3 is_stmt 1 view .LVU907
1197:Drivers/STM32H7xx_HAL_Driver/Src/stm32h7xx_hal_rcc.c **** 
 2748              		.loc 1 1197 15 is_stmt 0 view .LVU908
 2749 0260 0B4B     		ldr	r3, .L232+20
 2750 0262 1868     		ldr	r0, [r3]
 2751              	.LVL190:
1197:Drivers/STM32H7xx_HAL_Driver/Src/stm32h7xx_hal_rcc.c **** 
 2752              		.loc 1 1197 15 view .LVU909
 2753 0264 FFF7FEFF 		bl	HAL_InitTick
 2754              	.LVL191:
1199:Drivers/STM32H7xx_HAL_Driver/Src/stm32h7xx_hal_rcc.c **** }
 2755              		.loc 1 1199 3 is_stmt 1 view .LVU910
 2756              	.L196:
1200:Drivers/STM32H7xx_HAL_Driver/Src/stm32h7xx_hal_rcc.c **** 
 2757              		.loc 1 1200 1 is_stmt 0 view .LVU911
 2758 0268 70BD     		pop	{r4, r5, r6, pc}
 2759              	.LVL192:
 2760              	.L216:
 2761              	.LCFI13:
 2762              		.cfi_def_cfa_offset 0
 2763              		.cfi_restore 4
 2764              		.cfi_restore 5
 2765              		.cfi_restore 6
 2766              		.cfi_restore 14
 891:Drivers/STM32H7xx_HAL_Driver/Src/stm32h7xx_hal_rcc.c ****   }
 2767              		.loc 1 891 12 view .LVU912
 2768 026a 0120     		movs	r0, #1
 2769              	.LVL193:
1200:Drivers/STM32H7xx_HAL_Driver/Src/stm32h7xx_hal_rcc.c **** 
 2770              		.loc 1 1200 1 view .LVU913
 2771 026c 7047     		bx	lr
 2772              	.LVL194:
 2773              	.L217:
 2774              	.LCFI14:
 2775              		.cfi_def_cfa_offset 16
 2776              		.cfi_offset 4, -16
 2777              		.cfi_offset 5, -12
 2778              		.cfi_offset 6, -8
 2779              		.cfi_offset 14, -4
 912:Drivers/STM32H7xx_HAL_Driver/Src/stm32h7xx_hal_rcc.c ****     }
 2780              		.loc 1 912 14 view .LVU914
 2781 026e 0120     		movs	r0, #1
ARM GAS  C:\Users\root\AppData\Local\Temp\ccvogEgx.s 			page 84


 2782              	.LVL195:
 912:Drivers/STM32H7xx_HAL_Driver/Src/stm32h7xx_hal_rcc.c ****     }
 2783              		.loc 1 912 14 view .LVU915
 2784 0270 FAE7     		b	.L196
 2785              	.LVL196:
 2786              	.L231:
1025:Drivers/STM32H7xx_HAL_Driver/Src/stm32h7xx_hal_rcc.c ****         }
 2787              		.loc 1 1025 18 view .LVU916
 2788 0272 0120     		movs	r0, #1
 2789              	.LVL197:
1025:Drivers/STM32H7xx_HAL_Driver/Src/stm32h7xx_hal_rcc.c ****         }
 2790              		.loc 1 1025 18 view .LVU917
 2791 0274 F8E7     		b	.L196
 2792              	.L223:
1101:Drivers/STM32H7xx_HAL_Driver/Src/stm32h7xx_hal_rcc.c ****     }
 2793              		.loc 1 1101 14 view .LVU918
 2794 0276 0120     		movs	r0, #1
 2795 0278 F6E7     		b	.L196
 2796              	.L233:
 2797 027a 00BF     		.align	2
 2798              	.L232:
 2799 027c 00200052 		.word	1375739904
 2800 0280 00440258 		.word	1476543488
 2801 0284 00000000 		.word	D1CorePrescTable
 2802 0288 00000000 		.word	SystemD2Clock
 2803 028c 00000000 		.word	SystemCoreClock
 2804 0290 00000000 		.word	uwTickPrio
 2805              		.cfi_endproc
 2806              	.LFE143:
 2808              		.section	.text.HAL_RCC_GetHCLKFreq,"ax",%progbits
 2809              		.align	1
 2810              		.global	HAL_RCC_GetHCLKFreq
 2811              		.syntax unified
 2812              		.thumb
 2813              		.thumb_func
 2814              		.fpu fpv5-d16
 2816              	HAL_RCC_GetHCLKFreq:
 2817              	.LFB148:
1434:Drivers/STM32H7xx_HAL_Driver/Src/stm32h7xx_hal_rcc.c **** 
1435:Drivers/STM32H7xx_HAL_Driver/Src/stm32h7xx_hal_rcc.c **** 
1436:Drivers/STM32H7xx_HAL_Driver/Src/stm32h7xx_hal_rcc.c **** /**
1437:Drivers/STM32H7xx_HAL_Driver/Src/stm32h7xx_hal_rcc.c ****   * @brief  Returns the HCLK frequency
1438:Drivers/STM32H7xx_HAL_Driver/Src/stm32h7xx_hal_rcc.c ****   * @note   Each time HCLK changes, this function must be called to update the
1439:Drivers/STM32H7xx_HAL_Driver/Src/stm32h7xx_hal_rcc.c ****   *         right HCLK value. Otherwise, any configuration based on this function will be incorrect
1440:Drivers/STM32H7xx_HAL_Driver/Src/stm32h7xx_hal_rcc.c ****   *
1441:Drivers/STM32H7xx_HAL_Driver/Src/stm32h7xx_hal_rcc.c ****   * @note   The SystemD2Clock CMSIS variable is used to store System domain2 Clock Frequency
1442:Drivers/STM32H7xx_HAL_Driver/Src/stm32h7xx_hal_rcc.c ****   *         and updated within this function
1443:Drivers/STM32H7xx_HAL_Driver/Src/stm32h7xx_hal_rcc.c ****   * @retval HCLK frequency
1444:Drivers/STM32H7xx_HAL_Driver/Src/stm32h7xx_hal_rcc.c ****   */
1445:Drivers/STM32H7xx_HAL_Driver/Src/stm32h7xx_hal_rcc.c **** uint32_t HAL_RCC_GetHCLKFreq(void)
1446:Drivers/STM32H7xx_HAL_Driver/Src/stm32h7xx_hal_rcc.c **** {
 2818              		.loc 1 1446 1 is_stmt 1 view -0
 2819              		.cfi_startproc
 2820              		@ args = 0, pretend = 0, frame = 0
 2821              		@ frame_needed = 0, uses_anonymous_args = 0
 2822 0000 08B5     		push	{r3, lr}
 2823              	.LCFI15:
ARM GAS  C:\Users\root\AppData\Local\Temp\ccvogEgx.s 			page 85


 2824              		.cfi_def_cfa_offset 8
 2825              		.cfi_offset 3, -8
 2826              		.cfi_offset 14, -4
1447:Drivers/STM32H7xx_HAL_Driver/Src/stm32h7xx_hal_rcc.c **** uint32_t common_system_clock;
 2827              		.loc 1 1447 1 view .LVU920
1448:Drivers/STM32H7xx_HAL_Driver/Src/stm32h7xx_hal_rcc.c **** 
1449:Drivers/STM32H7xx_HAL_Driver/Src/stm32h7xx_hal_rcc.c **** #if defined(RCC_D1CFGR_D1CPRE)
1450:Drivers/STM32H7xx_HAL_Driver/Src/stm32h7xx_hal_rcc.c ****   common_system_clock = HAL_RCC_GetSysClockFreq() >> (D1CorePrescTable[(RCC->D1CFGR & RCC_D1CFGR_D1
 2828              		.loc 1 1450 3 view .LVU921
 2829              		.loc 1 1450 25 is_stmt 0 view .LVU922
 2830 0002 FFF7FEFF 		bl	HAL_RCC_GetSysClockFreq
 2831              	.LVL198:
 2832              		.loc 1 1450 76 view .LVU923
 2833 0006 0B4A     		ldr	r2, .L236
 2834 0008 9369     		ldr	r3, [r2, #24]
 2835              		.loc 1 1450 105 view .LVU924
 2836 000a C3F30323 		ubfx	r3, r3, #8, #4
 2837              		.loc 1 1450 71 view .LVU925
 2838 000e 0A49     		ldr	r1, .L236+4
 2839 0010 CB5C     		ldrb	r3, [r1, r3]	@ zero_extendqisi2
 2840              		.loc 1 1450 131 view .LVU926
 2841 0012 03F01F03 		and	r3, r3, #31
 2842              		.loc 1 1450 23 view .LVU927
 2843 0016 20FA03F3 		lsr	r3, r0, r3
 2844              	.LVL199:
1451:Drivers/STM32H7xx_HAL_Driver/Src/stm32h7xx_hal_rcc.c **** #else
1452:Drivers/STM32H7xx_HAL_Driver/Src/stm32h7xx_hal_rcc.c ****   common_system_clock = HAL_RCC_GetSysClockFreq() >> (D1CorePrescTable[(RCC->CDCFGR1 & RCC_CDCFGR1_
1453:Drivers/STM32H7xx_HAL_Driver/Src/stm32h7xx_hal_rcc.c **** #endif
1454:Drivers/STM32H7xx_HAL_Driver/Src/stm32h7xx_hal_rcc.c **** 
1455:Drivers/STM32H7xx_HAL_Driver/Src/stm32h7xx_hal_rcc.c **** #if defined(RCC_D1CFGR_HPRE)
1456:Drivers/STM32H7xx_HAL_Driver/Src/stm32h7xx_hal_rcc.c ****   SystemD2Clock = (common_system_clock >> ((D1CorePrescTable[(RCC->D1CFGR & RCC_D1CFGR_HPRE)>> RCC_
 2845              		.loc 1 1456 3 is_stmt 1 view .LVU928
 2846              		.loc 1 1456 66 is_stmt 0 view .LVU929
 2847 001a 9269     		ldr	r2, [r2, #24]
 2848              		.loc 1 1456 93 view .LVU930
 2849 001c 02F00F02 		and	r2, r2, #15
 2850              		.loc 1 1456 61 view .LVU931
 2851 0020 885C     		ldrb	r0, [r1, r2]	@ zero_extendqisi2
 2852              		.loc 1 1456 118 view .LVU932
 2853 0022 00F01F00 		and	r0, r0, #31
 2854              		.loc 1 1456 40 view .LVU933
 2855 0026 23FA00F0 		lsr	r0, r3, r0
 2856              		.loc 1 1456 17 view .LVU934
 2857 002a 044A     		ldr	r2, .L236+8
 2858 002c 1060     		str	r0, [r2]
1457:Drivers/STM32H7xx_HAL_Driver/Src/stm32h7xx_hal_rcc.c **** #else
1458:Drivers/STM32H7xx_HAL_Driver/Src/stm32h7xx_hal_rcc.c ****   SystemD2Clock = (common_system_clock >> ((D1CorePrescTable[(RCC->CDCFGR1 & RCC_CDCFGR1_HPRE)>> RC
1459:Drivers/STM32H7xx_HAL_Driver/Src/stm32h7xx_hal_rcc.c **** #endif
1460:Drivers/STM32H7xx_HAL_Driver/Src/stm32h7xx_hal_rcc.c **** 
1461:Drivers/STM32H7xx_HAL_Driver/Src/stm32h7xx_hal_rcc.c **** #if defined(DUAL_CORE) && defined(CORE_CM4)
1462:Drivers/STM32H7xx_HAL_Driver/Src/stm32h7xx_hal_rcc.c ****   SystemCoreClock = SystemD2Clock;
1463:Drivers/STM32H7xx_HAL_Driver/Src/stm32h7xx_hal_rcc.c **** #else
1464:Drivers/STM32H7xx_HAL_Driver/Src/stm32h7xx_hal_rcc.c ****   SystemCoreClock = common_system_clock;
 2859              		.loc 1 1464 3 is_stmt 1 view .LVU935
 2860              		.loc 1 1464 19 is_stmt 0 view .LVU936
 2861 002e 044A     		ldr	r2, .L236+12
 2862 0030 1360     		str	r3, [r2]
ARM GAS  C:\Users\root\AppData\Local\Temp\ccvogEgx.s 			page 86


1465:Drivers/STM32H7xx_HAL_Driver/Src/stm32h7xx_hal_rcc.c **** #endif /* DUAL_CORE && CORE_CM4 */
1466:Drivers/STM32H7xx_HAL_Driver/Src/stm32h7xx_hal_rcc.c **** 
1467:Drivers/STM32H7xx_HAL_Driver/Src/stm32h7xx_hal_rcc.c ****   return SystemD2Clock;
 2863              		.loc 1 1467 3 is_stmt 1 view .LVU937
1468:Drivers/STM32H7xx_HAL_Driver/Src/stm32h7xx_hal_rcc.c **** }
 2864              		.loc 1 1468 1 is_stmt 0 view .LVU938
 2865 0032 08BD     		pop	{r3, pc}
 2866              	.LVL200:
 2867              	.L237:
 2868              		.loc 1 1468 1 view .LVU939
 2869              		.align	2
 2870              	.L236:
 2871 0034 00440258 		.word	1476543488
 2872 0038 00000000 		.word	D1CorePrescTable
 2873 003c 00000000 		.word	SystemD2Clock
 2874 0040 00000000 		.word	SystemCoreClock
 2875              		.cfi_endproc
 2876              	.LFE148:
 2878              		.section	.text.HAL_RCC_GetPCLK1Freq,"ax",%progbits
 2879              		.align	1
 2880              		.global	HAL_RCC_GetPCLK1Freq
 2881              		.syntax unified
 2882              		.thumb
 2883              		.thumb_func
 2884              		.fpu fpv5-d16
 2886              	HAL_RCC_GetPCLK1Freq:
 2887              	.LFB149:
1469:Drivers/STM32H7xx_HAL_Driver/Src/stm32h7xx_hal_rcc.c **** 
1470:Drivers/STM32H7xx_HAL_Driver/Src/stm32h7xx_hal_rcc.c **** 
1471:Drivers/STM32H7xx_HAL_Driver/Src/stm32h7xx_hal_rcc.c **** /**
1472:Drivers/STM32H7xx_HAL_Driver/Src/stm32h7xx_hal_rcc.c ****   * @brief  Returns the PCLK1 frequency
1473:Drivers/STM32H7xx_HAL_Driver/Src/stm32h7xx_hal_rcc.c ****   * @note   Each time PCLK1 changes, this function must be called to update the
1474:Drivers/STM32H7xx_HAL_Driver/Src/stm32h7xx_hal_rcc.c ****   *         right PCLK1 value. Otherwise, any configuration based on this function will be incorrec
1475:Drivers/STM32H7xx_HAL_Driver/Src/stm32h7xx_hal_rcc.c ****   * @retval PCLK1 frequency
1476:Drivers/STM32H7xx_HAL_Driver/Src/stm32h7xx_hal_rcc.c ****   */
1477:Drivers/STM32H7xx_HAL_Driver/Src/stm32h7xx_hal_rcc.c **** uint32_t HAL_RCC_GetPCLK1Freq(void)
1478:Drivers/STM32H7xx_HAL_Driver/Src/stm32h7xx_hal_rcc.c **** {
 2888              		.loc 1 1478 1 is_stmt 1 view -0
 2889              		.cfi_startproc
 2890              		@ args = 0, pretend = 0, frame = 0
 2891              		@ frame_needed = 0, uses_anonymous_args = 0
 2892 0000 08B5     		push	{r3, lr}
 2893              	.LCFI16:
 2894              		.cfi_def_cfa_offset 8
 2895              		.cfi_offset 3, -8
 2896              		.cfi_offset 14, -4
1479:Drivers/STM32H7xx_HAL_Driver/Src/stm32h7xx_hal_rcc.c **** #if defined (RCC_D2CFGR_D2PPRE1)
1480:Drivers/STM32H7xx_HAL_Driver/Src/stm32h7xx_hal_rcc.c ****   /* Get HCLK source and Compute PCLK1 frequency ---------------------------*/
1481:Drivers/STM32H7xx_HAL_Driver/Src/stm32h7xx_hal_rcc.c ****   return (HAL_RCC_GetHCLKFreq() >> ((D1CorePrescTable[(RCC->D2CFGR & RCC_D2CFGR_D2PPRE1)>> RCC_D2CF
 2897              		.loc 1 1481 3 view .LVU941
 2898              		.loc 1 1481 11 is_stmt 0 view .LVU942
 2899 0002 FFF7FEFF 		bl	HAL_RCC_GetHCLKFreq
 2900              	.LVL201:
 2901              		.loc 1 1481 59 view .LVU943
 2902 0006 054B     		ldr	r3, .L240
 2903 0008 DB69     		ldr	r3, [r3, #28]
 2904              		.loc 1 1481 89 view .LVU944
ARM GAS  C:\Users\root\AppData\Local\Temp\ccvogEgx.s 			page 87


 2905 000a C3F30213 		ubfx	r3, r3, #4, #3
 2906              		.loc 1 1481 54 view .LVU945
 2907 000e 044A     		ldr	r2, .L240+4
 2908 0010 D35C     		ldrb	r3, [r2, r3]	@ zero_extendqisi2
 2909              		.loc 1 1481 117 view .LVU946
 2910 0012 03F01F03 		and	r3, r3, #31
1482:Drivers/STM32H7xx_HAL_Driver/Src/stm32h7xx_hal_rcc.c **** #else
1483:Drivers/STM32H7xx_HAL_Driver/Src/stm32h7xx_hal_rcc.c ****  /* Get HCLK source and Compute PCLK1 frequency ---------------------------*/
1484:Drivers/STM32H7xx_HAL_Driver/Src/stm32h7xx_hal_rcc.c ****   return (HAL_RCC_GetHCLKFreq() >> ((D1CorePrescTable[(RCC->CDCFGR2 & RCC_CDCFGR2_CDPPRE1)>> RCC_CD
1485:Drivers/STM32H7xx_HAL_Driver/Src/stm32h7xx_hal_rcc.c **** #endif
1486:Drivers/STM32H7xx_HAL_Driver/Src/stm32h7xx_hal_rcc.c **** }
 2911              		.loc 1 1486 1 view .LVU947
 2912 0016 D840     		lsrs	r0, r0, r3
 2913 0018 08BD     		pop	{r3, pc}
 2914              	.L241:
 2915 001a 00BF     		.align	2
 2916              	.L240:
 2917 001c 00440258 		.word	1476543488
 2918 0020 00000000 		.word	D1CorePrescTable
 2919              		.cfi_endproc
 2920              	.LFE149:
 2922              		.section	.text.HAL_RCC_GetPCLK2Freq,"ax",%progbits
 2923              		.align	1
 2924              		.global	HAL_RCC_GetPCLK2Freq
 2925              		.syntax unified
 2926              		.thumb
 2927              		.thumb_func
 2928              		.fpu fpv5-d16
 2930              	HAL_RCC_GetPCLK2Freq:
 2931              	.LFB150:
1487:Drivers/STM32H7xx_HAL_Driver/Src/stm32h7xx_hal_rcc.c **** 
1488:Drivers/STM32H7xx_HAL_Driver/Src/stm32h7xx_hal_rcc.c **** 
1489:Drivers/STM32H7xx_HAL_Driver/Src/stm32h7xx_hal_rcc.c **** /**
1490:Drivers/STM32H7xx_HAL_Driver/Src/stm32h7xx_hal_rcc.c ****   * @brief  Returns the PCLK2 frequency
1491:Drivers/STM32H7xx_HAL_Driver/Src/stm32h7xx_hal_rcc.c ****   * @note   Each time PCLK2 changes, this function must be called to update the
1492:Drivers/STM32H7xx_HAL_Driver/Src/stm32h7xx_hal_rcc.c ****   *         right PCLK2 value. Otherwise, any configuration based on this function will be incorrec
1493:Drivers/STM32H7xx_HAL_Driver/Src/stm32h7xx_hal_rcc.c ****   * @retval PCLK1 frequency
1494:Drivers/STM32H7xx_HAL_Driver/Src/stm32h7xx_hal_rcc.c ****   */
1495:Drivers/STM32H7xx_HAL_Driver/Src/stm32h7xx_hal_rcc.c **** uint32_t HAL_RCC_GetPCLK2Freq(void)
1496:Drivers/STM32H7xx_HAL_Driver/Src/stm32h7xx_hal_rcc.c **** {
 2932              		.loc 1 1496 1 is_stmt 1 view -0
 2933              		.cfi_startproc
 2934              		@ args = 0, pretend = 0, frame = 0
 2935              		@ frame_needed = 0, uses_anonymous_args = 0
 2936 0000 08B5     		push	{r3, lr}
 2937              	.LCFI17:
 2938              		.cfi_def_cfa_offset 8
 2939              		.cfi_offset 3, -8
 2940              		.cfi_offset 14, -4
1497:Drivers/STM32H7xx_HAL_Driver/Src/stm32h7xx_hal_rcc.c ****   /* Get HCLK source and Compute PCLK1 frequency ---------------------------*/
1498:Drivers/STM32H7xx_HAL_Driver/Src/stm32h7xx_hal_rcc.c **** #if defined(RCC_D2CFGR_D2PPRE2)
1499:Drivers/STM32H7xx_HAL_Driver/Src/stm32h7xx_hal_rcc.c ****   return (HAL_RCC_GetHCLKFreq() >> ((D1CorePrescTable[(RCC->D2CFGR & RCC_D2CFGR_D2PPRE2)>> RCC_D2CF
 2941              		.loc 1 1499 3 view .LVU949
 2942              		.loc 1 1499 11 is_stmt 0 view .LVU950
 2943 0002 FFF7FEFF 		bl	HAL_RCC_GetHCLKFreq
 2944              	.LVL202:
 2945              		.loc 1 1499 59 view .LVU951
ARM GAS  C:\Users\root\AppData\Local\Temp\ccvogEgx.s 			page 88


 2946 0006 054B     		ldr	r3, .L244
 2947 0008 DB69     		ldr	r3, [r3, #28]
 2948              		.loc 1 1499 89 view .LVU952
 2949 000a C3F30223 		ubfx	r3, r3, #8, #3
 2950              		.loc 1 1499 54 view .LVU953
 2951 000e 044A     		ldr	r2, .L244+4
 2952 0010 D35C     		ldrb	r3, [r2, r3]	@ zero_extendqisi2
 2953              		.loc 1 1499 117 view .LVU954
 2954 0012 03F01F03 		and	r3, r3, #31
1500:Drivers/STM32H7xx_HAL_Driver/Src/stm32h7xx_hal_rcc.c **** #else
1501:Drivers/STM32H7xx_HAL_Driver/Src/stm32h7xx_hal_rcc.c ****   return (HAL_RCC_GetHCLKFreq() >> ((D1CorePrescTable[(RCC->CDCFGR2 & RCC_CDCFGR2_CDPPRE2)>> RCC_CD
1502:Drivers/STM32H7xx_HAL_Driver/Src/stm32h7xx_hal_rcc.c **** #endif
1503:Drivers/STM32H7xx_HAL_Driver/Src/stm32h7xx_hal_rcc.c **** }
 2955              		.loc 1 1503 1 view .LVU955
 2956 0016 D840     		lsrs	r0, r0, r3
 2957 0018 08BD     		pop	{r3, pc}
 2958              	.L245:
 2959 001a 00BF     		.align	2
 2960              	.L244:
 2961 001c 00440258 		.word	1476543488
 2962 0020 00000000 		.word	D1CorePrescTable
 2963              		.cfi_endproc
 2964              	.LFE150:
 2966              		.section	.text.HAL_RCC_GetOscConfig,"ax",%progbits
 2967              		.align	1
 2968              		.global	HAL_RCC_GetOscConfig
 2969              		.syntax unified
 2970              		.thumb
 2971              		.thumb_func
 2972              		.fpu fpv5-d16
 2974              	HAL_RCC_GetOscConfig:
 2975              	.LVL203:
 2976              	.LFB151:
1504:Drivers/STM32H7xx_HAL_Driver/Src/stm32h7xx_hal_rcc.c **** 
1505:Drivers/STM32H7xx_HAL_Driver/Src/stm32h7xx_hal_rcc.c **** /**
1506:Drivers/STM32H7xx_HAL_Driver/Src/stm32h7xx_hal_rcc.c ****   * @brief  Configures the RCC_OscInitStruct according to the internal
1507:Drivers/STM32H7xx_HAL_Driver/Src/stm32h7xx_hal_rcc.c ****   * RCC configuration registers.
1508:Drivers/STM32H7xx_HAL_Driver/Src/stm32h7xx_hal_rcc.c ****   * @param  RCC_OscInitStruct: pointer to an RCC_OscInitTypeDef structure that
1509:Drivers/STM32H7xx_HAL_Driver/Src/stm32h7xx_hal_rcc.c ****   * will be configured.
1510:Drivers/STM32H7xx_HAL_Driver/Src/stm32h7xx_hal_rcc.c ****   * @retval None
1511:Drivers/STM32H7xx_HAL_Driver/Src/stm32h7xx_hal_rcc.c ****   */
1512:Drivers/STM32H7xx_HAL_Driver/Src/stm32h7xx_hal_rcc.c **** void HAL_RCC_GetOscConfig(RCC_OscInitTypeDef  *RCC_OscInitStruct)
1513:Drivers/STM32H7xx_HAL_Driver/Src/stm32h7xx_hal_rcc.c **** {
 2977              		.loc 1 1513 1 is_stmt 1 view -0
 2978              		.cfi_startproc
 2979              		@ args = 0, pretend = 0, frame = 0
 2980              		@ frame_needed = 0, uses_anonymous_args = 0
 2981              		.loc 1 1513 1 is_stmt 0 view .LVU957
 2982 0000 10B5     		push	{r4, lr}
 2983              	.LCFI18:
 2984              		.cfi_def_cfa_offset 8
 2985              		.cfi_offset 4, -8
 2986              		.cfi_offset 14, -4
 2987 0002 0446     		mov	r4, r0
1514:Drivers/STM32H7xx_HAL_Driver/Src/stm32h7xx_hal_rcc.c ****   /* Set all possible values for the Oscillator type parameter ---------------*/
1515:Drivers/STM32H7xx_HAL_Driver/Src/stm32h7xx_hal_rcc.c ****   RCC_OscInitStruct->OscillatorType = RCC_OSCILLATORTYPE_HSE | RCC_OSCILLATORTYPE_HSI | RCC_OSCILLA
 2988              		.loc 1 1515 3 is_stmt 1 view .LVU958
ARM GAS  C:\Users\root\AppData\Local\Temp\ccvogEgx.s 			page 89


 2989              		.loc 1 1515 37 is_stmt 0 view .LVU959
 2990 0004 3F23     		movs	r3, #63
 2991 0006 0360     		str	r3, [r0]
1516:Drivers/STM32H7xx_HAL_Driver/Src/stm32h7xx_hal_rcc.c ****                                       RCC_OSCILLATORTYPE_LSE | RCC_OSCILLATORTYPE_LSI| RCC_OSCILLAT
1517:Drivers/STM32H7xx_HAL_Driver/Src/stm32h7xx_hal_rcc.c **** 
1518:Drivers/STM32H7xx_HAL_Driver/Src/stm32h7xx_hal_rcc.c ****   /* Get the HSE configuration -----------------------------------------------*/
1519:Drivers/STM32H7xx_HAL_Driver/Src/stm32h7xx_hal_rcc.c **** #if defined(RCC_CR_HSEEXT)
1520:Drivers/STM32H7xx_HAL_Driver/Src/stm32h7xx_hal_rcc.c ****   if((RCC->CR &(RCC_CR_HSEBYP | RCC_CR_HSEEXT)) == RCC_CR_HSEBYP)
1521:Drivers/STM32H7xx_HAL_Driver/Src/stm32h7xx_hal_rcc.c ****   {
1522:Drivers/STM32H7xx_HAL_Driver/Src/stm32h7xx_hal_rcc.c ****     RCC_OscInitStruct->HSEState = RCC_HSE_BYPASS;
1523:Drivers/STM32H7xx_HAL_Driver/Src/stm32h7xx_hal_rcc.c ****   }
1524:Drivers/STM32H7xx_HAL_Driver/Src/stm32h7xx_hal_rcc.c ****   else if((RCC->CR &(RCC_CR_HSEBYP | RCC_CR_HSEEXT)) == (RCC_CR_HSEBYP | RCC_CR_HSEEXT))
1525:Drivers/STM32H7xx_HAL_Driver/Src/stm32h7xx_hal_rcc.c ****   {
1526:Drivers/STM32H7xx_HAL_Driver/Src/stm32h7xx_hal_rcc.c ****     RCC_OscInitStruct->HSEState = RCC_HSE_BYPASS_DIGITAL;
1527:Drivers/STM32H7xx_HAL_Driver/Src/stm32h7xx_hal_rcc.c ****   }
1528:Drivers/STM32H7xx_HAL_Driver/Src/stm32h7xx_hal_rcc.c ****   else if((RCC->CR &RCC_CR_HSEON) == RCC_CR_HSEON)
1529:Drivers/STM32H7xx_HAL_Driver/Src/stm32h7xx_hal_rcc.c ****   {
1530:Drivers/STM32H7xx_HAL_Driver/Src/stm32h7xx_hal_rcc.c ****     RCC_OscInitStruct->HSEState = RCC_HSE_ON;
1531:Drivers/STM32H7xx_HAL_Driver/Src/stm32h7xx_hal_rcc.c ****   }
1532:Drivers/STM32H7xx_HAL_Driver/Src/stm32h7xx_hal_rcc.c ****   else
1533:Drivers/STM32H7xx_HAL_Driver/Src/stm32h7xx_hal_rcc.c ****   {
1534:Drivers/STM32H7xx_HAL_Driver/Src/stm32h7xx_hal_rcc.c ****     RCC_OscInitStruct->HSEState = RCC_HSE_OFF;
1535:Drivers/STM32H7xx_HAL_Driver/Src/stm32h7xx_hal_rcc.c ****   }
1536:Drivers/STM32H7xx_HAL_Driver/Src/stm32h7xx_hal_rcc.c **** #else
1537:Drivers/STM32H7xx_HAL_Driver/Src/stm32h7xx_hal_rcc.c ****   if((RCC->CR &RCC_CR_HSEBYP) == RCC_CR_HSEBYP)
 2992              		.loc 1 1537 3 is_stmt 1 view .LVU960
 2993              		.loc 1 1537 10 is_stmt 0 view .LVU961
 2994 0008 514B     		ldr	r3, .L268
 2995 000a 1B68     		ldr	r3, [r3]
 2996              		.loc 1 1537 5 view .LVU962
 2997 000c 13F4802F 		tst	r3, #262144
 2998 0010 6CD0     		beq	.L247
1538:Drivers/STM32H7xx_HAL_Driver/Src/stm32h7xx_hal_rcc.c ****   {
1539:Drivers/STM32H7xx_HAL_Driver/Src/stm32h7xx_hal_rcc.c ****     RCC_OscInitStruct->HSEState = RCC_HSE_BYPASS;
 2999              		.loc 1 1539 5 is_stmt 1 view .LVU963
 3000              		.loc 1 1539 33 is_stmt 0 view .LVU964
 3001 0012 4FF4A023 		mov	r3, #327680
 3002 0016 4360     		str	r3, [r0, #4]
 3003              	.L248:
1540:Drivers/STM32H7xx_HAL_Driver/Src/stm32h7xx_hal_rcc.c ****   }
1541:Drivers/STM32H7xx_HAL_Driver/Src/stm32h7xx_hal_rcc.c ****   else if((RCC->CR &RCC_CR_HSEON) == RCC_CR_HSEON)
1542:Drivers/STM32H7xx_HAL_Driver/Src/stm32h7xx_hal_rcc.c ****   {
1543:Drivers/STM32H7xx_HAL_Driver/Src/stm32h7xx_hal_rcc.c ****     RCC_OscInitStruct->HSEState = RCC_HSE_ON;
1544:Drivers/STM32H7xx_HAL_Driver/Src/stm32h7xx_hal_rcc.c ****   }
1545:Drivers/STM32H7xx_HAL_Driver/Src/stm32h7xx_hal_rcc.c ****   else
1546:Drivers/STM32H7xx_HAL_Driver/Src/stm32h7xx_hal_rcc.c ****   {
1547:Drivers/STM32H7xx_HAL_Driver/Src/stm32h7xx_hal_rcc.c ****     RCC_OscInitStruct->HSEState = RCC_HSE_OFF;
1548:Drivers/STM32H7xx_HAL_Driver/Src/stm32h7xx_hal_rcc.c ****   }
1549:Drivers/STM32H7xx_HAL_Driver/Src/stm32h7xx_hal_rcc.c **** #endif /* RCC_CR_HSEEXT */
1550:Drivers/STM32H7xx_HAL_Driver/Src/stm32h7xx_hal_rcc.c **** 
1551:Drivers/STM32H7xx_HAL_Driver/Src/stm32h7xx_hal_rcc.c ****    /* Get the CSI configuration -----------------------------------------------*/
1552:Drivers/STM32H7xx_HAL_Driver/Src/stm32h7xx_hal_rcc.c ****   if((RCC->CR &RCC_CR_CSION) == RCC_CR_CSION)
 3004              		.loc 1 1552 3 is_stmt 1 view .LVU965
 3005              		.loc 1 1552 10 is_stmt 0 view .LVU966
 3006 0018 4D4B     		ldr	r3, .L268
 3007 001a 1B68     		ldr	r3, [r3]
 3008              		.loc 1 1552 5 view .LVU967
ARM GAS  C:\Users\root\AppData\Local\Temp\ccvogEgx.s 			page 90


 3009 001c 13F0800F 		tst	r3, #128
 3010 0020 70D0     		beq	.L250
1553:Drivers/STM32H7xx_HAL_Driver/Src/stm32h7xx_hal_rcc.c ****   {
1554:Drivers/STM32H7xx_HAL_Driver/Src/stm32h7xx_hal_rcc.c ****     RCC_OscInitStruct->CSIState = RCC_CSI_ON;
 3011              		.loc 1 1554 5 is_stmt 1 view .LVU968
 3012              		.loc 1 1554 33 is_stmt 0 view .LVU969
 3013 0022 8023     		movs	r3, #128
 3014 0024 E361     		str	r3, [r4, #28]
 3015              	.L251:
1555:Drivers/STM32H7xx_HAL_Driver/Src/stm32h7xx_hal_rcc.c ****   }
1556:Drivers/STM32H7xx_HAL_Driver/Src/stm32h7xx_hal_rcc.c ****   else
1557:Drivers/STM32H7xx_HAL_Driver/Src/stm32h7xx_hal_rcc.c ****   {
1558:Drivers/STM32H7xx_HAL_Driver/Src/stm32h7xx_hal_rcc.c ****     RCC_OscInitStruct->CSIState = RCC_CSI_OFF;
1559:Drivers/STM32H7xx_HAL_Driver/Src/stm32h7xx_hal_rcc.c ****   }
1560:Drivers/STM32H7xx_HAL_Driver/Src/stm32h7xx_hal_rcc.c **** 
1561:Drivers/STM32H7xx_HAL_Driver/Src/stm32h7xx_hal_rcc.c **** #if defined(RCC_VER_X)
1562:Drivers/STM32H7xx_HAL_Driver/Src/stm32h7xx_hal_rcc.c ****   if(HAL_GetREVID() <= REV_ID_Y)
 3016              		.loc 1 1562 3 is_stmt 1 view .LVU970
 3017              		.loc 1 1562 6 is_stmt 0 view .LVU971
 3018 0026 FFF7FEFF 		bl	HAL_GetREVID
 3019              	.LVL204:
 3020              		.loc 1 1562 5 view .LVU972
 3021 002a 41F20303 		movw	r3, #4099
 3022 002e 9842     		cmp	r0, r3
 3023 0030 6BD8     		bhi	.L252
1563:Drivers/STM32H7xx_HAL_Driver/Src/stm32h7xx_hal_rcc.c ****   {
1564:Drivers/STM32H7xx_HAL_Driver/Src/stm32h7xx_hal_rcc.c ****     RCC_OscInitStruct->CSICalibrationValue = (uint32_t)(READ_BIT(RCC->HSICFGR, HAL_RCC_REV_Y_CSITRI
 3024              		.loc 1 1564 5 is_stmt 1 view .LVU973
 3025              		.loc 1 1564 57 is_stmt 0 view .LVU974
 3026 0032 474B     		ldr	r3, .L268
 3027 0034 5B68     		ldr	r3, [r3, #4]
 3028              		.loc 1 1564 46 view .LVU975
 3029 0036 C3F38463 		ubfx	r3, r3, #26, #5
 3030              		.loc 1 1564 44 view .LVU976
 3031 003a 2362     		str	r3, [r4, #32]
 3032              	.L253:
1565:Drivers/STM32H7xx_HAL_Driver/Src/stm32h7xx_hal_rcc.c ****   }
1566:Drivers/STM32H7xx_HAL_Driver/Src/stm32h7xx_hal_rcc.c ****   else
1567:Drivers/STM32H7xx_HAL_Driver/Src/stm32h7xx_hal_rcc.c ****   {
1568:Drivers/STM32H7xx_HAL_Driver/Src/stm32h7xx_hal_rcc.c ****     RCC_OscInitStruct->CSICalibrationValue = (uint32_t)(READ_BIT(RCC->CSICFGR, RCC_CSICFGR_CSITRIM)
1569:Drivers/STM32H7xx_HAL_Driver/Src/stm32h7xx_hal_rcc.c ****   }
1570:Drivers/STM32H7xx_HAL_Driver/Src/stm32h7xx_hal_rcc.c **** #else
1571:Drivers/STM32H7xx_HAL_Driver/Src/stm32h7xx_hal_rcc.c ****  RCC_OscInitStruct->CSICalibrationValue = (uint32_t)(READ_BIT(RCC->CSICFGR, RCC_CSICFGR_CSITRIM) >>
1572:Drivers/STM32H7xx_HAL_Driver/Src/stm32h7xx_hal_rcc.c **** #endif /*RCC_VER_X*/
1573:Drivers/STM32H7xx_HAL_Driver/Src/stm32h7xx_hal_rcc.c **** 
1574:Drivers/STM32H7xx_HAL_Driver/Src/stm32h7xx_hal_rcc.c ****   /* Get the HSI configuration -----------------------------------------------*/
1575:Drivers/STM32H7xx_HAL_Driver/Src/stm32h7xx_hal_rcc.c ****   if((RCC->CR &RCC_CR_HSION) == RCC_CR_HSION)
 3033              		.loc 1 1575 3 is_stmt 1 view .LVU977
 3034              		.loc 1 1575 10 is_stmt 0 view .LVU978
 3035 003c 444B     		ldr	r3, .L268
 3036 003e 1B68     		ldr	r3, [r3]
 3037              		.loc 1 1575 5 view .LVU979
 3038 0040 13F0010F 		tst	r3, #1
 3039 0044 67D0     		beq	.L254
1576:Drivers/STM32H7xx_HAL_Driver/Src/stm32h7xx_hal_rcc.c ****   {
1577:Drivers/STM32H7xx_HAL_Driver/Src/stm32h7xx_hal_rcc.c ****     RCC_OscInitStruct->HSIState = RCC_HSI_ON;
 3040              		.loc 1 1577 5 is_stmt 1 view .LVU980
ARM GAS  C:\Users\root\AppData\Local\Temp\ccvogEgx.s 			page 91


 3041              		.loc 1 1577 33 is_stmt 0 view .LVU981
 3042 0046 0123     		movs	r3, #1
 3043 0048 E360     		str	r3, [r4, #12]
 3044              	.L255:
1578:Drivers/STM32H7xx_HAL_Driver/Src/stm32h7xx_hal_rcc.c ****   }
1579:Drivers/STM32H7xx_HAL_Driver/Src/stm32h7xx_hal_rcc.c ****   else
1580:Drivers/STM32H7xx_HAL_Driver/Src/stm32h7xx_hal_rcc.c ****   {
1581:Drivers/STM32H7xx_HAL_Driver/Src/stm32h7xx_hal_rcc.c ****     RCC_OscInitStruct->HSIState = RCC_HSI_OFF;
1582:Drivers/STM32H7xx_HAL_Driver/Src/stm32h7xx_hal_rcc.c ****   }
1583:Drivers/STM32H7xx_HAL_Driver/Src/stm32h7xx_hal_rcc.c **** 
1584:Drivers/STM32H7xx_HAL_Driver/Src/stm32h7xx_hal_rcc.c **** #if defined(RCC_VER_X)
1585:Drivers/STM32H7xx_HAL_Driver/Src/stm32h7xx_hal_rcc.c ****   if(HAL_GetREVID() <= REV_ID_Y)
 3045              		.loc 1 1585 3 is_stmt 1 view .LVU982
 3046              		.loc 1 1585 6 is_stmt 0 view .LVU983
 3047 004a FFF7FEFF 		bl	HAL_GetREVID
 3048              	.LVL205:
 3049              		.loc 1 1585 5 view .LVU984
 3050 004e 41F20303 		movw	r3, #4099
 3051 0052 9842     		cmp	r0, r3
 3052 0054 62D8     		bhi	.L256
1586:Drivers/STM32H7xx_HAL_Driver/Src/stm32h7xx_hal_rcc.c ****   {
1587:Drivers/STM32H7xx_HAL_Driver/Src/stm32h7xx_hal_rcc.c ****     RCC_OscInitStruct->HSICalibrationValue = (uint32_t)(READ_BIT(RCC->HSICFGR, HAL_RCC_REV_Y_HSITRI
 3053              		.loc 1 1587 5 is_stmt 1 view .LVU985
 3054              		.loc 1 1587 57 is_stmt 0 view .LVU986
 3055 0056 3E4B     		ldr	r3, .L268
 3056 0058 5B68     		ldr	r3, [r3, #4]
 3057              		.loc 1 1587 46 view .LVU987
 3058 005a C3F30533 		ubfx	r3, r3, #12, #6
 3059              		.loc 1 1587 44 view .LVU988
 3060 005e 2361     		str	r3, [r4, #16]
 3061              	.L257:
1588:Drivers/STM32H7xx_HAL_Driver/Src/stm32h7xx_hal_rcc.c ****   }
1589:Drivers/STM32H7xx_HAL_Driver/Src/stm32h7xx_hal_rcc.c ****   else
1590:Drivers/STM32H7xx_HAL_Driver/Src/stm32h7xx_hal_rcc.c ****   {
1591:Drivers/STM32H7xx_HAL_Driver/Src/stm32h7xx_hal_rcc.c ****     RCC_OscInitStruct->HSICalibrationValue = (uint32_t)(READ_BIT(RCC->HSICFGR, RCC_HSICFGR_HSITRIM)
1592:Drivers/STM32H7xx_HAL_Driver/Src/stm32h7xx_hal_rcc.c ****   }
1593:Drivers/STM32H7xx_HAL_Driver/Src/stm32h7xx_hal_rcc.c **** #else
1594:Drivers/STM32H7xx_HAL_Driver/Src/stm32h7xx_hal_rcc.c ****     RCC_OscInitStruct->HSICalibrationValue = (uint32_t)(READ_BIT(RCC->HSICFGR, RCC_HSICFGR_HSITRIM)
1595:Drivers/STM32H7xx_HAL_Driver/Src/stm32h7xx_hal_rcc.c **** #endif /*RCC_VER_X*/
1596:Drivers/STM32H7xx_HAL_Driver/Src/stm32h7xx_hal_rcc.c **** 
1597:Drivers/STM32H7xx_HAL_Driver/Src/stm32h7xx_hal_rcc.c ****   /* Get the LSE configuration -----------------------------------------------*/
1598:Drivers/STM32H7xx_HAL_Driver/Src/stm32h7xx_hal_rcc.c **** #if defined(RCC_BDCR_LSEEXT)
1599:Drivers/STM32H7xx_HAL_Driver/Src/stm32h7xx_hal_rcc.c ****   if((RCC->BDCR &(RCC_BDCR_LSEBYP|RCC_BDCR_LSEEXT)) == RCC_BDCR_LSEBYP)
1600:Drivers/STM32H7xx_HAL_Driver/Src/stm32h7xx_hal_rcc.c ****   {
1601:Drivers/STM32H7xx_HAL_Driver/Src/stm32h7xx_hal_rcc.c ****     RCC_OscInitStruct->LSEState = RCC_LSE_BYPASS;
1602:Drivers/STM32H7xx_HAL_Driver/Src/stm32h7xx_hal_rcc.c ****   }
1603:Drivers/STM32H7xx_HAL_Driver/Src/stm32h7xx_hal_rcc.c ****   else if((RCC->BDCR &(RCC_BDCR_LSEBYP|RCC_BDCR_LSEEXT)) == (RCC_BDCR_LSEBYP|RCC_BDCR_LSEEXT))
1604:Drivers/STM32H7xx_HAL_Driver/Src/stm32h7xx_hal_rcc.c ****   {
1605:Drivers/STM32H7xx_HAL_Driver/Src/stm32h7xx_hal_rcc.c ****     RCC_OscInitStruct->LSEState = RCC_LSE_BYPASS_DIGITAL;
1606:Drivers/STM32H7xx_HAL_Driver/Src/stm32h7xx_hal_rcc.c ****   }
1607:Drivers/STM32H7xx_HAL_Driver/Src/stm32h7xx_hal_rcc.c ****   else if((RCC->BDCR &RCC_BDCR_LSEON) == RCC_BDCR_LSEON)
1608:Drivers/STM32H7xx_HAL_Driver/Src/stm32h7xx_hal_rcc.c ****   {
1609:Drivers/STM32H7xx_HAL_Driver/Src/stm32h7xx_hal_rcc.c ****     RCC_OscInitStruct->LSEState = RCC_LSE_ON;
1610:Drivers/STM32H7xx_HAL_Driver/Src/stm32h7xx_hal_rcc.c ****   }
1611:Drivers/STM32H7xx_HAL_Driver/Src/stm32h7xx_hal_rcc.c ****   else
1612:Drivers/STM32H7xx_HAL_Driver/Src/stm32h7xx_hal_rcc.c ****   {
1613:Drivers/STM32H7xx_HAL_Driver/Src/stm32h7xx_hal_rcc.c ****     RCC_OscInitStruct->LSEState = RCC_LSE_OFF;
ARM GAS  C:\Users\root\AppData\Local\Temp\ccvogEgx.s 			page 92


1614:Drivers/STM32H7xx_HAL_Driver/Src/stm32h7xx_hal_rcc.c ****   }
1615:Drivers/STM32H7xx_HAL_Driver/Src/stm32h7xx_hal_rcc.c **** #else
1616:Drivers/STM32H7xx_HAL_Driver/Src/stm32h7xx_hal_rcc.c ****   if((RCC->BDCR &RCC_BDCR_LSEBYP) == RCC_BDCR_LSEBYP)
 3062              		.loc 1 1616 3 is_stmt 1 view .LVU989
 3063              		.loc 1 1616 10 is_stmt 0 view .LVU990
 3064 0060 3B4B     		ldr	r3, .L268
 3065 0062 1B6F     		ldr	r3, [r3, #112]
 3066              		.loc 1 1616 5 view .LVU991
 3067 0064 13F0040F 		tst	r3, #4
 3068 0068 5ED0     		beq	.L258
1617:Drivers/STM32H7xx_HAL_Driver/Src/stm32h7xx_hal_rcc.c ****   {
1618:Drivers/STM32H7xx_HAL_Driver/Src/stm32h7xx_hal_rcc.c ****     RCC_OscInitStruct->LSEState = RCC_LSE_BYPASS;
 3069              		.loc 1 1618 5 is_stmt 1 view .LVU992
 3070              		.loc 1 1618 33 is_stmt 0 view .LVU993
 3071 006a 0523     		movs	r3, #5
 3072 006c A360     		str	r3, [r4, #8]
 3073              	.L259:
1619:Drivers/STM32H7xx_HAL_Driver/Src/stm32h7xx_hal_rcc.c ****   }
1620:Drivers/STM32H7xx_HAL_Driver/Src/stm32h7xx_hal_rcc.c ****   else if((RCC->BDCR &RCC_BDCR_LSEON) == RCC_BDCR_LSEON)
1621:Drivers/STM32H7xx_HAL_Driver/Src/stm32h7xx_hal_rcc.c ****   {
1622:Drivers/STM32H7xx_HAL_Driver/Src/stm32h7xx_hal_rcc.c ****     RCC_OscInitStruct->LSEState = RCC_LSE_ON;
1623:Drivers/STM32H7xx_HAL_Driver/Src/stm32h7xx_hal_rcc.c ****   }
1624:Drivers/STM32H7xx_HAL_Driver/Src/stm32h7xx_hal_rcc.c ****   else
1625:Drivers/STM32H7xx_HAL_Driver/Src/stm32h7xx_hal_rcc.c ****   {
1626:Drivers/STM32H7xx_HAL_Driver/Src/stm32h7xx_hal_rcc.c ****     RCC_OscInitStruct->LSEState = RCC_LSE_OFF;
1627:Drivers/STM32H7xx_HAL_Driver/Src/stm32h7xx_hal_rcc.c ****   }
1628:Drivers/STM32H7xx_HAL_Driver/Src/stm32h7xx_hal_rcc.c **** #endif /* RCC_BDCR_LSEEXT */
1629:Drivers/STM32H7xx_HAL_Driver/Src/stm32h7xx_hal_rcc.c **** 
1630:Drivers/STM32H7xx_HAL_Driver/Src/stm32h7xx_hal_rcc.c ****   /* Get the LSI configuration -----------------------------------------------*/
1631:Drivers/STM32H7xx_HAL_Driver/Src/stm32h7xx_hal_rcc.c ****   if((RCC->CSR &RCC_CSR_LSION) == RCC_CSR_LSION)
 3074              		.loc 1 1631 3 is_stmt 1 view .LVU994
 3075              		.loc 1 1631 10 is_stmt 0 view .LVU995
 3076 006e 384B     		ldr	r3, .L268
 3077 0070 5B6F     		ldr	r3, [r3, #116]
 3078              		.loc 1 1631 5 view .LVU996
 3079 0072 13F0010F 		tst	r3, #1
 3080 0076 62D0     		beq	.L261
1632:Drivers/STM32H7xx_HAL_Driver/Src/stm32h7xx_hal_rcc.c ****   {
1633:Drivers/STM32H7xx_HAL_Driver/Src/stm32h7xx_hal_rcc.c ****     RCC_OscInitStruct->LSIState = RCC_LSI_ON;
 3081              		.loc 1 1633 5 is_stmt 1 view .LVU997
 3082              		.loc 1 1633 33 is_stmt 0 view .LVU998
 3083 0078 0123     		movs	r3, #1
 3084 007a 6361     		str	r3, [r4, #20]
 3085              	.L262:
1634:Drivers/STM32H7xx_HAL_Driver/Src/stm32h7xx_hal_rcc.c ****   }
1635:Drivers/STM32H7xx_HAL_Driver/Src/stm32h7xx_hal_rcc.c ****   else
1636:Drivers/STM32H7xx_HAL_Driver/Src/stm32h7xx_hal_rcc.c ****   {
1637:Drivers/STM32H7xx_HAL_Driver/Src/stm32h7xx_hal_rcc.c ****     RCC_OscInitStruct->LSIState = RCC_LSI_OFF;
1638:Drivers/STM32H7xx_HAL_Driver/Src/stm32h7xx_hal_rcc.c ****   }
1639:Drivers/STM32H7xx_HAL_Driver/Src/stm32h7xx_hal_rcc.c **** 
1640:Drivers/STM32H7xx_HAL_Driver/Src/stm32h7xx_hal_rcc.c ****   /* Get the HSI48 configuration ---------------------------------------------*/
1641:Drivers/STM32H7xx_HAL_Driver/Src/stm32h7xx_hal_rcc.c ****   if((RCC->CR & RCC_CR_HSI48ON) == RCC_CR_HSI48ON)
 3086              		.loc 1 1641 3 is_stmt 1 view .LVU999
 3087              		.loc 1 1641 10 is_stmt 0 view .LVU1000
 3088 007c 344B     		ldr	r3, .L268
 3089 007e 1B68     		ldr	r3, [r3]
 3090              		.loc 1 1641 5 view .LVU1001
ARM GAS  C:\Users\root\AppData\Local\Temp\ccvogEgx.s 			page 93


 3091 0080 13F4805F 		tst	r3, #4096
 3092 0084 5ED0     		beq	.L263
1642:Drivers/STM32H7xx_HAL_Driver/Src/stm32h7xx_hal_rcc.c ****   {
1643:Drivers/STM32H7xx_HAL_Driver/Src/stm32h7xx_hal_rcc.c ****     RCC_OscInitStruct->HSI48State = RCC_HSI48_ON;
 3093              		.loc 1 1643 5 is_stmt 1 view .LVU1002
 3094              		.loc 1 1643 35 is_stmt 0 view .LVU1003
 3095 0086 0123     		movs	r3, #1
 3096 0088 A361     		str	r3, [r4, #24]
 3097              	.L264:
1644:Drivers/STM32H7xx_HAL_Driver/Src/stm32h7xx_hal_rcc.c ****   }
1645:Drivers/STM32H7xx_HAL_Driver/Src/stm32h7xx_hal_rcc.c ****   else
1646:Drivers/STM32H7xx_HAL_Driver/Src/stm32h7xx_hal_rcc.c ****   {
1647:Drivers/STM32H7xx_HAL_Driver/Src/stm32h7xx_hal_rcc.c ****     RCC_OscInitStruct->HSI48State = RCC_HSI48_OFF;
1648:Drivers/STM32H7xx_HAL_Driver/Src/stm32h7xx_hal_rcc.c ****   }
1649:Drivers/STM32H7xx_HAL_Driver/Src/stm32h7xx_hal_rcc.c **** 
1650:Drivers/STM32H7xx_HAL_Driver/Src/stm32h7xx_hal_rcc.c ****   /* Get the PLL configuration -----------------------------------------------*/
1651:Drivers/STM32H7xx_HAL_Driver/Src/stm32h7xx_hal_rcc.c ****   if((RCC->CR &RCC_CR_PLLON) == RCC_CR_PLLON)
 3098              		.loc 1 1651 3 is_stmt 1 view .LVU1004
 3099              		.loc 1 1651 10 is_stmt 0 view .LVU1005
 3100 008a 314B     		ldr	r3, .L268
 3101 008c 1B68     		ldr	r3, [r3]
 3102              		.loc 1 1651 5 view .LVU1006
 3103 008e 13F0807F 		tst	r3, #16777216
 3104 0092 5AD0     		beq	.L265
1652:Drivers/STM32H7xx_HAL_Driver/Src/stm32h7xx_hal_rcc.c ****   {
1653:Drivers/STM32H7xx_HAL_Driver/Src/stm32h7xx_hal_rcc.c ****     RCC_OscInitStruct->PLL.PLLState = RCC_PLL_ON;
 3105              		.loc 1 1653 5 is_stmt 1 view .LVU1007
 3106              		.loc 1 1653 37 is_stmt 0 view .LVU1008
 3107 0094 0223     		movs	r3, #2
 3108 0096 6362     		str	r3, [r4, #36]
 3109              	.L266:
1654:Drivers/STM32H7xx_HAL_Driver/Src/stm32h7xx_hal_rcc.c ****   }
1655:Drivers/STM32H7xx_HAL_Driver/Src/stm32h7xx_hal_rcc.c ****   else
1656:Drivers/STM32H7xx_HAL_Driver/Src/stm32h7xx_hal_rcc.c ****   {
1657:Drivers/STM32H7xx_HAL_Driver/Src/stm32h7xx_hal_rcc.c ****     RCC_OscInitStruct->PLL.PLLState = RCC_PLL_OFF;
1658:Drivers/STM32H7xx_HAL_Driver/Src/stm32h7xx_hal_rcc.c ****   }
1659:Drivers/STM32H7xx_HAL_Driver/Src/stm32h7xx_hal_rcc.c ****   RCC_OscInitStruct->PLL.PLLSource = (uint32_t)(RCC->PLLCKSELR & RCC_PLLCKSELR_PLLSRC);
 3110              		.loc 1 1659 3 is_stmt 1 view .LVU1009
 3111              		.loc 1 1659 52 is_stmt 0 view .LVU1010
 3112 0098 2D4B     		ldr	r3, .L268
 3113 009a 9A6A     		ldr	r2, [r3, #40]
 3114              		.loc 1 1659 38 view .LVU1011
 3115 009c 02F00302 		and	r2, r2, #3
 3116              		.loc 1 1659 36 view .LVU1012
 3117 00a0 A262     		str	r2, [r4, #40]
1660:Drivers/STM32H7xx_HAL_Driver/Src/stm32h7xx_hal_rcc.c ****   RCC_OscInitStruct->PLL.PLLM = (uint32_t)((RCC->PLLCKSELR & RCC_PLLCKSELR_DIVM1)>> RCC_PLLCKSELR_D
 3118              		.loc 1 1660 3 is_stmt 1 view .LVU1013
 3119              		.loc 1 1660 48 is_stmt 0 view .LVU1014
 3120 00a2 9A6A     		ldr	r2, [r3, #40]
 3121              		.loc 1 1660 33 view .LVU1015
 3122 00a4 C2F30512 		ubfx	r2, r2, #4, #6
 3123              		.loc 1 1660 31 view .LVU1016
 3124 00a8 E262     		str	r2, [r4, #44]
1661:Drivers/STM32H7xx_HAL_Driver/Src/stm32h7xx_hal_rcc.c ****   RCC_OscInitStruct->PLL.PLLN = (uint32_t)((RCC->PLL1DIVR & RCC_PLL1DIVR_N1) >> RCC_PLL1DIVR_N1_Pos
 3125              		.loc 1 1661 3 is_stmt 1 view .LVU1017
 3126              		.loc 1 1661 48 is_stmt 0 view .LVU1018
 3127 00aa 1A6B     		ldr	r2, [r3, #48]
ARM GAS  C:\Users\root\AppData\Local\Temp\ccvogEgx.s 			page 94


 3128              		.loc 1 1661 33 view .LVU1019
 3129 00ac C2F30802 		ubfx	r2, r2, #0, #9
 3130              		.loc 1 1661 101 view .LVU1020
 3131 00b0 0132     		adds	r2, r2, #1
 3132              		.loc 1 1661 31 view .LVU1021
 3133 00b2 2263     		str	r2, [r4, #48]
1662:Drivers/STM32H7xx_HAL_Driver/Src/stm32h7xx_hal_rcc.c ****   RCC_OscInitStruct->PLL.PLLR = (uint32_t)((RCC->PLL1DIVR & RCC_PLL1DIVR_R1) >> RCC_PLL1DIVR_R1_Pos
 3134              		.loc 1 1662 3 is_stmt 1 view .LVU1022
 3135              		.loc 1 1662 48 is_stmt 0 view .LVU1023
 3136 00b4 1A6B     		ldr	r2, [r3, #48]
 3137              		.loc 1 1662 33 view .LVU1024
 3138 00b6 C2F30662 		ubfx	r2, r2, #24, #7
 3139              		.loc 1 1662 101 view .LVU1025
 3140 00ba 0132     		adds	r2, r2, #1
 3141              		.loc 1 1662 31 view .LVU1026
 3142 00bc E263     		str	r2, [r4, #60]
1663:Drivers/STM32H7xx_HAL_Driver/Src/stm32h7xx_hal_rcc.c ****   RCC_OscInitStruct->PLL.PLLP = (uint32_t)((RCC->PLL1DIVR & RCC_PLL1DIVR_P1) >> RCC_PLL1DIVR_P1_Pos
 3143              		.loc 1 1663 3 is_stmt 1 view .LVU1027
 3144              		.loc 1 1663 48 is_stmt 0 view .LVU1028
 3145 00be 1A6B     		ldr	r2, [r3, #48]
 3146              		.loc 1 1663 33 view .LVU1029
 3147 00c0 C2F34622 		ubfx	r2, r2, #9, #7
 3148              		.loc 1 1663 101 view .LVU1030
 3149 00c4 0132     		adds	r2, r2, #1
 3150              		.loc 1 1663 31 view .LVU1031
 3151 00c6 6263     		str	r2, [r4, #52]
1664:Drivers/STM32H7xx_HAL_Driver/Src/stm32h7xx_hal_rcc.c ****   RCC_OscInitStruct->PLL.PLLQ = (uint32_t)((RCC->PLL1DIVR & RCC_PLL1DIVR_Q1) >> RCC_PLL1DIVR_Q1_Pos
 3152              		.loc 1 1664 3 is_stmt 1 view .LVU1032
 3153              		.loc 1 1664 48 is_stmt 0 view .LVU1033
 3154 00c8 1A6B     		ldr	r2, [r3, #48]
 3155              		.loc 1 1664 33 view .LVU1034
 3156 00ca C2F30642 		ubfx	r2, r2, #16, #7
 3157              		.loc 1 1664 101 view .LVU1035
 3158 00ce 0132     		adds	r2, r2, #1
 3159              		.loc 1 1664 31 view .LVU1036
 3160 00d0 A263     		str	r2, [r4, #56]
1665:Drivers/STM32H7xx_HAL_Driver/Src/stm32h7xx_hal_rcc.c ****   RCC_OscInitStruct->PLL.PLLRGE = (uint32_t)((RCC->PLLCFGR & RCC_PLLCFGR_PLL1RGE));
 3161              		.loc 1 1665 3 is_stmt 1 view .LVU1037
 3162              		.loc 1 1665 50 is_stmt 0 view .LVU1038
 3163 00d2 DA6A     		ldr	r2, [r3, #44]
 3164              		.loc 1 1665 35 view .LVU1039
 3165 00d4 02F00C02 		and	r2, r2, #12
 3166              		.loc 1 1665 33 view .LVU1040
 3167 00d8 2264     		str	r2, [r4, #64]
1666:Drivers/STM32H7xx_HAL_Driver/Src/stm32h7xx_hal_rcc.c ****   RCC_OscInitStruct->PLL.PLLVCOSEL = (uint32_t)((RCC->PLLCFGR & RCC_PLLCFGR_PLL1VCOSEL) >> RCC_PLLC
 3168              		.loc 1 1666 3 is_stmt 1 view .LVU1041
 3169              		.loc 1 1666 53 is_stmt 0 view .LVU1042
 3170 00da DA6A     		ldr	r2, [r3, #44]
 3171              		.loc 1 1666 38 view .LVU1043
 3172 00dc C2F34002 		ubfx	r2, r2, #1, #1
 3173              		.loc 1 1666 36 view .LVU1044
 3174 00e0 6264     		str	r2, [r4, #68]
1667:Drivers/STM32H7xx_HAL_Driver/Src/stm32h7xx_hal_rcc.c ****   RCC_OscInitStruct->PLL.PLLFRACN = (uint32_t)(((RCC->PLL1FRACR & RCC_PLL1FRACR_FRACN1) >> RCC_PLL1
 3175              		.loc 1 1667 3 is_stmt 1 view .LVU1045
 3176              		.loc 1 1667 53 is_stmt 0 view .LVU1046
 3177 00e2 5B6B     		ldr	r3, [r3, #52]
 3178              		.loc 1 1667 37 view .LVU1047
ARM GAS  C:\Users\root\AppData\Local\Temp\ccvogEgx.s 			page 95


 3179 00e4 C3F3CC03 		ubfx	r3, r3, #3, #13
 3180              		.loc 1 1667 35 view .LVU1048
 3181 00e8 A364     		str	r3, [r4, #72]
1668:Drivers/STM32H7xx_HAL_Driver/Src/stm32h7xx_hal_rcc.c **** }
 3182              		.loc 1 1668 1 view .LVU1049
 3183 00ea 10BD     		pop	{r4, pc}
 3184              	.LVL206:
 3185              	.L247:
1541:Drivers/STM32H7xx_HAL_Driver/Src/stm32h7xx_hal_rcc.c ****   {
 3186              		.loc 1 1541 8 is_stmt 1 view .LVU1050
1541:Drivers/STM32H7xx_HAL_Driver/Src/stm32h7xx_hal_rcc.c ****   {
 3187              		.loc 1 1541 15 is_stmt 0 view .LVU1051
 3188 00ec 184B     		ldr	r3, .L268
 3189 00ee 1B68     		ldr	r3, [r3]
1541:Drivers/STM32H7xx_HAL_Driver/Src/stm32h7xx_hal_rcc.c ****   {
 3190              		.loc 1 1541 10 view .LVU1052
 3191 00f0 13F4803F 		tst	r3, #65536
 3192 00f4 03D0     		beq	.L249
1543:Drivers/STM32H7xx_HAL_Driver/Src/stm32h7xx_hal_rcc.c ****   }
 3193              		.loc 1 1543 5 is_stmt 1 view .LVU1053
1543:Drivers/STM32H7xx_HAL_Driver/Src/stm32h7xx_hal_rcc.c ****   }
 3194              		.loc 1 1543 33 is_stmt 0 view .LVU1054
 3195 00f6 4FF48033 		mov	r3, #65536
 3196 00fa 4360     		str	r3, [r0, #4]
 3197 00fc 8CE7     		b	.L248
 3198              	.L249:
1547:Drivers/STM32H7xx_HAL_Driver/Src/stm32h7xx_hal_rcc.c ****   }
 3199              		.loc 1 1547 5 is_stmt 1 view .LVU1055
1547:Drivers/STM32H7xx_HAL_Driver/Src/stm32h7xx_hal_rcc.c ****   }
 3200              		.loc 1 1547 33 is_stmt 0 view .LVU1056
 3201 00fe 0023     		movs	r3, #0
 3202 0100 4360     		str	r3, [r0, #4]
 3203 0102 89E7     		b	.L248
 3204              	.L250:
1558:Drivers/STM32H7xx_HAL_Driver/Src/stm32h7xx_hal_rcc.c ****   }
 3205              		.loc 1 1558 5 is_stmt 1 view .LVU1057
1558:Drivers/STM32H7xx_HAL_Driver/Src/stm32h7xx_hal_rcc.c ****   }
 3206              		.loc 1 1558 33 is_stmt 0 view .LVU1058
 3207 0104 0023     		movs	r3, #0
 3208 0106 E361     		str	r3, [r4, #28]
 3209 0108 8DE7     		b	.L251
 3210              	.LVL207:
 3211              	.L252:
1568:Drivers/STM32H7xx_HAL_Driver/Src/stm32h7xx_hal_rcc.c ****   }
 3212              		.loc 1 1568 5 is_stmt 1 view .LVU1059
1568:Drivers/STM32H7xx_HAL_Driver/Src/stm32h7xx_hal_rcc.c ****   }
 3213              		.loc 1 1568 57 is_stmt 0 view .LVU1060
 3214 010a 114B     		ldr	r3, .L268
 3215 010c DB68     		ldr	r3, [r3, #12]
1568:Drivers/STM32H7xx_HAL_Driver/Src/stm32h7xx_hal_rcc.c ****   }
 3216              		.loc 1 1568 46 view .LVU1061
 3217 010e C3F30563 		ubfx	r3, r3, #24, #6
1568:Drivers/STM32H7xx_HAL_Driver/Src/stm32h7xx_hal_rcc.c ****   }
 3218              		.loc 1 1568 44 view .LVU1062
 3219 0112 2362     		str	r3, [r4, #32]
 3220 0114 92E7     		b	.L253
 3221              	.L254:
ARM GAS  C:\Users\root\AppData\Local\Temp\ccvogEgx.s 			page 96


1581:Drivers/STM32H7xx_HAL_Driver/Src/stm32h7xx_hal_rcc.c ****   }
 3222              		.loc 1 1581 5 is_stmt 1 view .LVU1063
1581:Drivers/STM32H7xx_HAL_Driver/Src/stm32h7xx_hal_rcc.c ****   }
 3223              		.loc 1 1581 33 is_stmt 0 view .LVU1064
 3224 0116 0023     		movs	r3, #0
 3225 0118 E360     		str	r3, [r4, #12]
 3226 011a 96E7     		b	.L255
 3227              	.L256:
1591:Drivers/STM32H7xx_HAL_Driver/Src/stm32h7xx_hal_rcc.c ****   }
 3228              		.loc 1 1591 5 is_stmt 1 view .LVU1065
1591:Drivers/STM32H7xx_HAL_Driver/Src/stm32h7xx_hal_rcc.c ****   }
 3229              		.loc 1 1591 57 is_stmt 0 view .LVU1066
 3230 011c 0C4B     		ldr	r3, .L268
 3231 011e 5B68     		ldr	r3, [r3, #4]
1591:Drivers/STM32H7xx_HAL_Driver/Src/stm32h7xx_hal_rcc.c ****   }
 3232              		.loc 1 1591 46 view .LVU1067
 3233 0120 C3F30663 		ubfx	r3, r3, #24, #7
1591:Drivers/STM32H7xx_HAL_Driver/Src/stm32h7xx_hal_rcc.c ****   }
 3234              		.loc 1 1591 44 view .LVU1068
 3235 0124 2361     		str	r3, [r4, #16]
 3236 0126 9BE7     		b	.L257
 3237              	.L258:
1620:Drivers/STM32H7xx_HAL_Driver/Src/stm32h7xx_hal_rcc.c ****   {
 3238              		.loc 1 1620 8 is_stmt 1 view .LVU1069
1620:Drivers/STM32H7xx_HAL_Driver/Src/stm32h7xx_hal_rcc.c ****   {
 3239              		.loc 1 1620 15 is_stmt 0 view .LVU1070
 3240 0128 094B     		ldr	r3, .L268
 3241 012a 1B6F     		ldr	r3, [r3, #112]
1620:Drivers/STM32H7xx_HAL_Driver/Src/stm32h7xx_hal_rcc.c ****   {
 3242              		.loc 1 1620 10 view .LVU1071
 3243 012c 13F0010F 		tst	r3, #1
 3244 0130 02D0     		beq	.L260
1622:Drivers/STM32H7xx_HAL_Driver/Src/stm32h7xx_hal_rcc.c ****   }
 3245              		.loc 1 1622 5 is_stmt 1 view .LVU1072
1622:Drivers/STM32H7xx_HAL_Driver/Src/stm32h7xx_hal_rcc.c ****   }
 3246              		.loc 1 1622 33 is_stmt 0 view .LVU1073
 3247 0132 0123     		movs	r3, #1
 3248 0134 A360     		str	r3, [r4, #8]
 3249 0136 9AE7     		b	.L259
 3250              	.L260:
1626:Drivers/STM32H7xx_HAL_Driver/Src/stm32h7xx_hal_rcc.c ****   }
 3251              		.loc 1 1626 5 is_stmt 1 view .LVU1074
1626:Drivers/STM32H7xx_HAL_Driver/Src/stm32h7xx_hal_rcc.c ****   }
 3252              		.loc 1 1626 33 is_stmt 0 view .LVU1075
 3253 0138 0023     		movs	r3, #0
 3254 013a A360     		str	r3, [r4, #8]
 3255 013c 97E7     		b	.L259
 3256              	.L261:
1637:Drivers/STM32H7xx_HAL_Driver/Src/stm32h7xx_hal_rcc.c ****   }
 3257              		.loc 1 1637 5 is_stmt 1 view .LVU1076
1637:Drivers/STM32H7xx_HAL_Driver/Src/stm32h7xx_hal_rcc.c ****   }
 3258              		.loc 1 1637 33 is_stmt 0 view .LVU1077
 3259 013e 0023     		movs	r3, #0
 3260 0140 6361     		str	r3, [r4, #20]
 3261 0142 9BE7     		b	.L262
 3262              	.L263:
1647:Drivers/STM32H7xx_HAL_Driver/Src/stm32h7xx_hal_rcc.c ****   }
ARM GAS  C:\Users\root\AppData\Local\Temp\ccvogEgx.s 			page 97


 3263              		.loc 1 1647 5 is_stmt 1 view .LVU1078
1647:Drivers/STM32H7xx_HAL_Driver/Src/stm32h7xx_hal_rcc.c ****   }
 3264              		.loc 1 1647 35 is_stmt 0 view .LVU1079
 3265 0144 0023     		movs	r3, #0
 3266 0146 A361     		str	r3, [r4, #24]
 3267 0148 9FE7     		b	.L264
 3268              	.L265:
1657:Drivers/STM32H7xx_HAL_Driver/Src/stm32h7xx_hal_rcc.c ****   }
 3269              		.loc 1 1657 5 is_stmt 1 view .LVU1080
1657:Drivers/STM32H7xx_HAL_Driver/Src/stm32h7xx_hal_rcc.c ****   }
 3270              		.loc 1 1657 37 is_stmt 0 view .LVU1081
 3271 014a 0123     		movs	r3, #1
 3272 014c 6362     		str	r3, [r4, #36]
 3273 014e A3E7     		b	.L266
 3274              	.L269:
 3275              		.align	2
 3276              	.L268:
 3277 0150 00440258 		.word	1476543488
 3278              		.cfi_endproc
 3279              	.LFE151:
 3281              		.section	.text.HAL_RCC_GetClockConfig,"ax",%progbits
 3282              		.align	1
 3283              		.global	HAL_RCC_GetClockConfig
 3284              		.syntax unified
 3285              		.thumb
 3286              		.thumb_func
 3287              		.fpu fpv5-d16
 3289              	HAL_RCC_GetClockConfig:
 3290              	.LVL208:
 3291              	.LFB152:
1669:Drivers/STM32H7xx_HAL_Driver/Src/stm32h7xx_hal_rcc.c **** 
1670:Drivers/STM32H7xx_HAL_Driver/Src/stm32h7xx_hal_rcc.c **** /**
1671:Drivers/STM32H7xx_HAL_Driver/Src/stm32h7xx_hal_rcc.c ****   * @brief  Configures the RCC_ClkInitStruct according to the internal
1672:Drivers/STM32H7xx_HAL_Driver/Src/stm32h7xx_hal_rcc.c ****   * RCC configuration registers.
1673:Drivers/STM32H7xx_HAL_Driver/Src/stm32h7xx_hal_rcc.c ****   * @param  RCC_ClkInitStruct: pointer to an RCC_ClkInitTypeDef structure that
1674:Drivers/STM32H7xx_HAL_Driver/Src/stm32h7xx_hal_rcc.c ****   * will be configured.
1675:Drivers/STM32H7xx_HAL_Driver/Src/stm32h7xx_hal_rcc.c ****   * @param  pFLatency: Pointer on the Flash Latency.
1676:Drivers/STM32H7xx_HAL_Driver/Src/stm32h7xx_hal_rcc.c ****   * @retval None
1677:Drivers/STM32H7xx_HAL_Driver/Src/stm32h7xx_hal_rcc.c ****   */
1678:Drivers/STM32H7xx_HAL_Driver/Src/stm32h7xx_hal_rcc.c **** void HAL_RCC_GetClockConfig(RCC_ClkInitTypeDef  *RCC_ClkInitStruct, uint32_t *pFLatency)
1679:Drivers/STM32H7xx_HAL_Driver/Src/stm32h7xx_hal_rcc.c **** {
 3292              		.loc 1 1679 1 is_stmt 1 view -0
 3293              		.cfi_startproc
 3294              		@ args = 0, pretend = 0, frame = 0
 3295              		@ frame_needed = 0, uses_anonymous_args = 0
 3296              		@ link register save eliminated.
1680:Drivers/STM32H7xx_HAL_Driver/Src/stm32h7xx_hal_rcc.c ****   /* Set all possible values for the Clock type parameter --------------------*/
1681:Drivers/STM32H7xx_HAL_Driver/Src/stm32h7xx_hal_rcc.c ****   RCC_ClkInitStruct->ClockType = RCC_CLOCKTYPE_SYSCLK | RCC_CLOCKTYPE_HCLK | RCC_CLOCKTYPE_D1PCLK1 
 3297              		.loc 1 1681 3 view .LVU1083
 3298              		.loc 1 1681 32 is_stmt 0 view .LVU1084
 3299 0000 3F23     		movs	r3, #63
 3300 0002 0360     		str	r3, [r0]
1682:Drivers/STM32H7xx_HAL_Driver/Src/stm32h7xx_hal_rcc.c ****                                  RCC_CLOCKTYPE_PCLK2 |  RCC_CLOCKTYPE_D3PCLK1  ;
1683:Drivers/STM32H7xx_HAL_Driver/Src/stm32h7xx_hal_rcc.c **** 
1684:Drivers/STM32H7xx_HAL_Driver/Src/stm32h7xx_hal_rcc.c ****   /* Get the SYSCLK configuration --------------------------------------------*/
1685:Drivers/STM32H7xx_HAL_Driver/Src/stm32h7xx_hal_rcc.c ****   RCC_ClkInitStruct->SYSCLKSource = (uint32_t)(RCC->CFGR & RCC_CFGR_SW);
 3301              		.loc 1 1685 3 is_stmt 1 view .LVU1085
ARM GAS  C:\Users\root\AppData\Local\Temp\ccvogEgx.s 			page 98


 3302              		.loc 1 1685 51 is_stmt 0 view .LVU1086
 3303 0004 114B     		ldr	r3, .L271
 3304 0006 1A69     		ldr	r2, [r3, #16]
 3305              		.loc 1 1685 37 view .LVU1087
 3306 0008 02F00702 		and	r2, r2, #7
 3307              		.loc 1 1685 35 view .LVU1088
 3308 000c 4260     		str	r2, [r0, #4]
1686:Drivers/STM32H7xx_HAL_Driver/Src/stm32h7xx_hal_rcc.c **** 
1687:Drivers/STM32H7xx_HAL_Driver/Src/stm32h7xx_hal_rcc.c **** #if defined(RCC_D1CFGR_D1CPRE)
1688:Drivers/STM32H7xx_HAL_Driver/Src/stm32h7xx_hal_rcc.c ****   /* Get the SYSCLK configuration ----------------------------------------------*/
1689:Drivers/STM32H7xx_HAL_Driver/Src/stm32h7xx_hal_rcc.c ****   RCC_ClkInitStruct->SYSCLKDivider = (uint32_t)(RCC->D1CFGR & RCC_D1CFGR_D1CPRE);
 3309              		.loc 1 1689 3 is_stmt 1 view .LVU1089
 3310              		.loc 1 1689 52 is_stmt 0 view .LVU1090
 3311 000e 9A69     		ldr	r2, [r3, #24]
 3312              		.loc 1 1689 38 view .LVU1091
 3313 0010 02F47062 		and	r2, r2, #3840
 3314              		.loc 1 1689 36 view .LVU1092
 3315 0014 8260     		str	r2, [r0, #8]
1690:Drivers/STM32H7xx_HAL_Driver/Src/stm32h7xx_hal_rcc.c **** 
1691:Drivers/STM32H7xx_HAL_Driver/Src/stm32h7xx_hal_rcc.c ****   /* Get the D1HCLK configuration ----------------------------------------------*/
1692:Drivers/STM32H7xx_HAL_Driver/Src/stm32h7xx_hal_rcc.c ****   RCC_ClkInitStruct->AHBCLKDivider = (uint32_t)(RCC->D1CFGR & RCC_D1CFGR_HPRE);
 3316              		.loc 1 1692 3 is_stmt 1 view .LVU1093
 3317              		.loc 1 1692 52 is_stmt 0 view .LVU1094
 3318 0016 9A69     		ldr	r2, [r3, #24]
 3319              		.loc 1 1692 38 view .LVU1095
 3320 0018 02F00F02 		and	r2, r2, #15
 3321              		.loc 1 1692 36 view .LVU1096
 3322 001c C260     		str	r2, [r0, #12]
1693:Drivers/STM32H7xx_HAL_Driver/Src/stm32h7xx_hal_rcc.c **** 
1694:Drivers/STM32H7xx_HAL_Driver/Src/stm32h7xx_hal_rcc.c ****   /* Get the APB3 configuration ----------------------------------------------*/
1695:Drivers/STM32H7xx_HAL_Driver/Src/stm32h7xx_hal_rcc.c ****   RCC_ClkInitStruct->APB3CLKDivider = (uint32_t)(RCC->D1CFGR & RCC_D1CFGR_D1PPRE);
 3323              		.loc 1 1695 3 is_stmt 1 view .LVU1097
 3324              		.loc 1 1695 53 is_stmt 0 view .LVU1098
 3325 001e 9A69     		ldr	r2, [r3, #24]
 3326              		.loc 1 1695 39 view .LVU1099
 3327 0020 02F07002 		and	r2, r2, #112
 3328              		.loc 1 1695 37 view .LVU1100
 3329 0024 0261     		str	r2, [r0, #16]
1696:Drivers/STM32H7xx_HAL_Driver/Src/stm32h7xx_hal_rcc.c **** 
1697:Drivers/STM32H7xx_HAL_Driver/Src/stm32h7xx_hal_rcc.c ****   /* Get the APB1 configuration ----------------------------------------------*/
1698:Drivers/STM32H7xx_HAL_Driver/Src/stm32h7xx_hal_rcc.c ****   RCC_ClkInitStruct->APB1CLKDivider = (uint32_t)(RCC->D2CFGR & RCC_D2CFGR_D2PPRE1);
 3330              		.loc 1 1698 3 is_stmt 1 view .LVU1101
 3331              		.loc 1 1698 53 is_stmt 0 view .LVU1102
 3332 0026 DA69     		ldr	r2, [r3, #28]
 3333              		.loc 1 1698 39 view .LVU1103
 3334 0028 02F07002 		and	r2, r2, #112
 3335              		.loc 1 1698 37 view .LVU1104
 3336 002c 4261     		str	r2, [r0, #20]
1699:Drivers/STM32H7xx_HAL_Driver/Src/stm32h7xx_hal_rcc.c **** 
1700:Drivers/STM32H7xx_HAL_Driver/Src/stm32h7xx_hal_rcc.c ****   /* Get the APB2 configuration ----------------------------------------------*/
1701:Drivers/STM32H7xx_HAL_Driver/Src/stm32h7xx_hal_rcc.c ****   RCC_ClkInitStruct->APB2CLKDivider = (uint32_t)(RCC->D2CFGR & RCC_D2CFGR_D2PPRE2);
 3337              		.loc 1 1701 3 is_stmt 1 view .LVU1105
 3338              		.loc 1 1701 53 is_stmt 0 view .LVU1106
 3339 002e DA69     		ldr	r2, [r3, #28]
 3340              		.loc 1 1701 39 view .LVU1107
 3341 0030 02F4E062 		and	r2, r2, #1792
 3342              		.loc 1 1701 37 view .LVU1108
ARM GAS  C:\Users\root\AppData\Local\Temp\ccvogEgx.s 			page 99


 3343 0034 8261     		str	r2, [r0, #24]
1702:Drivers/STM32H7xx_HAL_Driver/Src/stm32h7xx_hal_rcc.c **** 
1703:Drivers/STM32H7xx_HAL_Driver/Src/stm32h7xx_hal_rcc.c ****   /* Get the APB4 configuration ----------------------------------------------*/
1704:Drivers/STM32H7xx_HAL_Driver/Src/stm32h7xx_hal_rcc.c ****   RCC_ClkInitStruct->APB4CLKDivider = (uint32_t)(RCC->D3CFGR & RCC_D3CFGR_D3PPRE);
 3344              		.loc 1 1704 3 is_stmt 1 view .LVU1109
 3345              		.loc 1 1704 53 is_stmt 0 view .LVU1110
 3346 0036 1B6A     		ldr	r3, [r3, #32]
 3347              		.loc 1 1704 39 view .LVU1111
 3348 0038 03F07003 		and	r3, r3, #112
 3349              		.loc 1 1704 37 view .LVU1112
 3350 003c C361     		str	r3, [r0, #28]
1705:Drivers/STM32H7xx_HAL_Driver/Src/stm32h7xx_hal_rcc.c **** #else
1706:Drivers/STM32H7xx_HAL_Driver/Src/stm32h7xx_hal_rcc.c ****   /* Get the SYSCLK configuration ----------------------------------------------*/
1707:Drivers/STM32H7xx_HAL_Driver/Src/stm32h7xx_hal_rcc.c ****   RCC_ClkInitStruct->SYSCLKDivider = (uint32_t)(RCC->CDCFGR1 & RCC_CDCFGR1_CDCPRE);
1708:Drivers/STM32H7xx_HAL_Driver/Src/stm32h7xx_hal_rcc.c **** 
1709:Drivers/STM32H7xx_HAL_Driver/Src/stm32h7xx_hal_rcc.c ****   /* Get the D1HCLK configuration ----------------------------------------------*/
1710:Drivers/STM32H7xx_HAL_Driver/Src/stm32h7xx_hal_rcc.c ****   RCC_ClkInitStruct->AHBCLKDivider = (uint32_t)(RCC->CDCFGR1 & RCC_CDCFGR1_HPRE);
1711:Drivers/STM32H7xx_HAL_Driver/Src/stm32h7xx_hal_rcc.c **** 
1712:Drivers/STM32H7xx_HAL_Driver/Src/stm32h7xx_hal_rcc.c ****   /* Get the APB3 configuration ----------------------------------------------*/
1713:Drivers/STM32H7xx_HAL_Driver/Src/stm32h7xx_hal_rcc.c ****   RCC_ClkInitStruct->APB3CLKDivider = (uint32_t)(RCC->CDCFGR1 & RCC_CDCFGR1_CDPPRE);
1714:Drivers/STM32H7xx_HAL_Driver/Src/stm32h7xx_hal_rcc.c **** 
1715:Drivers/STM32H7xx_HAL_Driver/Src/stm32h7xx_hal_rcc.c ****   /* Get the APB1 configuration ----------------------------------------------*/
1716:Drivers/STM32H7xx_HAL_Driver/Src/stm32h7xx_hal_rcc.c ****   RCC_ClkInitStruct->APB1CLKDivider = (uint32_t)(RCC->CDCFGR2 & RCC_CDCFGR2_CDPPRE1);
1717:Drivers/STM32H7xx_HAL_Driver/Src/stm32h7xx_hal_rcc.c **** 
1718:Drivers/STM32H7xx_HAL_Driver/Src/stm32h7xx_hal_rcc.c ****   /* Get the APB2 configuration ----------------------------------------------*/
1719:Drivers/STM32H7xx_HAL_Driver/Src/stm32h7xx_hal_rcc.c ****   RCC_ClkInitStruct->APB2CLKDivider = (uint32_t)(RCC->CDCFGR2 & RCC_CDCFGR2_CDPPRE2);
1720:Drivers/STM32H7xx_HAL_Driver/Src/stm32h7xx_hal_rcc.c **** 
1721:Drivers/STM32H7xx_HAL_Driver/Src/stm32h7xx_hal_rcc.c ****   /* Get the APB4 configuration ----------------------------------------------*/
1722:Drivers/STM32H7xx_HAL_Driver/Src/stm32h7xx_hal_rcc.c ****   RCC_ClkInitStruct->APB4CLKDivider = (uint32_t)(RCC->SRDCFGR & RCC_SRDCFGR_SRDPPRE);
1723:Drivers/STM32H7xx_HAL_Driver/Src/stm32h7xx_hal_rcc.c **** #endif
1724:Drivers/STM32H7xx_HAL_Driver/Src/stm32h7xx_hal_rcc.c **** 
1725:Drivers/STM32H7xx_HAL_Driver/Src/stm32h7xx_hal_rcc.c ****   /* Get the Flash Wait State (Latency) configuration ------------------------*/
1726:Drivers/STM32H7xx_HAL_Driver/Src/stm32h7xx_hal_rcc.c ****   *pFLatency = (uint32_t)(FLASH->ACR & FLASH_ACR_LATENCY);
 3351              		.loc 1 1726 3 is_stmt 1 view .LVU1113
 3352              		.loc 1 1726 32 is_stmt 0 view .LVU1114
 3353 003e 044B     		ldr	r3, .L271+4
 3354 0040 1B68     		ldr	r3, [r3]
 3355              		.loc 1 1726 16 view .LVU1115
 3356 0042 03F00F03 		and	r3, r3, #15
 3357              		.loc 1 1726 14 view .LVU1116
 3358 0046 0B60     		str	r3, [r1]
1727:Drivers/STM32H7xx_HAL_Driver/Src/stm32h7xx_hal_rcc.c **** }
 3359              		.loc 1 1727 1 view .LVU1117
 3360 0048 7047     		bx	lr
 3361              	.L272:
 3362 004a 00BF     		.align	2
 3363              	.L271:
 3364 004c 00440258 		.word	1476543488
 3365 0050 00200052 		.word	1375739904
 3366              		.cfi_endproc
 3367              	.LFE152:
 3369              		.section	.text.HAL_RCC_CSSCallback,"ax",%progbits
 3370              		.align	1
 3371              		.weak	HAL_RCC_CSSCallback
 3372              		.syntax unified
 3373              		.thumb
 3374              		.thumb_func
ARM GAS  C:\Users\root\AppData\Local\Temp\ccvogEgx.s 			page 100


 3375              		.fpu fpv5-d16
 3377              	HAL_RCC_CSSCallback:
 3378              	.LFB154:
1728:Drivers/STM32H7xx_HAL_Driver/Src/stm32h7xx_hal_rcc.c **** 
1729:Drivers/STM32H7xx_HAL_Driver/Src/stm32h7xx_hal_rcc.c **** /**
1730:Drivers/STM32H7xx_HAL_Driver/Src/stm32h7xx_hal_rcc.c ****   * @brief This function handles the RCC CSS interrupt request.
1731:Drivers/STM32H7xx_HAL_Driver/Src/stm32h7xx_hal_rcc.c ****   * @note This API should be called under the NMI_Handler().
1732:Drivers/STM32H7xx_HAL_Driver/Src/stm32h7xx_hal_rcc.c ****   * @retval None
1733:Drivers/STM32H7xx_HAL_Driver/Src/stm32h7xx_hal_rcc.c ****   */
1734:Drivers/STM32H7xx_HAL_Driver/Src/stm32h7xx_hal_rcc.c **** void HAL_RCC_NMI_IRQHandler(void)
1735:Drivers/STM32H7xx_HAL_Driver/Src/stm32h7xx_hal_rcc.c **** {
1736:Drivers/STM32H7xx_HAL_Driver/Src/stm32h7xx_hal_rcc.c ****   /* Check RCC CSSF flag  */
1737:Drivers/STM32H7xx_HAL_Driver/Src/stm32h7xx_hal_rcc.c ****   if(__HAL_RCC_GET_IT(RCC_IT_CSS))
1738:Drivers/STM32H7xx_HAL_Driver/Src/stm32h7xx_hal_rcc.c ****   {
1739:Drivers/STM32H7xx_HAL_Driver/Src/stm32h7xx_hal_rcc.c ****     /* RCC Clock Security System interrupt user callback */
1740:Drivers/STM32H7xx_HAL_Driver/Src/stm32h7xx_hal_rcc.c ****     HAL_RCC_CCSCallback();
1741:Drivers/STM32H7xx_HAL_Driver/Src/stm32h7xx_hal_rcc.c **** 
1742:Drivers/STM32H7xx_HAL_Driver/Src/stm32h7xx_hal_rcc.c ****     /* Clear RCC CSS pending bit */
1743:Drivers/STM32H7xx_HAL_Driver/Src/stm32h7xx_hal_rcc.c ****     __HAL_RCC_CLEAR_IT(RCC_IT_CSS);
1744:Drivers/STM32H7xx_HAL_Driver/Src/stm32h7xx_hal_rcc.c ****   }
1745:Drivers/STM32H7xx_HAL_Driver/Src/stm32h7xx_hal_rcc.c **** }
1746:Drivers/STM32H7xx_HAL_Driver/Src/stm32h7xx_hal_rcc.c **** 
1747:Drivers/STM32H7xx_HAL_Driver/Src/stm32h7xx_hal_rcc.c **** /**
1748:Drivers/STM32H7xx_HAL_Driver/Src/stm32h7xx_hal_rcc.c ****   * @brief  RCC Clock Security System interrupt callback
1749:Drivers/STM32H7xx_HAL_Driver/Src/stm32h7xx_hal_rcc.c ****   * @retval none
1750:Drivers/STM32H7xx_HAL_Driver/Src/stm32h7xx_hal_rcc.c ****   */
1751:Drivers/STM32H7xx_HAL_Driver/Src/stm32h7xx_hal_rcc.c **** __weak void HAL_RCC_CCSCallback(void)
1752:Drivers/STM32H7xx_HAL_Driver/Src/stm32h7xx_hal_rcc.c **** {
 3379              		.loc 1 1752 1 is_stmt 1 view -0
 3380              		.cfi_startproc
 3381              		@ args = 0, pretend = 0, frame = 0
 3382              		@ frame_needed = 0, uses_anonymous_args = 0
 3383              		@ link register save eliminated.
1753:Drivers/STM32H7xx_HAL_Driver/Src/stm32h7xx_hal_rcc.c ****   /* NOTE : This function Should not be modified, when the callback is needed,
1754:Drivers/STM32H7xx_HAL_Driver/Src/stm32h7xx_hal_rcc.c ****             the HAL_RCC_CCSCallback could be implemented in the user file
1755:Drivers/STM32H7xx_HAL_Driver/Src/stm32h7xx_hal_rcc.c ****    */
1756:Drivers/STM32H7xx_HAL_Driver/Src/stm32h7xx_hal_rcc.c **** }
 3384              		.loc 1 1756 1 view .LVU1119
 3385 0000 7047     		bx	lr
 3386              		.cfi_endproc
 3387              	.LFE154:
 3389              		.section	.text.HAL_RCC_NMI_IRQHandler,"ax",%progbits
 3390              		.align	1
 3391              		.global	HAL_RCC_NMI_IRQHandler
 3392              		.syntax unified
 3393              		.thumb
 3394              		.thumb_func
 3395              		.fpu fpv5-d16
 3397              	HAL_RCC_NMI_IRQHandler:
 3398              	.LFB153:
1735:Drivers/STM32H7xx_HAL_Driver/Src/stm32h7xx_hal_rcc.c ****   /* Check RCC CSSF flag  */
 3399              		.loc 1 1735 1 view -0
 3400              		.cfi_startproc
 3401              		@ args = 0, pretend = 0, frame = 0
 3402              		@ frame_needed = 0, uses_anonymous_args = 0
 3403 0000 08B5     		push	{r3, lr}
 3404              	.LCFI19:
ARM GAS  C:\Users\root\AppData\Local\Temp\ccvogEgx.s 			page 101


 3405              		.cfi_def_cfa_offset 8
 3406              		.cfi_offset 3, -8
 3407              		.cfi_offset 14, -4
1737:Drivers/STM32H7xx_HAL_Driver/Src/stm32h7xx_hal_rcc.c ****   {
 3408              		.loc 1 1737 3 view .LVU1121
1737:Drivers/STM32H7xx_HAL_Driver/Src/stm32h7xx_hal_rcc.c ****   {
 3409              		.loc 1 1737 6 is_stmt 0 view .LVU1122
 3410 0002 064B     		ldr	r3, .L278
 3411 0004 5B6E     		ldr	r3, [r3, #100]
1737:Drivers/STM32H7xx_HAL_Driver/Src/stm32h7xx_hal_rcc.c ****   {
 3412              		.loc 1 1737 5 view .LVU1123
 3413 0006 13F4806F 		tst	r3, #1024
 3414 000a 00D1     		bne	.L277
 3415              	.L274:
1745:Drivers/STM32H7xx_HAL_Driver/Src/stm32h7xx_hal_rcc.c **** 
 3416              		.loc 1 1745 1 view .LVU1124
 3417 000c 08BD     		pop	{r3, pc}
 3418              	.L277:
1740:Drivers/STM32H7xx_HAL_Driver/Src/stm32h7xx_hal_rcc.c **** 
 3419              		.loc 1 1740 5 is_stmt 1 view .LVU1125
 3420 000e FFF7FEFF 		bl	HAL_RCC_CSSCallback
 3421              	.LVL209:
1743:Drivers/STM32H7xx_HAL_Driver/Src/stm32h7xx_hal_rcc.c ****   }
 3422              		.loc 1 1743 5 view .LVU1126
 3423 0012 024B     		ldr	r3, .L278
 3424 0014 4FF48062 		mov	r2, #1024
 3425 0018 9A66     		str	r2, [r3, #104]
1745:Drivers/STM32H7xx_HAL_Driver/Src/stm32h7xx_hal_rcc.c **** 
 3426              		.loc 1 1745 1 is_stmt 0 view .LVU1127
 3427 001a F7E7     		b	.L274
 3428              	.L279:
 3429              		.align	2
 3430              	.L278:
 3431 001c 00440258 		.word	1476543488
 3432              		.cfi_endproc
 3433              	.LFE153:
 3435              		.text
 3436              	.Letext0:
 3437              		.file 2 "c:\\program files (x86)\\gnu arm embedded toolchain\\9 2020-q2-update\\arm-none-eabi\\inc
 3438              		.file 3 "c:\\program files (x86)\\gnu arm embedded toolchain\\9 2020-q2-update\\arm-none-eabi\\inc
 3439              		.file 4 "Drivers/CMSIS/Include/core_cm7.h"
 3440              		.file 5 "Drivers/CMSIS/Device/ST/STM32H7xx/Include/system_stm32h7xx.h"
 3441              		.file 6 "Drivers/CMSIS/Device/ST/STM32H7xx/Include/stm32h743xx.h"
 3442              		.file 7 "c:\\program files (x86)\\gnu arm embedded toolchain\\9 2020-q2-update\\lib\\gcc\\arm-none
 3443              		.file 8 "c:\\program files (x86)\\gnu arm embedded toolchain\\9 2020-q2-update\\arm-none-eabi\\inc
 3444              		.file 9 "c:\\program files (x86)\\gnu arm embedded toolchain\\9 2020-q2-update\\arm-none-eabi\\inc
 3445              		.file 10 "c:\\program files (x86)\\gnu arm embedded toolchain\\9 2020-q2-update\\arm-none-eabi\\in
 3446              		.file 11 "c:\\program files (x86)\\gnu arm embedded toolchain\\9 2020-q2-update\\arm-none-eabi\\in
 3447              		.file 12 "Drivers/STM32H7xx_HAL_Driver/Inc/stm32h7xx_hal_def.h"
 3448              		.file 13 "Drivers/STM32H7xx_HAL_Driver/Inc/stm32h7xx_hal_rcc.h"
 3449              		.file 14 "Drivers/STM32H7xx_HAL_Driver/Inc/stm32h7xx_hal_gpio.h"
 3450              		.file 15 "Drivers/STM32H7xx_HAL_Driver/Inc/stm32h7xx_hal_flash.h"
 3451              		.file 16 "Drivers/STM32H7xx_HAL_Driver/Inc/stm32h7xx_hal_uart.h"
 3452              		.file 17 "Drivers/STM32H7xx_HAL_Driver/Inc/stm32h7xx_hal.h"
ARM GAS  C:\Users\root\AppData\Local\Temp\ccvogEgx.s 			page 102


DEFINED SYMBOLS
                            *ABS*:00000000 stm32h7xx_hal_rcc.c
C:\Users\root\AppData\Local\Temp\ccvogEgx.s:17     .text.HAL_RCC_DeInit:00000000 $t
C:\Users\root\AppData\Local\Temp\ccvogEgx.s:25     .text.HAL_RCC_DeInit:00000000 HAL_RCC_DeInit
C:\Users\root\AppData\Local\Temp\ccvogEgx.s:372    .text.HAL_RCC_DeInit:000001a4 $d
C:\Users\root\AppData\Local\Temp\ccvogEgx.s:386    .text.HAL_RCC_OscConfig:00000000 $t
C:\Users\root\AppData\Local\Temp\ccvogEgx.s:393    .text.HAL_RCC_OscConfig:00000000 HAL_RCC_OscConfig
C:\Users\root\AppData\Local\Temp\ccvogEgx.s:978    .text.HAL_RCC_OscConfig:000002cc $d
C:\Users\root\AppData\Local\Temp\ccvogEgx.s:983    .text.HAL_RCC_OscConfig:000002d0 $t
C:\Users\root\AppData\Local\Temp\ccvogEgx.s:1421   .text.HAL_RCC_OscConfig:000004f8 $d
C:\Users\root\AppData\Local\Temp\ccvogEgx.s:1426   .text.HAL_RCC_OscConfig:00000500 $t
C:\Users\root\AppData\Local\Temp\ccvogEgx.s:1704   .text.HAL_RCC_OscConfig:00000640 $d
C:\Users\root\AppData\Local\Temp\ccvogEgx.s:1711   .text.HAL_RCC_MCOConfig:00000000 $t
C:\Users\root\AppData\Local\Temp\ccvogEgx.s:1718   .text.HAL_RCC_MCOConfig:00000000 HAL_RCC_MCOConfig
C:\Users\root\AppData\Local\Temp\ccvogEgx.s:1867   .text.HAL_RCC_MCOConfig:00000098 $d
C:\Users\root\AppData\Local\Temp\ccvogEgx.s:1874   .text.HAL_RCC_EnableCSS:00000000 $t
C:\Users\root\AppData\Local\Temp\ccvogEgx.s:1881   .text.HAL_RCC_EnableCSS:00000000 HAL_RCC_EnableCSS
C:\Users\root\AppData\Local\Temp\ccvogEgx.s:1898   .text.HAL_RCC_EnableCSS:0000000c $d
C:\Users\root\AppData\Local\Temp\ccvogEgx.s:1903   .text.HAL_RCC_DisableCSS:00000000 $t
C:\Users\root\AppData\Local\Temp\ccvogEgx.s:1910   .text.HAL_RCC_DisableCSS:00000000 HAL_RCC_DisableCSS
C:\Users\root\AppData\Local\Temp\ccvogEgx.s:1927   .text.HAL_RCC_DisableCSS:0000000c $d
C:\Users\root\AppData\Local\Temp\ccvogEgx.s:1932   .text.HAL_RCC_GetSysClockFreq:00000000 $t
C:\Users\root\AppData\Local\Temp\ccvogEgx.s:1939   .text.HAL_RCC_GetSysClockFreq:00000000 HAL_RCC_GetSysClockFreq
C:\Users\root\AppData\Local\Temp\ccvogEgx.s:2254   .text.HAL_RCC_GetSysClockFreq:000001d4 $d
C:\Users\root\AppData\Local\Temp\ccvogEgx.s:2266   .text.HAL_RCC_ClockConfig:00000000 $t
C:\Users\root\AppData\Local\Temp\ccvogEgx.s:2273   .text.HAL_RCC_ClockConfig:00000000 HAL_RCC_ClockConfig
C:\Users\root\AppData\Local\Temp\ccvogEgx.s:2799   .text.HAL_RCC_ClockConfig:0000027c $d
C:\Users\root\AppData\Local\Temp\ccvogEgx.s:2809   .text.HAL_RCC_GetHCLKFreq:00000000 $t
C:\Users\root\AppData\Local\Temp\ccvogEgx.s:2816   .text.HAL_RCC_GetHCLKFreq:00000000 HAL_RCC_GetHCLKFreq
C:\Users\root\AppData\Local\Temp\ccvogEgx.s:2871   .text.HAL_RCC_GetHCLKFreq:00000034 $d
C:\Users\root\AppData\Local\Temp\ccvogEgx.s:2879   .text.HAL_RCC_GetPCLK1Freq:00000000 $t
C:\Users\root\AppData\Local\Temp\ccvogEgx.s:2886   .text.HAL_RCC_GetPCLK1Freq:00000000 HAL_RCC_GetPCLK1Freq
C:\Users\root\AppData\Local\Temp\ccvogEgx.s:2917   .text.HAL_RCC_GetPCLK1Freq:0000001c $d
C:\Users\root\AppData\Local\Temp\ccvogEgx.s:2923   .text.HAL_RCC_GetPCLK2Freq:00000000 $t
C:\Users\root\AppData\Local\Temp\ccvogEgx.s:2930   .text.HAL_RCC_GetPCLK2Freq:00000000 HAL_RCC_GetPCLK2Freq
C:\Users\root\AppData\Local\Temp\ccvogEgx.s:2961   .text.HAL_RCC_GetPCLK2Freq:0000001c $d
C:\Users\root\AppData\Local\Temp\ccvogEgx.s:2967   .text.HAL_RCC_GetOscConfig:00000000 $t
C:\Users\root\AppData\Local\Temp\ccvogEgx.s:2974   .text.HAL_RCC_GetOscConfig:00000000 HAL_RCC_GetOscConfig
C:\Users\root\AppData\Local\Temp\ccvogEgx.s:3277   .text.HAL_RCC_GetOscConfig:00000150 $d
C:\Users\root\AppData\Local\Temp\ccvogEgx.s:3282   .text.HAL_RCC_GetClockConfig:00000000 $t
C:\Users\root\AppData\Local\Temp\ccvogEgx.s:3289   .text.HAL_RCC_GetClockConfig:00000000 HAL_RCC_GetClockConfig
C:\Users\root\AppData\Local\Temp\ccvogEgx.s:3364   .text.HAL_RCC_GetClockConfig:0000004c $d
C:\Users\root\AppData\Local\Temp\ccvogEgx.s:3370   .text.HAL_RCC_CSSCallback:00000000 $t
C:\Users\root\AppData\Local\Temp\ccvogEgx.s:3377   .text.HAL_RCC_CSSCallback:00000000 HAL_RCC_CSSCallback
C:\Users\root\AppData\Local\Temp\ccvogEgx.s:3390   .text.HAL_RCC_NMI_IRQHandler:00000000 $t
C:\Users\root\AppData\Local\Temp\ccvogEgx.s:3397   .text.HAL_RCC_NMI_IRQHandler:00000000 HAL_RCC_NMI_IRQHandler
C:\Users\root\AppData\Local\Temp\ccvogEgx.s:3431   .text.HAL_RCC_NMI_IRQHandler:0000001c $d

UNDEFINED SYMBOLS
HAL_GetTick
HAL_InitTick
SystemCoreClock
SystemD2Clock
uwTickPrio
HAL_GetREVID
HAL_GPIO_Init
D1CorePrescTable
ARM GAS  C:\Users\root\AppData\Local\Temp\ccvogEgx.s 			page 103


