ARM GAS  C:\Users\root\AppData\Local\Temp\cc7wkqRG.s 			page 1


   1              		.cpu cortex-m7
   2              		.eabi_attribute 28, 1
   3              		.eabi_attribute 20, 1
   4              		.eabi_attribute 21, 1
   5              		.eabi_attribute 23, 3
   6              		.eabi_attribute 24, 1
   7              		.eabi_attribute 25, 1
   8              		.eabi_attribute 26, 1
   9              		.eabi_attribute 30, 1
  10              		.eabi_attribute 34, 1
  11              		.eabi_attribute 18, 4
  12              		.file	"stm32h7xx_hal_gpio.c"
  13              		.text
  14              	.Ltext0:
  15              		.cfi_sections	.debug_frame
  16              		.section	.text.HAL_GPIO_Init,"ax",%progbits
  17              		.align	1
  18              		.global	HAL_GPIO_Init
  19              		.arch armv7e-m
  20              		.syntax unified
  21              		.thumb
  22              		.thumb_func
  23              		.fpu fpv5-d16
  25              	HAL_GPIO_Init:
  26              	.LVL0:
  27              	.LFB141:
  28              		.file 1 "Drivers/STM32H7xx_HAL_Driver/Src/stm32h7xx_hal_gpio.c"
   1:Drivers/STM32H7xx_HAL_Driver/Src/stm32h7xx_hal_gpio.c **** /**
   2:Drivers/STM32H7xx_HAL_Driver/Src/stm32h7xx_hal_gpio.c ****   ******************************************************************************
   3:Drivers/STM32H7xx_HAL_Driver/Src/stm32h7xx_hal_gpio.c ****   * @file    stm32h7xx_hal_gpio.c
   4:Drivers/STM32H7xx_HAL_Driver/Src/stm32h7xx_hal_gpio.c ****   * @author  MCD Application Team
   5:Drivers/STM32H7xx_HAL_Driver/Src/stm32h7xx_hal_gpio.c ****   * @brief   GPIO HAL module driver.
   6:Drivers/STM32H7xx_HAL_Driver/Src/stm32h7xx_hal_gpio.c ****   *          This file provides firmware functions to manage the following
   7:Drivers/STM32H7xx_HAL_Driver/Src/stm32h7xx_hal_gpio.c ****   *          functionalities of the General Purpose Input/Output (GPIO) peripheral:
   8:Drivers/STM32H7xx_HAL_Driver/Src/stm32h7xx_hal_gpio.c ****   *           + Initialization and de-initialization functions
   9:Drivers/STM32H7xx_HAL_Driver/Src/stm32h7xx_hal_gpio.c ****   *           + IO operation functions
  10:Drivers/STM32H7xx_HAL_Driver/Src/stm32h7xx_hal_gpio.c ****   *
  11:Drivers/STM32H7xx_HAL_Driver/Src/stm32h7xx_hal_gpio.c ****   @verbatim
  12:Drivers/STM32H7xx_HAL_Driver/Src/stm32h7xx_hal_gpio.c ****   ==============================================================================
  13:Drivers/STM32H7xx_HAL_Driver/Src/stm32h7xx_hal_gpio.c ****                     ##### GPIO Peripheral features #####
  14:Drivers/STM32H7xx_HAL_Driver/Src/stm32h7xx_hal_gpio.c ****   ==============================================================================
  15:Drivers/STM32H7xx_HAL_Driver/Src/stm32h7xx_hal_gpio.c ****   [..]
  16:Drivers/STM32H7xx_HAL_Driver/Src/stm32h7xx_hal_gpio.c ****     (+) Each port bit of the general-purpose I/O (GPIO) ports can be individually
  17:Drivers/STM32H7xx_HAL_Driver/Src/stm32h7xx_hal_gpio.c ****         configured by software in several modes:
  18:Drivers/STM32H7xx_HAL_Driver/Src/stm32h7xx_hal_gpio.c ****         (++) Input mode
  19:Drivers/STM32H7xx_HAL_Driver/Src/stm32h7xx_hal_gpio.c ****         (++) Analog mode
  20:Drivers/STM32H7xx_HAL_Driver/Src/stm32h7xx_hal_gpio.c ****         (++) Output mode
  21:Drivers/STM32H7xx_HAL_Driver/Src/stm32h7xx_hal_gpio.c ****         (++) Alternate function mode
  22:Drivers/STM32H7xx_HAL_Driver/Src/stm32h7xx_hal_gpio.c ****         (++) External interrupt/event lines
  23:Drivers/STM32H7xx_HAL_Driver/Src/stm32h7xx_hal_gpio.c **** 
  24:Drivers/STM32H7xx_HAL_Driver/Src/stm32h7xx_hal_gpio.c ****     (+) During and just after reset, the alternate functions and external interrupt
  25:Drivers/STM32H7xx_HAL_Driver/Src/stm32h7xx_hal_gpio.c ****         lines are not active and the I/O ports are configured in input floating mode.
  26:Drivers/STM32H7xx_HAL_Driver/Src/stm32h7xx_hal_gpio.c **** 
  27:Drivers/STM32H7xx_HAL_Driver/Src/stm32h7xx_hal_gpio.c ****     (+) All GPIO pins have weak internal pull-up and pull-down resistors, which can be
  28:Drivers/STM32H7xx_HAL_Driver/Src/stm32h7xx_hal_gpio.c ****         activated or not.
  29:Drivers/STM32H7xx_HAL_Driver/Src/stm32h7xx_hal_gpio.c **** 
  30:Drivers/STM32H7xx_HAL_Driver/Src/stm32h7xx_hal_gpio.c ****     (+) In Output or Alternate mode, each IO can be configured on open-drain or push-pull
ARM GAS  C:\Users\root\AppData\Local\Temp\cc7wkqRG.s 			page 2


  31:Drivers/STM32H7xx_HAL_Driver/Src/stm32h7xx_hal_gpio.c ****         type and the IO speed can be selected depending on the VDD value.
  32:Drivers/STM32H7xx_HAL_Driver/Src/stm32h7xx_hal_gpio.c **** 
  33:Drivers/STM32H7xx_HAL_Driver/Src/stm32h7xx_hal_gpio.c ****     (+) The microcontroller IO pins are connected to onboard peripherals/modules through a
  34:Drivers/STM32H7xx_HAL_Driver/Src/stm32h7xx_hal_gpio.c ****         multiplexer that allows only one peripheral alternate function (AF) connected
  35:Drivers/STM32H7xx_HAL_Driver/Src/stm32h7xx_hal_gpio.c ****        to an IO pin at a time. In this way, there can be no conflict between peripherals
  36:Drivers/STM32H7xx_HAL_Driver/Src/stm32h7xx_hal_gpio.c ****        sharing the same IO pin.
  37:Drivers/STM32H7xx_HAL_Driver/Src/stm32h7xx_hal_gpio.c **** 
  38:Drivers/STM32H7xx_HAL_Driver/Src/stm32h7xx_hal_gpio.c ****     (+) All ports have external interrupt/event capability. To use external interrupt
  39:Drivers/STM32H7xx_HAL_Driver/Src/stm32h7xx_hal_gpio.c ****         lines, the port must be configured in input mode. All available GPIO pins are
  40:Drivers/STM32H7xx_HAL_Driver/Src/stm32h7xx_hal_gpio.c ****         connected to the 16 external interrupt/event lines from EXTI0 to EXTI15.
  41:Drivers/STM32H7xx_HAL_Driver/Src/stm32h7xx_hal_gpio.c **** 
  42:Drivers/STM32H7xx_HAL_Driver/Src/stm32h7xx_hal_gpio.c ****   The external interrupt/event controller consists of up to 23 edge detectors
  43:Drivers/STM32H7xx_HAL_Driver/Src/stm32h7xx_hal_gpio.c ****         (16 lines are connected to GPIO) for generating event/interrupt requests (each
  44:Drivers/STM32H7xx_HAL_Driver/Src/stm32h7xx_hal_gpio.c ****         input line can be independently configured to select the type (interrupt or event)
  45:Drivers/STM32H7xx_HAL_Driver/Src/stm32h7xx_hal_gpio.c ****         and the corresponding trigger event (rising or falling or both). Each line can
  46:Drivers/STM32H7xx_HAL_Driver/Src/stm32h7xx_hal_gpio.c ****         also be masked independently.
  47:Drivers/STM32H7xx_HAL_Driver/Src/stm32h7xx_hal_gpio.c **** 
  48:Drivers/STM32H7xx_HAL_Driver/Src/stm32h7xx_hal_gpio.c ****                      ##### How to use this driver #####
  49:Drivers/STM32H7xx_HAL_Driver/Src/stm32h7xx_hal_gpio.c ****   ==============================================================================
  50:Drivers/STM32H7xx_HAL_Driver/Src/stm32h7xx_hal_gpio.c ****   [..]
  51:Drivers/STM32H7xx_HAL_Driver/Src/stm32h7xx_hal_gpio.c ****     (#) Enable the GPIO AHB clock using the following function: __HAL_RCC_GPIOx_CLK_ENABLE().
  52:Drivers/STM32H7xx_HAL_Driver/Src/stm32h7xx_hal_gpio.c **** 
  53:Drivers/STM32H7xx_HAL_Driver/Src/stm32h7xx_hal_gpio.c ****     (#) Configure the GPIO pin(s) using HAL_GPIO_Init().
  54:Drivers/STM32H7xx_HAL_Driver/Src/stm32h7xx_hal_gpio.c ****         (++) Configure the IO mode using "Mode" member from GPIO_InitTypeDef structure
  55:Drivers/STM32H7xx_HAL_Driver/Src/stm32h7xx_hal_gpio.c ****         (++) Activate Pull-up, Pull-down resistor using "Pull" member from GPIO_InitTypeDef
  56:Drivers/STM32H7xx_HAL_Driver/Src/stm32h7xx_hal_gpio.c ****              structure.
  57:Drivers/STM32H7xx_HAL_Driver/Src/stm32h7xx_hal_gpio.c ****         (++) In case of Output or alternate function mode selection: the speed is
  58:Drivers/STM32H7xx_HAL_Driver/Src/stm32h7xx_hal_gpio.c ****              configured through "Speed" member from GPIO_InitTypeDef structure.
  59:Drivers/STM32H7xx_HAL_Driver/Src/stm32h7xx_hal_gpio.c ****         (++) In alternate mode is selection, the alternate function connected to the IO
  60:Drivers/STM32H7xx_HAL_Driver/Src/stm32h7xx_hal_gpio.c ****              is configured through "Alternate" member from GPIO_InitTypeDef structure.
  61:Drivers/STM32H7xx_HAL_Driver/Src/stm32h7xx_hal_gpio.c ****         (++) Analog mode is required when a pin is to be used as ADC channel
  62:Drivers/STM32H7xx_HAL_Driver/Src/stm32h7xx_hal_gpio.c ****              or DAC output.
  63:Drivers/STM32H7xx_HAL_Driver/Src/stm32h7xx_hal_gpio.c ****         (++) In case of external interrupt/event selection the "Mode" member from
  64:Drivers/STM32H7xx_HAL_Driver/Src/stm32h7xx_hal_gpio.c ****              GPIO_InitTypeDef structure select the type (interrupt or event) and
  65:Drivers/STM32H7xx_HAL_Driver/Src/stm32h7xx_hal_gpio.c ****              the corresponding trigger event (rising or falling or both).
  66:Drivers/STM32H7xx_HAL_Driver/Src/stm32h7xx_hal_gpio.c **** 
  67:Drivers/STM32H7xx_HAL_Driver/Src/stm32h7xx_hal_gpio.c ****     (#) In case of external interrupt/event mode selection, configure NVIC IRQ priority
  68:Drivers/STM32H7xx_HAL_Driver/Src/stm32h7xx_hal_gpio.c ****         mapped to the EXTI line using HAL_NVIC_SetPriority() and enable it using
  69:Drivers/STM32H7xx_HAL_Driver/Src/stm32h7xx_hal_gpio.c ****         HAL_NVIC_EnableIRQ().
  70:Drivers/STM32H7xx_HAL_Driver/Src/stm32h7xx_hal_gpio.c **** 
  71:Drivers/STM32H7xx_HAL_Driver/Src/stm32h7xx_hal_gpio.c ****     (#) To get the level of a pin configured in input mode use HAL_GPIO_ReadPin().
  72:Drivers/STM32H7xx_HAL_Driver/Src/stm32h7xx_hal_gpio.c **** 
  73:Drivers/STM32H7xx_HAL_Driver/Src/stm32h7xx_hal_gpio.c ****     (#) To set/reset the level of a pin configured in output mode use
  74:Drivers/STM32H7xx_HAL_Driver/Src/stm32h7xx_hal_gpio.c ****         HAL_GPIO_WritePin()/HAL_GPIO_TogglePin().
  75:Drivers/STM32H7xx_HAL_Driver/Src/stm32h7xx_hal_gpio.c **** 
  76:Drivers/STM32H7xx_HAL_Driver/Src/stm32h7xx_hal_gpio.c ****    (#) To lock pin configuration until next reset use HAL_GPIO_LockPin().
  77:Drivers/STM32H7xx_HAL_Driver/Src/stm32h7xx_hal_gpio.c **** 
  78:Drivers/STM32H7xx_HAL_Driver/Src/stm32h7xx_hal_gpio.c **** 
  79:Drivers/STM32H7xx_HAL_Driver/Src/stm32h7xx_hal_gpio.c ****     (#) During and just after reset, the alternate functions are not
  80:Drivers/STM32H7xx_HAL_Driver/Src/stm32h7xx_hal_gpio.c ****         active and the GPIO pins are configured in input floating mode (except JTAG
  81:Drivers/STM32H7xx_HAL_Driver/Src/stm32h7xx_hal_gpio.c ****         pins).
  82:Drivers/STM32H7xx_HAL_Driver/Src/stm32h7xx_hal_gpio.c **** 
  83:Drivers/STM32H7xx_HAL_Driver/Src/stm32h7xx_hal_gpio.c ****     (#) The LSE oscillator pins OSC32_IN and OSC32_OUT can be used as general purpose
  84:Drivers/STM32H7xx_HAL_Driver/Src/stm32h7xx_hal_gpio.c ****         (PC14 and PC15, respectively) when the LSE oscillator is off. The LSE has
  85:Drivers/STM32H7xx_HAL_Driver/Src/stm32h7xx_hal_gpio.c ****         priority over the GPIO function.
  86:Drivers/STM32H7xx_HAL_Driver/Src/stm32h7xx_hal_gpio.c **** 
  87:Drivers/STM32H7xx_HAL_Driver/Src/stm32h7xx_hal_gpio.c ****     (#) The HSE oscillator pins OSC_IN/OSC_OUT can be used as
ARM GAS  C:\Users\root\AppData\Local\Temp\cc7wkqRG.s 			page 3


  88:Drivers/STM32H7xx_HAL_Driver/Src/stm32h7xx_hal_gpio.c ****         general purpose PH0 and PH1, respectively, when the HSE oscillator is off.
  89:Drivers/STM32H7xx_HAL_Driver/Src/stm32h7xx_hal_gpio.c ****         The HSE has priority over the GPIO function.
  90:Drivers/STM32H7xx_HAL_Driver/Src/stm32h7xx_hal_gpio.c **** 
  91:Drivers/STM32H7xx_HAL_Driver/Src/stm32h7xx_hal_gpio.c ****   @endverbatim
  92:Drivers/STM32H7xx_HAL_Driver/Src/stm32h7xx_hal_gpio.c ****   ******************************************************************************
  93:Drivers/STM32H7xx_HAL_Driver/Src/stm32h7xx_hal_gpio.c ****   * @attention
  94:Drivers/STM32H7xx_HAL_Driver/Src/stm32h7xx_hal_gpio.c ****   *
  95:Drivers/STM32H7xx_HAL_Driver/Src/stm32h7xx_hal_gpio.c ****   * <h2><center>&copy; COPYRIGHT(c) 2017 STMicroelectronics.
  96:Drivers/STM32H7xx_HAL_Driver/Src/stm32h7xx_hal_gpio.c ****   * All rights reserved.</center></h2>
  97:Drivers/STM32H7xx_HAL_Driver/Src/stm32h7xx_hal_gpio.c ****   *
  98:Drivers/STM32H7xx_HAL_Driver/Src/stm32h7xx_hal_gpio.c ****   * This software component is licensed by ST under BSD 3-Clause license,
  99:Drivers/STM32H7xx_HAL_Driver/Src/stm32h7xx_hal_gpio.c ****   * the "License"; You may not use this file except in compliance with the
 100:Drivers/STM32H7xx_HAL_Driver/Src/stm32h7xx_hal_gpio.c ****   * License. You may obtain a copy of the License at:
 101:Drivers/STM32H7xx_HAL_Driver/Src/stm32h7xx_hal_gpio.c ****   *                        opensource.org/licenses/BSD-3-Clause
 102:Drivers/STM32H7xx_HAL_Driver/Src/stm32h7xx_hal_gpio.c ****   *
 103:Drivers/STM32H7xx_HAL_Driver/Src/stm32h7xx_hal_gpio.c ****   ******************************************************************************
 104:Drivers/STM32H7xx_HAL_Driver/Src/stm32h7xx_hal_gpio.c ****   */
 105:Drivers/STM32H7xx_HAL_Driver/Src/stm32h7xx_hal_gpio.c **** 
 106:Drivers/STM32H7xx_HAL_Driver/Src/stm32h7xx_hal_gpio.c **** /* Includes ------------------------------------------------------------------*/
 107:Drivers/STM32H7xx_HAL_Driver/Src/stm32h7xx_hal_gpio.c **** #include "stm32h7xx_hal.h"
 108:Drivers/STM32H7xx_HAL_Driver/Src/stm32h7xx_hal_gpio.c **** 
 109:Drivers/STM32H7xx_HAL_Driver/Src/stm32h7xx_hal_gpio.c **** /** @addtogroup STM32H7xx_HAL_Driver
 110:Drivers/STM32H7xx_HAL_Driver/Src/stm32h7xx_hal_gpio.c ****   * @{
 111:Drivers/STM32H7xx_HAL_Driver/Src/stm32h7xx_hal_gpio.c ****   */
 112:Drivers/STM32H7xx_HAL_Driver/Src/stm32h7xx_hal_gpio.c **** 
 113:Drivers/STM32H7xx_HAL_Driver/Src/stm32h7xx_hal_gpio.c **** /** @defgroup GPIO  GPIO
 114:Drivers/STM32H7xx_HAL_Driver/Src/stm32h7xx_hal_gpio.c ****   * @brief GPIO HAL module driver
 115:Drivers/STM32H7xx_HAL_Driver/Src/stm32h7xx_hal_gpio.c ****   * @{
 116:Drivers/STM32H7xx_HAL_Driver/Src/stm32h7xx_hal_gpio.c ****   */
 117:Drivers/STM32H7xx_HAL_Driver/Src/stm32h7xx_hal_gpio.c **** 
 118:Drivers/STM32H7xx_HAL_Driver/Src/stm32h7xx_hal_gpio.c **** #ifdef HAL_GPIO_MODULE_ENABLED
 119:Drivers/STM32H7xx_HAL_Driver/Src/stm32h7xx_hal_gpio.c **** 
 120:Drivers/STM32H7xx_HAL_Driver/Src/stm32h7xx_hal_gpio.c **** /* Private typedef -----------------------------------------------------------*/
 121:Drivers/STM32H7xx_HAL_Driver/Src/stm32h7xx_hal_gpio.c **** /* Private defines ------------------------------------------------------------*/
 122:Drivers/STM32H7xx_HAL_Driver/Src/stm32h7xx_hal_gpio.c **** /** @addtogroup GPIO_Private_Constants GPIO Private Constants
 123:Drivers/STM32H7xx_HAL_Driver/Src/stm32h7xx_hal_gpio.c ****   * @{
 124:Drivers/STM32H7xx_HAL_Driver/Src/stm32h7xx_hal_gpio.c ****   */
 125:Drivers/STM32H7xx_HAL_Driver/Src/stm32h7xx_hal_gpio.c **** #define GPIO_MODE             (0x00000003U)
 126:Drivers/STM32H7xx_HAL_Driver/Src/stm32h7xx_hal_gpio.c **** #define ANALOG_MODE           (0x00000008U)
 127:Drivers/STM32H7xx_HAL_Driver/Src/stm32h7xx_hal_gpio.c **** #define EXTI_MODE             (0x10000000U)
 128:Drivers/STM32H7xx_HAL_Driver/Src/stm32h7xx_hal_gpio.c **** #define GPIO_MODE_IT          (0x00010000U)
 129:Drivers/STM32H7xx_HAL_Driver/Src/stm32h7xx_hal_gpio.c **** #define GPIO_MODE_EVT         (0x00020000U)
 130:Drivers/STM32H7xx_HAL_Driver/Src/stm32h7xx_hal_gpio.c **** #define RISING_EDGE           (0x00100000U)
 131:Drivers/STM32H7xx_HAL_Driver/Src/stm32h7xx_hal_gpio.c **** #define FALLING_EDGE          (0x00200000U)
 132:Drivers/STM32H7xx_HAL_Driver/Src/stm32h7xx_hal_gpio.c **** #define GPIO_OUTPUT_TYPE      (0x00000010U)
 133:Drivers/STM32H7xx_HAL_Driver/Src/stm32h7xx_hal_gpio.c **** 
 134:Drivers/STM32H7xx_HAL_Driver/Src/stm32h7xx_hal_gpio.c **** #if defined(DUAL_CORE)
 135:Drivers/STM32H7xx_HAL_Driver/Src/stm32h7xx_hal_gpio.c **** #define EXTI_CPU1             (0x01000000U)
 136:Drivers/STM32H7xx_HAL_Driver/Src/stm32h7xx_hal_gpio.c **** #define EXTI_CPU2             (0x02000000U)
 137:Drivers/STM32H7xx_HAL_Driver/Src/stm32h7xx_hal_gpio.c **** #endif /*DUAL_CORE*/
 138:Drivers/STM32H7xx_HAL_Driver/Src/stm32h7xx_hal_gpio.c **** #define GPIO_NUMBER           (16U)
 139:Drivers/STM32H7xx_HAL_Driver/Src/stm32h7xx_hal_gpio.c **** /**
 140:Drivers/STM32H7xx_HAL_Driver/Src/stm32h7xx_hal_gpio.c ****   * @}
 141:Drivers/STM32H7xx_HAL_Driver/Src/stm32h7xx_hal_gpio.c ****   */
 142:Drivers/STM32H7xx_HAL_Driver/Src/stm32h7xx_hal_gpio.c **** /* Private macro -------------------------------------------------------------*/
 143:Drivers/STM32H7xx_HAL_Driver/Src/stm32h7xx_hal_gpio.c **** /* Private variables ---------------------------------------------------------*/
 144:Drivers/STM32H7xx_HAL_Driver/Src/stm32h7xx_hal_gpio.c **** /* Private function prototypes -----------------------------------------------*/
ARM GAS  C:\Users\root\AppData\Local\Temp\cc7wkqRG.s 			page 4


 145:Drivers/STM32H7xx_HAL_Driver/Src/stm32h7xx_hal_gpio.c **** /* Private functions ---------------------------------------------------------*/
 146:Drivers/STM32H7xx_HAL_Driver/Src/stm32h7xx_hal_gpio.c **** /* Exported functions --------------------------------------------------------*/
 147:Drivers/STM32H7xx_HAL_Driver/Src/stm32h7xx_hal_gpio.c **** /** @defgroup GPIO_Exported_Functions GPIO Exported Functions
 148:Drivers/STM32H7xx_HAL_Driver/Src/stm32h7xx_hal_gpio.c ****   * @{
 149:Drivers/STM32H7xx_HAL_Driver/Src/stm32h7xx_hal_gpio.c ****   */
 150:Drivers/STM32H7xx_HAL_Driver/Src/stm32h7xx_hal_gpio.c **** 
 151:Drivers/STM32H7xx_HAL_Driver/Src/stm32h7xx_hal_gpio.c **** /** @defgroup GPIO_Exported_Functions_Group1 Initialization and de-initialization functions
 152:Drivers/STM32H7xx_HAL_Driver/Src/stm32h7xx_hal_gpio.c ****  *  @brief    Initialization and Configuration functions
 153:Drivers/STM32H7xx_HAL_Driver/Src/stm32h7xx_hal_gpio.c ****  *
 154:Drivers/STM32H7xx_HAL_Driver/Src/stm32h7xx_hal_gpio.c **** @verbatim
 155:Drivers/STM32H7xx_HAL_Driver/Src/stm32h7xx_hal_gpio.c ****  ===============================================================================
 156:Drivers/STM32H7xx_HAL_Driver/Src/stm32h7xx_hal_gpio.c ****               ##### Initialization and de-initialization functions #####
 157:Drivers/STM32H7xx_HAL_Driver/Src/stm32h7xx_hal_gpio.c ****  ===============================================================================
 158:Drivers/STM32H7xx_HAL_Driver/Src/stm32h7xx_hal_gpio.c ****   [..]
 159:Drivers/STM32H7xx_HAL_Driver/Src/stm32h7xx_hal_gpio.c ****     This section provides functions allowing to initialize and de-initialize the GPIOs
 160:Drivers/STM32H7xx_HAL_Driver/Src/stm32h7xx_hal_gpio.c ****     to be ready for use.
 161:Drivers/STM32H7xx_HAL_Driver/Src/stm32h7xx_hal_gpio.c **** 
 162:Drivers/STM32H7xx_HAL_Driver/Src/stm32h7xx_hal_gpio.c **** @endverbatim
 163:Drivers/STM32H7xx_HAL_Driver/Src/stm32h7xx_hal_gpio.c ****   * @{
 164:Drivers/STM32H7xx_HAL_Driver/Src/stm32h7xx_hal_gpio.c ****   */
 165:Drivers/STM32H7xx_HAL_Driver/Src/stm32h7xx_hal_gpio.c **** 
 166:Drivers/STM32H7xx_HAL_Driver/Src/stm32h7xx_hal_gpio.c **** /**
 167:Drivers/STM32H7xx_HAL_Driver/Src/stm32h7xx_hal_gpio.c ****   * @brief  Initializes the GPIOx peripheral according to the specified parameters in the GPIO_Init
 168:Drivers/STM32H7xx_HAL_Driver/Src/stm32h7xx_hal_gpio.c ****   * @param  GPIOx: where x can be (A..K) to select the GPIO peripheral.
 169:Drivers/STM32H7xx_HAL_Driver/Src/stm32h7xx_hal_gpio.c ****   * @param  GPIO_Init: pointer to a GPIO_InitTypeDef structure that contains
 170:Drivers/STM32H7xx_HAL_Driver/Src/stm32h7xx_hal_gpio.c ****   *         the configuration information for the specified GPIO peripheral.
 171:Drivers/STM32H7xx_HAL_Driver/Src/stm32h7xx_hal_gpio.c ****   * @retval None
 172:Drivers/STM32H7xx_HAL_Driver/Src/stm32h7xx_hal_gpio.c ****   */
 173:Drivers/STM32H7xx_HAL_Driver/Src/stm32h7xx_hal_gpio.c **** void HAL_GPIO_Init(GPIO_TypeDef  *GPIOx, GPIO_InitTypeDef *GPIO_Init)
 174:Drivers/STM32H7xx_HAL_Driver/Src/stm32h7xx_hal_gpio.c **** {
  29              		.loc 1 174 1 view -0
  30              		.cfi_startproc
  31              		@ args = 0, pretend = 0, frame = 8
  32              		@ frame_needed = 0, uses_anonymous_args = 0
  33              		.loc 1 174 1 is_stmt 0 view .LVU1
  34 0000 F0B5     		push	{r4, r5, r6, r7, lr}
  35              	.LCFI0:
  36              		.cfi_def_cfa_offset 20
  37              		.cfi_offset 4, -20
  38              		.cfi_offset 5, -16
  39              		.cfi_offset 6, -12
  40              		.cfi_offset 7, -8
  41              		.cfi_offset 14, -4
  42 0002 83B0     		sub	sp, sp, #12
  43              	.LCFI1:
  44              		.cfi_def_cfa_offset 32
 175:Drivers/STM32H7xx_HAL_Driver/Src/stm32h7xx_hal_gpio.c ****   uint32_t position = 0x00U;
  45              		.loc 1 175 3 is_stmt 1 view .LVU2
  46              	.LVL1:
 176:Drivers/STM32H7xx_HAL_Driver/Src/stm32h7xx_hal_gpio.c ****   uint32_t iocurrent;
  47              		.loc 1 176 3 view .LVU3
 177:Drivers/STM32H7xx_HAL_Driver/Src/stm32h7xx_hal_gpio.c ****   uint32_t temp;
  48              		.loc 1 177 3 view .LVU4
 178:Drivers/STM32H7xx_HAL_Driver/Src/stm32h7xx_hal_gpio.c ****   EXTI_Core_TypeDef *EXTI_CurrentCPU;
  49              		.loc 1 178 3 view .LVU5
 179:Drivers/STM32H7xx_HAL_Driver/Src/stm32h7xx_hal_gpio.c **** 
 180:Drivers/STM32H7xx_HAL_Driver/Src/stm32h7xx_hal_gpio.c **** #if defined(DUAL_CORE) && defined(CORE_CM4)
ARM GAS  C:\Users\root\AppData\Local\Temp\cc7wkqRG.s 			page 5


 181:Drivers/STM32H7xx_HAL_Driver/Src/stm32h7xx_hal_gpio.c ****   EXTI_CurrentCPU = EXTI_D2; /* EXTI for CM4 CPU */
 182:Drivers/STM32H7xx_HAL_Driver/Src/stm32h7xx_hal_gpio.c **** #else
 183:Drivers/STM32H7xx_HAL_Driver/Src/stm32h7xx_hal_gpio.c ****   EXTI_CurrentCPU = EXTI_D1; /* EXTI for CM7 CPU */
  50              		.loc 1 183 3 view .LVU6
 184:Drivers/STM32H7xx_HAL_Driver/Src/stm32h7xx_hal_gpio.c **** #endif
 185:Drivers/STM32H7xx_HAL_Driver/Src/stm32h7xx_hal_gpio.c **** 
 186:Drivers/STM32H7xx_HAL_Driver/Src/stm32h7xx_hal_gpio.c ****   /* Check the parameters */
 187:Drivers/STM32H7xx_HAL_Driver/Src/stm32h7xx_hal_gpio.c ****   assert_param(IS_GPIO_ALL_INSTANCE(GPIOx));
  51              		.loc 1 187 3 view .LVU7
 188:Drivers/STM32H7xx_HAL_Driver/Src/stm32h7xx_hal_gpio.c ****   assert_param(IS_GPIO_PIN(GPIO_Init->Pin));
  52              		.loc 1 188 3 view .LVU8
 189:Drivers/STM32H7xx_HAL_Driver/Src/stm32h7xx_hal_gpio.c ****   assert_param(IS_GPIO_MODE(GPIO_Init->Mode));
  53              		.loc 1 189 3 view .LVU9
 190:Drivers/STM32H7xx_HAL_Driver/Src/stm32h7xx_hal_gpio.c ****   assert_param(IS_GPIO_PULL(GPIO_Init->Pull));
  54              		.loc 1 190 3 view .LVU10
 191:Drivers/STM32H7xx_HAL_Driver/Src/stm32h7xx_hal_gpio.c **** 
 192:Drivers/STM32H7xx_HAL_Driver/Src/stm32h7xx_hal_gpio.c ****   /* Configure the port pins */
 193:Drivers/STM32H7xx_HAL_Driver/Src/stm32h7xx_hal_gpio.c ****   while (((GPIO_Init->Pin) >> position) != 0x00U)
  55              		.loc 1 193 3 view .LVU11
 175:Drivers/STM32H7xx_HAL_Driver/Src/stm32h7xx_hal_gpio.c ****   uint32_t iocurrent;
  56              		.loc 1 175 12 is_stmt 0 view .LVU12
  57 0004 0023     		movs	r3, #0
  58              		.loc 1 193 9 view .LVU13
  59 0006 3AE0     		b	.L2
  60              	.LVL2:
  61              	.L25:
 194:Drivers/STM32H7xx_HAL_Driver/Src/stm32h7xx_hal_gpio.c ****   {
 195:Drivers/STM32H7xx_HAL_Driver/Src/stm32h7xx_hal_gpio.c ****     /* Get current io position */
 196:Drivers/STM32H7xx_HAL_Driver/Src/stm32h7xx_hal_gpio.c ****     iocurrent = (GPIO_Init->Pin) & (1UL << position);
 197:Drivers/STM32H7xx_HAL_Driver/Src/stm32h7xx_hal_gpio.c **** 
 198:Drivers/STM32H7xx_HAL_Driver/Src/stm32h7xx_hal_gpio.c ****     if (iocurrent != 0x00U)
 199:Drivers/STM32H7xx_HAL_Driver/Src/stm32h7xx_hal_gpio.c ****     {
 200:Drivers/STM32H7xx_HAL_Driver/Src/stm32h7xx_hal_gpio.c ****       /*--------------------- GPIO Mode Configuration ------------------------*/
 201:Drivers/STM32H7xx_HAL_Driver/Src/stm32h7xx_hal_gpio.c ****       /* In case of Output or Alternate function mode selection */
 202:Drivers/STM32H7xx_HAL_Driver/Src/stm32h7xx_hal_gpio.c ****       if ((GPIO_Init->Mode == GPIO_MODE_OUTPUT_PP) || (GPIO_Init->Mode == GPIO_MODE_AF_PP) ||
 203:Drivers/STM32H7xx_HAL_Driver/Src/stm32h7xx_hal_gpio.c ****           (GPIO_Init->Mode == GPIO_MODE_OUTPUT_OD) || (GPIO_Init->Mode == GPIO_MODE_AF_OD))
 204:Drivers/STM32H7xx_HAL_Driver/Src/stm32h7xx_hal_gpio.c ****       {
 205:Drivers/STM32H7xx_HAL_Driver/Src/stm32h7xx_hal_gpio.c ****         /* Check the Speed parameter */
 206:Drivers/STM32H7xx_HAL_Driver/Src/stm32h7xx_hal_gpio.c ****         assert_param(IS_GPIO_SPEED(GPIO_Init->Speed));
 207:Drivers/STM32H7xx_HAL_Driver/Src/stm32h7xx_hal_gpio.c ****         /* Configure the IO Speed */
 208:Drivers/STM32H7xx_HAL_Driver/Src/stm32h7xx_hal_gpio.c ****         temp = GPIOx->OSPEEDR;
 209:Drivers/STM32H7xx_HAL_Driver/Src/stm32h7xx_hal_gpio.c ****         temp &= ~(GPIO_OSPEEDR_OSPEED0 << (position * 2U));
 210:Drivers/STM32H7xx_HAL_Driver/Src/stm32h7xx_hal_gpio.c ****         temp |= (GPIO_Init->Speed << (position * 2U));
 211:Drivers/STM32H7xx_HAL_Driver/Src/stm32h7xx_hal_gpio.c ****         GPIOx->OSPEEDR = temp;
 212:Drivers/STM32H7xx_HAL_Driver/Src/stm32h7xx_hal_gpio.c **** 
 213:Drivers/STM32H7xx_HAL_Driver/Src/stm32h7xx_hal_gpio.c ****         /* Configure the IO Output Type */
 214:Drivers/STM32H7xx_HAL_Driver/Src/stm32h7xx_hal_gpio.c ****         temp = GPIOx->OTYPER;
 215:Drivers/STM32H7xx_HAL_Driver/Src/stm32h7xx_hal_gpio.c ****         temp &= ~(GPIO_OTYPER_OT0 << position) ;
 216:Drivers/STM32H7xx_HAL_Driver/Src/stm32h7xx_hal_gpio.c ****         temp |= (((GPIO_Init->Mode & GPIO_OUTPUT_TYPE) >> 4U) << position);
 217:Drivers/STM32H7xx_HAL_Driver/Src/stm32h7xx_hal_gpio.c ****         GPIOx->OTYPER = temp;
 218:Drivers/STM32H7xx_HAL_Driver/Src/stm32h7xx_hal_gpio.c ****       }
 219:Drivers/STM32H7xx_HAL_Driver/Src/stm32h7xx_hal_gpio.c **** 
 220:Drivers/STM32H7xx_HAL_Driver/Src/stm32h7xx_hal_gpio.c ****       /* Activate the Pull-up or Pull down resistor for the current IO */
 221:Drivers/STM32H7xx_HAL_Driver/Src/stm32h7xx_hal_gpio.c ****       temp = GPIOx->PUPDR;
 222:Drivers/STM32H7xx_HAL_Driver/Src/stm32h7xx_hal_gpio.c ****       temp &= ~(GPIO_PUPDR_PUPD0 << (position * 2U));
 223:Drivers/STM32H7xx_HAL_Driver/Src/stm32h7xx_hal_gpio.c ****       temp |= ((GPIO_Init->Pull) << (position * 2U));
 224:Drivers/STM32H7xx_HAL_Driver/Src/stm32h7xx_hal_gpio.c ****       GPIOx->PUPDR = temp;
ARM GAS  C:\Users\root\AppData\Local\Temp\cc7wkqRG.s 			page 6


 225:Drivers/STM32H7xx_HAL_Driver/Src/stm32h7xx_hal_gpio.c **** 
 226:Drivers/STM32H7xx_HAL_Driver/Src/stm32h7xx_hal_gpio.c ****       /* In case of Alternate function mode selection */
 227:Drivers/STM32H7xx_HAL_Driver/Src/stm32h7xx_hal_gpio.c ****       if ((GPIO_Init->Mode == GPIO_MODE_AF_PP) || (GPIO_Init->Mode == GPIO_MODE_AF_OD))
 228:Drivers/STM32H7xx_HAL_Driver/Src/stm32h7xx_hal_gpio.c ****       {
 229:Drivers/STM32H7xx_HAL_Driver/Src/stm32h7xx_hal_gpio.c ****         /* Check the Alternate function parameters */
 230:Drivers/STM32H7xx_HAL_Driver/Src/stm32h7xx_hal_gpio.c ****         assert_param(IS_GPIO_AF_INSTANCE(GPIOx));
 231:Drivers/STM32H7xx_HAL_Driver/Src/stm32h7xx_hal_gpio.c ****         assert_param(IS_GPIO_AF(GPIO_Init->Alternate));
 232:Drivers/STM32H7xx_HAL_Driver/Src/stm32h7xx_hal_gpio.c **** 
 233:Drivers/STM32H7xx_HAL_Driver/Src/stm32h7xx_hal_gpio.c ****         /* Configure Alternate function mapped with the current IO */
 234:Drivers/STM32H7xx_HAL_Driver/Src/stm32h7xx_hal_gpio.c ****         temp = GPIOx->AFR[position >> 3U];
 235:Drivers/STM32H7xx_HAL_Driver/Src/stm32h7xx_hal_gpio.c ****         temp &= ~(0xFU << ((position & 0x07U) * 4U));
 236:Drivers/STM32H7xx_HAL_Driver/Src/stm32h7xx_hal_gpio.c ****         temp |= ((GPIO_Init->Alternate) << ((position & 0x07U) * 4U));
 237:Drivers/STM32H7xx_HAL_Driver/Src/stm32h7xx_hal_gpio.c ****         GPIOx->AFR[position >> 3U] = temp;
 238:Drivers/STM32H7xx_HAL_Driver/Src/stm32h7xx_hal_gpio.c ****       }
 239:Drivers/STM32H7xx_HAL_Driver/Src/stm32h7xx_hal_gpio.c **** 
 240:Drivers/STM32H7xx_HAL_Driver/Src/stm32h7xx_hal_gpio.c ****       /* Configure IO Direction mode (Input, Output, Alternate or Analog) */
 241:Drivers/STM32H7xx_HAL_Driver/Src/stm32h7xx_hal_gpio.c ****       temp = GPIOx->MODER;
 242:Drivers/STM32H7xx_HAL_Driver/Src/stm32h7xx_hal_gpio.c ****       temp &= ~(GPIO_MODER_MODE0 << (position * 2U));
 243:Drivers/STM32H7xx_HAL_Driver/Src/stm32h7xx_hal_gpio.c ****       temp |= ((GPIO_Init->Mode & GPIO_MODE) << (position * 2U));
 244:Drivers/STM32H7xx_HAL_Driver/Src/stm32h7xx_hal_gpio.c ****       GPIOx->MODER = temp;
 245:Drivers/STM32H7xx_HAL_Driver/Src/stm32h7xx_hal_gpio.c **** 
 246:Drivers/STM32H7xx_HAL_Driver/Src/stm32h7xx_hal_gpio.c ****       /*--------------------- EXTI Mode Configuration ------------------------*/
 247:Drivers/STM32H7xx_HAL_Driver/Src/stm32h7xx_hal_gpio.c ****       /* Configure the External Interrupt or event for the current IO */
 248:Drivers/STM32H7xx_HAL_Driver/Src/stm32h7xx_hal_gpio.c ****       if ((GPIO_Init->Mode & EXTI_MODE) == EXTI_MODE)
 249:Drivers/STM32H7xx_HAL_Driver/Src/stm32h7xx_hal_gpio.c ****       {
 250:Drivers/STM32H7xx_HAL_Driver/Src/stm32h7xx_hal_gpio.c ****         /* Enable SYSCFG Clock */
 251:Drivers/STM32H7xx_HAL_Driver/Src/stm32h7xx_hal_gpio.c ****         __HAL_RCC_SYSCFG_CLK_ENABLE();
 252:Drivers/STM32H7xx_HAL_Driver/Src/stm32h7xx_hal_gpio.c **** 
 253:Drivers/STM32H7xx_HAL_Driver/Src/stm32h7xx_hal_gpio.c ****         temp = SYSCFG->EXTICR[position >> 2U];
 254:Drivers/STM32H7xx_HAL_Driver/Src/stm32h7xx_hal_gpio.c ****         temp &= ~(0x0FUL << (4U * (position & 0x03U)));
 255:Drivers/STM32H7xx_HAL_Driver/Src/stm32h7xx_hal_gpio.c ****         temp |= (GPIO_GET_INDEX(GPIOx) << (4U * (position & 0x03U)));
  62              		.loc 1 255 18 view .LVU14
  63 0008 0924     		movs	r4, #9
  64 000a 00E0     		b	.L7
  65              	.L13:
  66 000c 0024     		movs	r4, #0
  67              	.L7:
  68              		.loc 1 255 40 discriminator 40 view .LVU15
  69 000e B440     		lsls	r4, r4, r6
  70              		.loc 1 255 14 discriminator 40 view .LVU16
  71 0010 3C43     		orrs	r4, r4, r7
  72              	.LVL3:
 256:Drivers/STM32H7xx_HAL_Driver/Src/stm32h7xx_hal_gpio.c ****         SYSCFG->EXTICR[position >> 2U] = temp;
  73              		.loc 1 256 9 is_stmt 1 discriminator 40 view .LVU17
  74              		.loc 1 256 40 is_stmt 0 discriminator 40 view .LVU18
  75 0012 0235     		adds	r5, r5, #2
  76 0014 6F4E     		ldr	r6, .L26
  77 0016 46F82540 		str	r4, [r6, r5, lsl #2]
 257:Drivers/STM32H7xx_HAL_Driver/Src/stm32h7xx_hal_gpio.c **** 
 258:Drivers/STM32H7xx_HAL_Driver/Src/stm32h7xx_hal_gpio.c ****         /* Clear EXTI line configuration */
 259:Drivers/STM32H7xx_HAL_Driver/Src/stm32h7xx_hal_gpio.c ****         temp = EXTI_CurrentCPU->IMR1;
  78              		.loc 1 259 9 is_stmt 1 discriminator 40 view .LVU19
  79              		.loc 1 259 14 is_stmt 0 discriminator 40 view .LVU20
  80 001a 6F4C     		ldr	r4, .L26+4
  81              	.LVL4:
  82              		.loc 1 259 14 discriminator 40 view .LVU21
  83 001c 2568     		ldr	r5, [r4]
ARM GAS  C:\Users\root\AppData\Local\Temp\cc7wkqRG.s 			page 7


  84              	.LVL5:
 260:Drivers/STM32H7xx_HAL_Driver/Src/stm32h7xx_hal_gpio.c ****         temp &= ~(iocurrent);
  85              		.loc 1 260 9 is_stmt 1 discriminator 40 view .LVU22
  86              		.loc 1 260 17 is_stmt 0 discriminator 40 view .LVU23
  87 001e D443     		mvns	r4, r2
  88              		.loc 1 260 14 discriminator 40 view .LVU24
  89 0020 25EA0206 		bic	r6, r5, r2
  90              	.LVL6:
 261:Drivers/STM32H7xx_HAL_Driver/Src/stm32h7xx_hal_gpio.c ****         if ((GPIO_Init->Mode & GPIO_MODE_IT) == GPIO_MODE_IT)
  91              		.loc 1 261 9 is_stmt 1 discriminator 40 view .LVU25
  92              		.loc 1 261 23 is_stmt 0 discriminator 40 view .LVU26
  93 0024 4F68     		ldr	r7, [r1, #4]
  94              		.loc 1 261 12 discriminator 40 view .LVU27
  95 0026 17F4803F 		tst	r7, #65536
  96 002a 01D0     		beq	.L8
 262:Drivers/STM32H7xx_HAL_Driver/Src/stm32h7xx_hal_gpio.c ****         {
 263:Drivers/STM32H7xx_HAL_Driver/Src/stm32h7xx_hal_gpio.c ****           temp |= iocurrent;
  97              		.loc 1 263 11 is_stmt 1 view .LVU28
  98              		.loc 1 263 16 is_stmt 0 view .LVU29
  99 002c 42EA0506 		orr	r6, r2, r5
 100              	.LVL7:
 101              	.L8:
 264:Drivers/STM32H7xx_HAL_Driver/Src/stm32h7xx_hal_gpio.c ****         }
 265:Drivers/STM32H7xx_HAL_Driver/Src/stm32h7xx_hal_gpio.c ****         EXTI_CurrentCPU->IMR1 = temp;
 102              		.loc 1 265 9 is_stmt 1 view .LVU30
 103              		.loc 1 265 31 is_stmt 0 view .LVU31
 104 0030 694D     		ldr	r5, .L26+4
 105 0032 2E60     		str	r6, [r5]
 266:Drivers/STM32H7xx_HAL_Driver/Src/stm32h7xx_hal_gpio.c **** 
 267:Drivers/STM32H7xx_HAL_Driver/Src/stm32h7xx_hal_gpio.c ****         temp = EXTI_CurrentCPU->EMR1;
 106              		.loc 1 267 9 is_stmt 1 view .LVU32
 107              		.loc 1 267 14 is_stmt 0 view .LVU33
 108 0034 6E68     		ldr	r6, [r5, #4]
 109              	.LVL8:
 268:Drivers/STM32H7xx_HAL_Driver/Src/stm32h7xx_hal_gpio.c ****         temp &= ~(iocurrent);
 110              		.loc 1 268 9 is_stmt 1 view .LVU34
 111              		.loc 1 268 14 is_stmt 0 view .LVU35
 112 0036 04EA0605 		and	r5, r4, r6
 113              	.LVL9:
 269:Drivers/STM32H7xx_HAL_Driver/Src/stm32h7xx_hal_gpio.c ****         if ((GPIO_Init->Mode & GPIO_MODE_EVT) == GPIO_MODE_EVT)
 114              		.loc 1 269 9 is_stmt 1 view .LVU36
 115              		.loc 1 269 23 is_stmt 0 view .LVU37
 116 003a 4F68     		ldr	r7, [r1, #4]
 117              		.loc 1 269 12 view .LVU38
 118 003c 17F4003F 		tst	r7, #131072
 119 0040 01D0     		beq	.L9
 270:Drivers/STM32H7xx_HAL_Driver/Src/stm32h7xx_hal_gpio.c ****         {
 271:Drivers/STM32H7xx_HAL_Driver/Src/stm32h7xx_hal_gpio.c ****           temp |= iocurrent;
 120              		.loc 1 271 11 is_stmt 1 view .LVU39
 121              		.loc 1 271 16 is_stmt 0 view .LVU40
 122 0042 42EA0605 		orr	r5, r2, r6
 123              	.LVL10:
 124              	.L9:
 272:Drivers/STM32H7xx_HAL_Driver/Src/stm32h7xx_hal_gpio.c ****         }
 273:Drivers/STM32H7xx_HAL_Driver/Src/stm32h7xx_hal_gpio.c ****         EXTI_CurrentCPU->EMR1 = temp;
 125              		.loc 1 273 9 is_stmt 1 view .LVU41
 126              		.loc 1 273 31 is_stmt 0 view .LVU42
ARM GAS  C:\Users\root\AppData\Local\Temp\cc7wkqRG.s 			page 8


 127 0046 644E     		ldr	r6, .L26+4
 128 0048 7560     		str	r5, [r6, #4]
 274:Drivers/STM32H7xx_HAL_Driver/Src/stm32h7xx_hal_gpio.c **** 
 275:Drivers/STM32H7xx_HAL_Driver/Src/stm32h7xx_hal_gpio.c ****         /* Clear Rising Falling edge configuration */
 276:Drivers/STM32H7xx_HAL_Driver/Src/stm32h7xx_hal_gpio.c ****         temp = EXTI->RTSR1;
 129              		.loc 1 276 9 is_stmt 1 view .LVU43
 130              		.loc 1 276 14 is_stmt 0 view .LVU44
 131 004a 4FF0B045 		mov	r5, #1476395008
 132              	.LVL11:
 133              		.loc 1 276 14 view .LVU45
 134 004e 2D68     		ldr	r5, [r5]
 135              	.LVL12:
 277:Drivers/STM32H7xx_HAL_Driver/Src/stm32h7xx_hal_gpio.c ****         temp &= ~(iocurrent);
 136              		.loc 1 277 9 is_stmt 1 view .LVU46
 137              		.loc 1 277 14 is_stmt 0 view .LVU47
 138 0050 04EA0506 		and	r6, r4, r5
 139              	.LVL13:
 278:Drivers/STM32H7xx_HAL_Driver/Src/stm32h7xx_hal_gpio.c ****         if ((GPIO_Init->Mode & RISING_EDGE) == RISING_EDGE)
 140              		.loc 1 278 9 is_stmt 1 view .LVU48
 141              		.loc 1 278 23 is_stmt 0 view .LVU49
 142 0054 4F68     		ldr	r7, [r1, #4]
 143              		.loc 1 278 12 view .LVU50
 144 0056 17F4801F 		tst	r7, #1048576
 145 005a 01D0     		beq	.L10
 279:Drivers/STM32H7xx_HAL_Driver/Src/stm32h7xx_hal_gpio.c ****         {
 280:Drivers/STM32H7xx_HAL_Driver/Src/stm32h7xx_hal_gpio.c ****           temp |= iocurrent;
 146              		.loc 1 280 11 is_stmt 1 view .LVU51
 147              		.loc 1 280 16 is_stmt 0 view .LVU52
 148 005c 42EA0506 		orr	r6, r2, r5
 149              	.LVL14:
 150              	.L10:
 281:Drivers/STM32H7xx_HAL_Driver/Src/stm32h7xx_hal_gpio.c ****         }
 282:Drivers/STM32H7xx_HAL_Driver/Src/stm32h7xx_hal_gpio.c ****         EXTI->RTSR1 = temp;
 151              		.loc 1 282 9 is_stmt 1 view .LVU53
 152              		.loc 1 282 21 is_stmt 0 view .LVU54
 153 0060 4FF0B045 		mov	r5, #1476395008
 154 0064 2E60     		str	r6, [r5]
 283:Drivers/STM32H7xx_HAL_Driver/Src/stm32h7xx_hal_gpio.c **** 
 284:Drivers/STM32H7xx_HAL_Driver/Src/stm32h7xx_hal_gpio.c ****         temp = EXTI->FTSR1;
 155              		.loc 1 284 9 is_stmt 1 view .LVU55
 156              		.loc 1 284 14 is_stmt 0 view .LVU56
 157 0066 6D68     		ldr	r5, [r5, #4]
 158              	.LVL15:
 285:Drivers/STM32H7xx_HAL_Driver/Src/stm32h7xx_hal_gpio.c ****         temp &= ~(iocurrent);
 159              		.loc 1 285 9 is_stmt 1 view .LVU57
 160              		.loc 1 285 14 is_stmt 0 view .LVU58
 161 0068 2C40     		ands	r4, r4, r5
 162              	.LVL16:
 286:Drivers/STM32H7xx_HAL_Driver/Src/stm32h7xx_hal_gpio.c ****         if ((GPIO_Init->Mode & FALLING_EDGE) == FALLING_EDGE)
 163              		.loc 1 286 9 is_stmt 1 view .LVU59
 164              		.loc 1 286 23 is_stmt 0 view .LVU60
 165 006a 4E68     		ldr	r6, [r1, #4]
 166              		.loc 1 286 12 view .LVU61
 167 006c 16F4001F 		tst	r6, #2097152
 168 0070 01D0     		beq	.L11
 287:Drivers/STM32H7xx_HAL_Driver/Src/stm32h7xx_hal_gpio.c ****         {
 288:Drivers/STM32H7xx_HAL_Driver/Src/stm32h7xx_hal_gpio.c ****           temp |= iocurrent;
ARM GAS  C:\Users\root\AppData\Local\Temp\cc7wkqRG.s 			page 9


 169              		.loc 1 288 11 is_stmt 1 view .LVU62
 170              		.loc 1 288 16 is_stmt 0 view .LVU63
 171 0072 42EA0504 		orr	r4, r2, r5
 172              	.LVL17:
 173              	.L11:
 289:Drivers/STM32H7xx_HAL_Driver/Src/stm32h7xx_hal_gpio.c ****         }
 290:Drivers/STM32H7xx_HAL_Driver/Src/stm32h7xx_hal_gpio.c ****         EXTI->FTSR1 = temp;
 174              		.loc 1 290 9 is_stmt 1 view .LVU64
 175              		.loc 1 290 21 is_stmt 0 view .LVU65
 176 0076 4FF0B042 		mov	r2, #1476395008
 177              	.LVL18:
 178              		.loc 1 290 21 view .LVU66
 179 007a 5460     		str	r4, [r2, #4]
 180              	.LVL19:
 181              	.L3:
 291:Drivers/STM32H7xx_HAL_Driver/Src/stm32h7xx_hal_gpio.c ****       }
 292:Drivers/STM32H7xx_HAL_Driver/Src/stm32h7xx_hal_gpio.c ****     }
 293:Drivers/STM32H7xx_HAL_Driver/Src/stm32h7xx_hal_gpio.c **** 
 294:Drivers/STM32H7xx_HAL_Driver/Src/stm32h7xx_hal_gpio.c ****     position++;
 182              		.loc 1 294 5 is_stmt 1 view .LVU67
 183              		.loc 1 294 13 is_stmt 0 view .LVU68
 184 007c 0133     		adds	r3, r3, #1
 185              	.LVL20:
 186              	.L2:
 193:Drivers/STM32H7xx_HAL_Driver/Src/stm32h7xx_hal_gpio.c ****   {
 187              		.loc 1 193 9 is_stmt 1 view .LVU69
 193:Drivers/STM32H7xx_HAL_Driver/Src/stm32h7xx_hal_gpio.c ****   {
 188              		.loc 1 193 21 is_stmt 0 view .LVU70
 189 007e 0A68     		ldr	r2, [r1]
 193:Drivers/STM32H7xx_HAL_Driver/Src/stm32h7xx_hal_gpio.c ****   {
 190              		.loc 1 193 9 view .LVU71
 191 0080 32FA03F4 		lsrs	r4, r2, r3
 192 0084 00F0A380 		beq	.L24
 196:Drivers/STM32H7xx_HAL_Driver/Src/stm32h7xx_hal_gpio.c **** 
 193              		.loc 1 196 5 is_stmt 1 view .LVU72
 196:Drivers/STM32H7xx_HAL_Driver/Src/stm32h7xx_hal_gpio.c **** 
 194              		.loc 1 196 41 is_stmt 0 view .LVU73
 195 0088 0124     		movs	r4, #1
 196 008a 9C40     		lsls	r4, r4, r3
 197              	.LVL21:
 198:Drivers/STM32H7xx_HAL_Driver/Src/stm32h7xx_hal_gpio.c ****     {
 198              		.loc 1 198 5 is_stmt 1 view .LVU74
 198:Drivers/STM32H7xx_HAL_Driver/Src/stm32h7xx_hal_gpio.c ****     {
 199              		.loc 1 198 8 is_stmt 0 view .LVU75
 200 008c 2240     		ands	r2, r4, r2
 201              	.LVL22:
 198:Drivers/STM32H7xx_HAL_Driver/Src/stm32h7xx_hal_gpio.c ****     {
 202              		.loc 1 198 8 view .LVU76
 203 008e F5D0     		beq	.L3
 202:Drivers/STM32H7xx_HAL_Driver/Src/stm32h7xx_hal_gpio.c ****           (GPIO_Init->Mode == GPIO_MODE_OUTPUT_OD) || (GPIO_Init->Mode == GPIO_MODE_AF_OD))
 204              		.loc 1 202 7 is_stmt 1 view .LVU77
 202:Drivers/STM32H7xx_HAL_Driver/Src/stm32h7xx_hal_gpio.c ****           (GPIO_Init->Mode == GPIO_MODE_OUTPUT_OD) || (GPIO_Init->Mode == GPIO_MODE_AF_OD))
 205              		.loc 1 202 21 is_stmt 0 view .LVU78
 206 0090 4D68     		ldr	r5, [r1, #4]
 202:Drivers/STM32H7xx_HAL_Driver/Src/stm32h7xx_hal_gpio.c ****           (GPIO_Init->Mode == GPIO_MODE_OUTPUT_OD) || (GPIO_Init->Mode == GPIO_MODE_AF_OD))
 207              		.loc 1 202 92 view .LVU79
 208 0092 6E1E     		subs	r6, r5, #1
ARM GAS  C:\Users\root\AppData\Local\Temp\cc7wkqRG.s 			page 10


 202:Drivers/STM32H7xx_HAL_Driver/Src/stm32h7xx_hal_gpio.c ****           (GPIO_Init->Mode == GPIO_MODE_OUTPUT_OD) || (GPIO_Init->Mode == GPIO_MODE_AF_OD))
 209              		.loc 1 202 10 view .LVU80
 210 0094 112D     		cmp	r5, #17
 211 0096 18BF     		it	ne
 212 0098 012E     		cmpne	r6, #1
 213 009a 01D9     		bls	.L4
 203:Drivers/STM32H7xx_HAL_Driver/Src/stm32h7xx_hal_gpio.c ****       {
 214              		.loc 1 203 52 view .LVU81
 215 009c 122D     		cmp	r5, #18
 216 009e 12D1     		bne	.L5
 217              	.L4:
 206:Drivers/STM32H7xx_HAL_Driver/Src/stm32h7xx_hal_gpio.c ****         /* Configure the IO Speed */
 218              		.loc 1 206 9 is_stmt 1 view .LVU82
 208:Drivers/STM32H7xx_HAL_Driver/Src/stm32h7xx_hal_gpio.c ****         temp &= ~(GPIO_OSPEEDR_OSPEED0 << (position * 2U));
 219              		.loc 1 208 9 view .LVU83
 208:Drivers/STM32H7xx_HAL_Driver/Src/stm32h7xx_hal_gpio.c ****         temp &= ~(GPIO_OSPEEDR_OSPEED0 << (position * 2U));
 220              		.loc 1 208 14 is_stmt 0 view .LVU84
 221 00a0 8668     		ldr	r6, [r0, #8]
 222              	.LVL23:
 209:Drivers/STM32H7xx_HAL_Driver/Src/stm32h7xx_hal_gpio.c ****         temp |= (GPIO_Init->Speed << (position * 2U));
 223              		.loc 1 209 9 is_stmt 1 view .LVU85
 209:Drivers/STM32H7xx_HAL_Driver/Src/stm32h7xx_hal_gpio.c ****         temp |= (GPIO_Init->Speed << (position * 2U));
 224              		.loc 1 209 53 is_stmt 0 view .LVU86
 225 00a2 5F00     		lsls	r7, r3, #1
 209:Drivers/STM32H7xx_HAL_Driver/Src/stm32h7xx_hal_gpio.c ****         temp |= (GPIO_Init->Speed << (position * 2U));
 226              		.loc 1 209 40 view .LVU87
 227 00a4 0325     		movs	r5, #3
 228 00a6 BD40     		lsls	r5, r5, r7
 209:Drivers/STM32H7xx_HAL_Driver/Src/stm32h7xx_hal_gpio.c ****         temp |= (GPIO_Init->Speed << (position * 2U));
 229              		.loc 1 209 14 view .LVU88
 230 00a8 26EA0506 		bic	r6, r6, r5
 231              	.LVL24:
 210:Drivers/STM32H7xx_HAL_Driver/Src/stm32h7xx_hal_gpio.c ****         GPIOx->OSPEEDR = temp;
 232              		.loc 1 210 9 is_stmt 1 view .LVU89
 210:Drivers/STM32H7xx_HAL_Driver/Src/stm32h7xx_hal_gpio.c ****         GPIOx->OSPEEDR = temp;
 233              		.loc 1 210 27 is_stmt 0 view .LVU90
 234 00ac CD68     		ldr	r5, [r1, #12]
 210:Drivers/STM32H7xx_HAL_Driver/Src/stm32h7xx_hal_gpio.c ****         GPIOx->OSPEEDR = temp;
 235              		.loc 1 210 35 view .LVU91
 236 00ae BD40     		lsls	r5, r5, r7
 210:Drivers/STM32H7xx_HAL_Driver/Src/stm32h7xx_hal_gpio.c ****         GPIOx->OSPEEDR = temp;
 237              		.loc 1 210 14 view .LVU92
 238 00b0 3543     		orrs	r5, r5, r6
 239              	.LVL25:
 211:Drivers/STM32H7xx_HAL_Driver/Src/stm32h7xx_hal_gpio.c **** 
 240              		.loc 1 211 9 is_stmt 1 view .LVU93
 211:Drivers/STM32H7xx_HAL_Driver/Src/stm32h7xx_hal_gpio.c **** 
 241              		.loc 1 211 24 is_stmt 0 view .LVU94
 242 00b2 8560     		str	r5, [r0, #8]
 214:Drivers/STM32H7xx_HAL_Driver/Src/stm32h7xx_hal_gpio.c ****         temp &= ~(GPIO_OTYPER_OT0 << position) ;
 243              		.loc 1 214 9 is_stmt 1 view .LVU95
 214:Drivers/STM32H7xx_HAL_Driver/Src/stm32h7xx_hal_gpio.c ****         temp &= ~(GPIO_OTYPER_OT0 << position) ;
 244              		.loc 1 214 14 is_stmt 0 view .LVU96
 245 00b4 4668     		ldr	r6, [r0, #4]
 246              	.LVL26:
 215:Drivers/STM32H7xx_HAL_Driver/Src/stm32h7xx_hal_gpio.c ****         temp |= (((GPIO_Init->Mode & GPIO_OUTPUT_TYPE) >> 4U) << position);
 247              		.loc 1 215 9 is_stmt 1 view .LVU97
ARM GAS  C:\Users\root\AppData\Local\Temp\cc7wkqRG.s 			page 11


 215:Drivers/STM32H7xx_HAL_Driver/Src/stm32h7xx_hal_gpio.c ****         temp |= (((GPIO_Init->Mode & GPIO_OUTPUT_TYPE) >> 4U) << position);
 248              		.loc 1 215 14 is_stmt 0 view .LVU98
 249 00b6 26EA0406 		bic	r6, r6, r4
 250              	.LVL27:
 216:Drivers/STM32H7xx_HAL_Driver/Src/stm32h7xx_hal_gpio.c ****         GPIOx->OTYPER = temp;
 251              		.loc 1 216 9 is_stmt 1 view .LVU99
 216:Drivers/STM32H7xx_HAL_Driver/Src/stm32h7xx_hal_gpio.c ****         GPIOx->OTYPER = temp;
 252              		.loc 1 216 29 is_stmt 0 view .LVU100
 253 00ba 4D68     		ldr	r5, [r1, #4]
 216:Drivers/STM32H7xx_HAL_Driver/Src/stm32h7xx_hal_gpio.c ****         GPIOx->OTYPER = temp;
 254              		.loc 1 216 56 view .LVU101
 255 00bc C5F30014 		ubfx	r4, r5, #4, #1
 216:Drivers/STM32H7xx_HAL_Driver/Src/stm32h7xx_hal_gpio.c ****         GPIOx->OTYPER = temp;
 256              		.loc 1 216 63 view .LVU102
 257 00c0 9C40     		lsls	r4, r4, r3
 216:Drivers/STM32H7xx_HAL_Driver/Src/stm32h7xx_hal_gpio.c ****         GPIOx->OTYPER = temp;
 258              		.loc 1 216 14 view .LVU103
 259 00c2 3443     		orrs	r4, r4, r6
 260              	.LVL28:
 217:Drivers/STM32H7xx_HAL_Driver/Src/stm32h7xx_hal_gpio.c ****       }
 261              		.loc 1 217 9 is_stmt 1 view .LVU104
 217:Drivers/STM32H7xx_HAL_Driver/Src/stm32h7xx_hal_gpio.c ****       }
 262              		.loc 1 217 23 is_stmt 0 view .LVU105
 263 00c4 4460     		str	r4, [r0, #4]
 264              	.LVL29:
 265              	.L5:
 221:Drivers/STM32H7xx_HAL_Driver/Src/stm32h7xx_hal_gpio.c ****       temp &= ~(GPIO_PUPDR_PUPD0 << (position * 2U));
 266              		.loc 1 221 7 is_stmt 1 view .LVU106
 221:Drivers/STM32H7xx_HAL_Driver/Src/stm32h7xx_hal_gpio.c ****       temp &= ~(GPIO_PUPDR_PUPD0 << (position * 2U));
 267              		.loc 1 221 12 is_stmt 0 view .LVU107
 268 00c6 C768     		ldr	r7, [r0, #12]
 269              	.LVL30:
 222:Drivers/STM32H7xx_HAL_Driver/Src/stm32h7xx_hal_gpio.c ****       temp |= ((GPIO_Init->Pull) << (position * 2U));
 270              		.loc 1 222 7 is_stmt 1 view .LVU108
 222:Drivers/STM32H7xx_HAL_Driver/Src/stm32h7xx_hal_gpio.c ****       temp |= ((GPIO_Init->Pull) << (position * 2U));
 271              		.loc 1 222 47 is_stmt 0 view .LVU109
 272 00c8 5E00     		lsls	r6, r3, #1
 222:Drivers/STM32H7xx_HAL_Driver/Src/stm32h7xx_hal_gpio.c ****       temp |= ((GPIO_Init->Pull) << (position * 2U));
 273              		.loc 1 222 34 view .LVU110
 274 00ca 0325     		movs	r5, #3
 275 00cc B540     		lsls	r5, r5, r6
 222:Drivers/STM32H7xx_HAL_Driver/Src/stm32h7xx_hal_gpio.c ****       temp |= ((GPIO_Init->Pull) << (position * 2U));
 276              		.loc 1 222 15 view .LVU111
 277 00ce EC43     		mvns	r4, r5
 222:Drivers/STM32H7xx_HAL_Driver/Src/stm32h7xx_hal_gpio.c ****       temp |= ((GPIO_Init->Pull) << (position * 2U));
 278              		.loc 1 222 12 view .LVU112
 279 00d0 27EA0507 		bic	r7, r7, r5
 280              	.LVL31:
 223:Drivers/STM32H7xx_HAL_Driver/Src/stm32h7xx_hal_gpio.c ****       GPIOx->PUPDR = temp;
 281              		.loc 1 223 7 is_stmt 1 view .LVU113
 223:Drivers/STM32H7xx_HAL_Driver/Src/stm32h7xx_hal_gpio.c ****       GPIOx->PUPDR = temp;
 282              		.loc 1 223 26 is_stmt 0 view .LVU114
 283 00d4 8D68     		ldr	r5, [r1, #8]
 223:Drivers/STM32H7xx_HAL_Driver/Src/stm32h7xx_hal_gpio.c ****       GPIOx->PUPDR = temp;
 284              		.loc 1 223 34 view .LVU115
 285 00d6 B540     		lsls	r5, r5, r6
 223:Drivers/STM32H7xx_HAL_Driver/Src/stm32h7xx_hal_gpio.c ****       GPIOx->PUPDR = temp;
ARM GAS  C:\Users\root\AppData\Local\Temp\cc7wkqRG.s 			page 12


 286              		.loc 1 223 12 view .LVU116
 287 00d8 3D43     		orrs	r5, r5, r7
 288              	.LVL32:
 224:Drivers/STM32H7xx_HAL_Driver/Src/stm32h7xx_hal_gpio.c **** 
 289              		.loc 1 224 7 is_stmt 1 view .LVU117
 224:Drivers/STM32H7xx_HAL_Driver/Src/stm32h7xx_hal_gpio.c **** 
 290              		.loc 1 224 20 is_stmt 0 view .LVU118
 291 00da C560     		str	r5, [r0, #12]
 227:Drivers/STM32H7xx_HAL_Driver/Src/stm32h7xx_hal_gpio.c ****       {
 292              		.loc 1 227 7 is_stmt 1 view .LVU119
 227:Drivers/STM32H7xx_HAL_Driver/Src/stm32h7xx_hal_gpio.c ****       {
 293              		.loc 1 227 21 is_stmt 0 view .LVU120
 294 00dc 4D68     		ldr	r5, [r1, #4]
 295              	.LVL33:
 227:Drivers/STM32H7xx_HAL_Driver/Src/stm32h7xx_hal_gpio.c ****       {
 296              		.loc 1 227 10 view .LVU121
 297 00de 122D     		cmp	r5, #18
 298 00e0 18BF     		it	ne
 299 00e2 022D     		cmpne	r5, #2
 300 00e4 13D1     		bne	.L6
 230:Drivers/STM32H7xx_HAL_Driver/Src/stm32h7xx_hal_gpio.c ****         assert_param(IS_GPIO_AF(GPIO_Init->Alternate));
 301              		.loc 1 230 9 is_stmt 1 view .LVU122
 231:Drivers/STM32H7xx_HAL_Driver/Src/stm32h7xx_hal_gpio.c **** 
 302              		.loc 1 231 9 view .LVU123
 234:Drivers/STM32H7xx_HAL_Driver/Src/stm32h7xx_hal_gpio.c ****         temp &= ~(0xFU << ((position & 0x07U) * 4U));
 303              		.loc 1 234 9 view .LVU124
 234:Drivers/STM32H7xx_HAL_Driver/Src/stm32h7xx_hal_gpio.c ****         temp &= ~(0xFU << ((position & 0x07U) * 4U));
 304              		.loc 1 234 36 is_stmt 0 view .LVU125
 305 00e6 DF08     		lsrs	r7, r3, #3
 234:Drivers/STM32H7xx_HAL_Driver/Src/stm32h7xx_hal_gpio.c ****         temp &= ~(0xFU << ((position & 0x07U) * 4U));
 306              		.loc 1 234 14 view .LVU126
 307 00e8 0837     		adds	r7, r7, #8
 308 00ea 50F827E0 		ldr	lr, [r0, r7, lsl #2]
 309              	.LVL34:
 235:Drivers/STM32H7xx_HAL_Driver/Src/stm32h7xx_hal_gpio.c ****         temp |= ((GPIO_Init->Alternate) << ((position & 0x07U) * 4U));
 310              		.loc 1 235 9 is_stmt 1 view .LVU127
 235:Drivers/STM32H7xx_HAL_Driver/Src/stm32h7xx_hal_gpio.c ****         temp |= ((GPIO_Init->Alternate) << ((position & 0x07U) * 4U));
 311              		.loc 1 235 38 is_stmt 0 view .LVU128
 312 00ee 03F00705 		and	r5, r3, #7
 235:Drivers/STM32H7xx_HAL_Driver/Src/stm32h7xx_hal_gpio.c ****         temp |= ((GPIO_Init->Alternate) << ((position & 0x07U) * 4U));
 313              		.loc 1 235 47 view .LVU129
 314 00f2 4FEA850C 		lsl	ip, r5, #2
 235:Drivers/STM32H7xx_HAL_Driver/Src/stm32h7xx_hal_gpio.c ****         temp |= ((GPIO_Init->Alternate) << ((position & 0x07U) * 4U));
 315              		.loc 1 235 24 view .LVU130
 316 00f6 0F25     		movs	r5, #15
 317 00f8 05FA0CF5 		lsl	r5, r5, ip
 235:Drivers/STM32H7xx_HAL_Driver/Src/stm32h7xx_hal_gpio.c ****         temp |= ((GPIO_Init->Alternate) << ((position & 0x07U) * 4U));
 318              		.loc 1 235 14 view .LVU131
 319 00fc 2EEA050E 		bic	lr, lr, r5
 320              	.LVL35:
 236:Drivers/STM32H7xx_HAL_Driver/Src/stm32h7xx_hal_gpio.c ****         GPIOx->AFR[position >> 3U] = temp;
 321              		.loc 1 236 9 is_stmt 1 view .LVU132
 236:Drivers/STM32H7xx_HAL_Driver/Src/stm32h7xx_hal_gpio.c ****         GPIOx->AFR[position >> 3U] = temp;
 322              		.loc 1 236 28 is_stmt 0 view .LVU133
 323 0100 0D69     		ldr	r5, [r1, #16]
 236:Drivers/STM32H7xx_HAL_Driver/Src/stm32h7xx_hal_gpio.c ****         GPIOx->AFR[position >> 3U] = temp;
 324              		.loc 1 236 41 view .LVU134
ARM GAS  C:\Users\root\AppData\Local\Temp\cc7wkqRG.s 			page 13


 325 0102 05FA0CF5 		lsl	r5, r5, ip
 236:Drivers/STM32H7xx_HAL_Driver/Src/stm32h7xx_hal_gpio.c ****         GPIOx->AFR[position >> 3U] = temp;
 326              		.loc 1 236 14 view .LVU135
 327 0106 45EA0E05 		orr	r5, r5, lr
 328              	.LVL36:
 237:Drivers/STM32H7xx_HAL_Driver/Src/stm32h7xx_hal_gpio.c ****       }
 329              		.loc 1 237 9 is_stmt 1 view .LVU136
 237:Drivers/STM32H7xx_HAL_Driver/Src/stm32h7xx_hal_gpio.c ****       }
 330              		.loc 1 237 36 is_stmt 0 view .LVU137
 331 010a 40F82750 		str	r5, [r0, r7, lsl #2]
 332              	.LVL37:
 333              	.L6:
 241:Drivers/STM32H7xx_HAL_Driver/Src/stm32h7xx_hal_gpio.c ****       temp &= ~(GPIO_MODER_MODE0 << (position * 2U));
 334              		.loc 1 241 7 is_stmt 1 view .LVU138
 241:Drivers/STM32H7xx_HAL_Driver/Src/stm32h7xx_hal_gpio.c ****       temp &= ~(GPIO_MODER_MODE0 << (position * 2U));
 335              		.loc 1 241 12 is_stmt 0 view .LVU139
 336 010e 0568     		ldr	r5, [r0]
 337              	.LVL38:
 242:Drivers/STM32H7xx_HAL_Driver/Src/stm32h7xx_hal_gpio.c ****       temp |= ((GPIO_Init->Mode & GPIO_MODE) << (position * 2U));
 338              		.loc 1 242 7 is_stmt 1 view .LVU140
 242:Drivers/STM32H7xx_HAL_Driver/Src/stm32h7xx_hal_gpio.c ****       temp |= ((GPIO_Init->Mode & GPIO_MODE) << (position * 2U));
 339              		.loc 1 242 12 is_stmt 0 view .LVU141
 340 0110 2540     		ands	r5, r5, r4
 341              	.LVL39:
 243:Drivers/STM32H7xx_HAL_Driver/Src/stm32h7xx_hal_gpio.c ****       GPIOx->MODER = temp;
 342              		.loc 1 243 7 is_stmt 1 view .LVU142
 243:Drivers/STM32H7xx_HAL_Driver/Src/stm32h7xx_hal_gpio.c ****       GPIOx->MODER = temp;
 343              		.loc 1 243 26 is_stmt 0 view .LVU143
 344 0112 4C68     		ldr	r4, [r1, #4]
 243:Drivers/STM32H7xx_HAL_Driver/Src/stm32h7xx_hal_gpio.c ****       GPIOx->MODER = temp;
 345              		.loc 1 243 33 view .LVU144
 346 0114 04F00304 		and	r4, r4, #3
 243:Drivers/STM32H7xx_HAL_Driver/Src/stm32h7xx_hal_gpio.c ****       GPIOx->MODER = temp;
 347              		.loc 1 243 46 view .LVU145
 348 0118 B440     		lsls	r4, r4, r6
 243:Drivers/STM32H7xx_HAL_Driver/Src/stm32h7xx_hal_gpio.c ****       GPIOx->MODER = temp;
 349              		.loc 1 243 12 view .LVU146
 350 011a 2C43     		orrs	r4, r4, r5
 351              	.LVL40:
 244:Drivers/STM32H7xx_HAL_Driver/Src/stm32h7xx_hal_gpio.c **** 
 352              		.loc 1 244 7 is_stmt 1 view .LVU147
 244:Drivers/STM32H7xx_HAL_Driver/Src/stm32h7xx_hal_gpio.c **** 
 353              		.loc 1 244 20 is_stmt 0 view .LVU148
 354 011c 0460     		str	r4, [r0]
 248:Drivers/STM32H7xx_HAL_Driver/Src/stm32h7xx_hal_gpio.c ****       {
 355              		.loc 1 248 7 is_stmt 1 view .LVU149
 248:Drivers/STM32H7xx_HAL_Driver/Src/stm32h7xx_hal_gpio.c ****       {
 356              		.loc 1 248 21 is_stmt 0 view .LVU150
 357 011e 4C68     		ldr	r4, [r1, #4]
 358              	.LVL41:
 248:Drivers/STM32H7xx_HAL_Driver/Src/stm32h7xx_hal_gpio.c ****       {
 359              		.loc 1 248 10 view .LVU151
 360 0120 14F0805F 		tst	r4, #268435456
 361 0124 AAD0     		beq	.L3
 251:Drivers/STM32H7xx_HAL_Driver/Src/stm32h7xx_hal_gpio.c **** 
 362              		.loc 1 251 9 is_stmt 1 view .LVU152
 363              	.LBB2:
ARM GAS  C:\Users\root\AppData\Local\Temp\cc7wkqRG.s 			page 14


 251:Drivers/STM32H7xx_HAL_Driver/Src/stm32h7xx_hal_gpio.c **** 
 364              		.loc 1 251 9 view .LVU153
 251:Drivers/STM32H7xx_HAL_Driver/Src/stm32h7xx_hal_gpio.c **** 
 365              		.loc 1 251 9 view .LVU154
 366 0126 2D4C     		ldr	r4, .L26+8
 367 0128 D4F8F450 		ldr	r5, [r4, #244]
 368 012c 45F00205 		orr	r5, r5, #2
 369 0130 C4F8F450 		str	r5, [r4, #244]
 370              	.LVL42:
 251:Drivers/STM32H7xx_HAL_Driver/Src/stm32h7xx_hal_gpio.c **** 
 371              		.loc 1 251 9 view .LVU155
 372 0134 D4F8F440 		ldr	r4, [r4, #244]
 373 0138 04F00204 		and	r4, r4, #2
 374 013c 0194     		str	r4, [sp, #4]
 251:Drivers/STM32H7xx_HAL_Driver/Src/stm32h7xx_hal_gpio.c **** 
 375              		.loc 1 251 9 view .LVU156
 376 013e 019C     		ldr	r4, [sp, #4]
 377              	.LBE2:
 251:Drivers/STM32H7xx_HAL_Driver/Src/stm32h7xx_hal_gpio.c **** 
 378              		.loc 1 251 9 view .LVU157
 253:Drivers/STM32H7xx_HAL_Driver/Src/stm32h7xx_hal_gpio.c ****         temp &= ~(0x0FUL << (4U * (position & 0x03U)));
 379              		.loc 1 253 9 view .LVU158
 253:Drivers/STM32H7xx_HAL_Driver/Src/stm32h7xx_hal_gpio.c ****         temp &= ~(0x0FUL << (4U * (position & 0x03U)));
 380              		.loc 1 253 40 is_stmt 0 view .LVU159
 381 0140 9D08     		lsrs	r5, r3, #2
 253:Drivers/STM32H7xx_HAL_Driver/Src/stm32h7xx_hal_gpio.c ****         temp &= ~(0x0FUL << (4U * (position & 0x03U)));
 382              		.loc 1 253 14 view .LVU160
 383 0142 AE1C     		adds	r6, r5, #2
 384 0144 234C     		ldr	r4, .L26
 385 0146 54F82670 		ldr	r7, [r4, r6, lsl #2]
 386              	.LVL43:
 254:Drivers/STM32H7xx_HAL_Driver/Src/stm32h7xx_hal_gpio.c ****         temp |= (GPIO_GET_INDEX(GPIOx) << (4U * (position & 0x03U)));
 387              		.loc 1 254 9 is_stmt 1 view .LVU161
 254:Drivers/STM32H7xx_HAL_Driver/Src/stm32h7xx_hal_gpio.c ****         temp |= (GPIO_GET_INDEX(GPIOx) << (4U * (position & 0x03U)));
 388              		.loc 1 254 45 is_stmt 0 view .LVU162
 389 014a 03F00304 		and	r4, r3, #3
 254:Drivers/STM32H7xx_HAL_Driver/Src/stm32h7xx_hal_gpio.c ****         temp |= (GPIO_GET_INDEX(GPIOx) << (4U * (position & 0x03U)));
 390              		.loc 1 254 33 view .LVU163
 391 014e A600     		lsls	r6, r4, #2
 254:Drivers/STM32H7xx_HAL_Driver/Src/stm32h7xx_hal_gpio.c ****         temp |= (GPIO_GET_INDEX(GPIOx) << (4U * (position & 0x03U)));
 392              		.loc 1 254 26 view .LVU164
 393 0150 0F24     		movs	r4, #15
 394 0152 B440     		lsls	r4, r4, r6
 254:Drivers/STM32H7xx_HAL_Driver/Src/stm32h7xx_hal_gpio.c ****         temp |= (GPIO_GET_INDEX(GPIOx) << (4U * (position & 0x03U)));
 395              		.loc 1 254 14 view .LVU165
 396 0154 27EA0407 		bic	r7, r7, r4
 397              	.LVL44:
 255:Drivers/STM32H7xx_HAL_Driver/Src/stm32h7xx_hal_gpio.c ****         SYSCFG->EXTICR[position >> 2U] = temp;
 398              		.loc 1 255 9 is_stmt 1 view .LVU166
 255:Drivers/STM32H7xx_HAL_Driver/Src/stm32h7xx_hal_gpio.c ****         SYSCFG->EXTICR[position >> 2U] = temp;
 399              		.loc 1 255 18 is_stmt 0 view .LVU167
 400 0158 214C     		ldr	r4, .L26+12
 401 015a A042     		cmp	r0, r4
 402 015c 3FF456AF 		beq	.L13
 255:Drivers/STM32H7xx_HAL_Driver/Src/stm32h7xx_hal_gpio.c ****         SYSCFG->EXTICR[position >> 2U] = temp;
 403              		.loc 1 255 18 discriminator 1 view .LVU168
 404 0160 04F58064 		add	r4, r4, #1024
ARM GAS  C:\Users\root\AppData\Local\Temp\cc7wkqRG.s 			page 15


 405 0164 A042     		cmp	r0, r4
 406 0166 22D0     		beq	.L14
 255:Drivers/STM32H7xx_HAL_Driver/Src/stm32h7xx_hal_gpio.c ****         SYSCFG->EXTICR[position >> 2U] = temp;
 407              		.loc 1 255 18 discriminator 3 view .LVU169
 408 0168 04F58064 		add	r4, r4, #1024
 409 016c A042     		cmp	r0, r4
 410 016e 20D0     		beq	.L15
 255:Drivers/STM32H7xx_HAL_Driver/Src/stm32h7xx_hal_gpio.c ****         SYSCFG->EXTICR[position >> 2U] = temp;
 411              		.loc 1 255 18 discriminator 5 view .LVU170
 412 0170 04F58064 		add	r4, r4, #1024
 413 0174 A042     		cmp	r0, r4
 414 0176 1ED0     		beq	.L16
 255:Drivers/STM32H7xx_HAL_Driver/Src/stm32h7xx_hal_gpio.c ****         SYSCFG->EXTICR[position >> 2U] = temp;
 415              		.loc 1 255 18 discriminator 7 view .LVU171
 416 0178 04F58064 		add	r4, r4, #1024
 417 017c A042     		cmp	r0, r4
 418 017e 1CD0     		beq	.L17
 255:Drivers/STM32H7xx_HAL_Driver/Src/stm32h7xx_hal_gpio.c ****         SYSCFG->EXTICR[position >> 2U] = temp;
 419              		.loc 1 255 18 discriminator 9 view .LVU172
 420 0180 04F58064 		add	r4, r4, #1024
 421 0184 A042     		cmp	r0, r4
 422 0186 1AD0     		beq	.L18
 255:Drivers/STM32H7xx_HAL_Driver/Src/stm32h7xx_hal_gpio.c ****         SYSCFG->EXTICR[position >> 2U] = temp;
 423              		.loc 1 255 18 discriminator 11 view .LVU173
 424 0188 04F58064 		add	r4, r4, #1024
 425 018c A042     		cmp	r0, r4
 426 018e 18D0     		beq	.L19
 255:Drivers/STM32H7xx_HAL_Driver/Src/stm32h7xx_hal_gpio.c ****         SYSCFG->EXTICR[position >> 2U] = temp;
 427              		.loc 1 255 18 discriminator 13 view .LVU174
 428 0190 04F58064 		add	r4, r4, #1024
 429 0194 A042     		cmp	r0, r4
 430 0196 16D0     		beq	.L20
 255:Drivers/STM32H7xx_HAL_Driver/Src/stm32h7xx_hal_gpio.c ****         SYSCFG->EXTICR[position >> 2U] = temp;
 431              		.loc 1 255 18 discriminator 15 view .LVU175
 432 0198 04F58064 		add	r4, r4, #1024
 433 019c A042     		cmp	r0, r4
 434 019e 14D0     		beq	.L21
 255:Drivers/STM32H7xx_HAL_Driver/Src/stm32h7xx_hal_gpio.c ****         SYSCFG->EXTICR[position >> 2U] = temp;
 435              		.loc 1 255 18 discriminator 17 view .LVU176
 436 01a0 04F58064 		add	r4, r4, #1024
 437 01a4 A042     		cmp	r0, r4
 438 01a6 3FF42FAF 		beq	.L25
 255:Drivers/STM32H7xx_HAL_Driver/Src/stm32h7xx_hal_gpio.c ****         SYSCFG->EXTICR[position >> 2U] = temp;
 439              		.loc 1 255 18 view .LVU177
 440 01aa 0A24     		movs	r4, #10
 441 01ac 2FE7     		b	.L7
 442              	.L14:
 443 01ae 0124     		movs	r4, #1
 444 01b0 2DE7     		b	.L7
 445              	.L15:
 446 01b2 0224     		movs	r4, #2
 447 01b4 2BE7     		b	.L7
 448              	.L16:
 449 01b6 0324     		movs	r4, #3
 450 01b8 29E7     		b	.L7
 451              	.L17:
 452 01ba 0424     		movs	r4, #4
ARM GAS  C:\Users\root\AppData\Local\Temp\cc7wkqRG.s 			page 16


 453 01bc 27E7     		b	.L7
 454              	.L18:
 455 01be 0524     		movs	r4, #5
 456 01c0 25E7     		b	.L7
 457              	.L19:
 458 01c2 0624     		movs	r4, #6
 459 01c4 23E7     		b	.L7
 460              	.L20:
 461 01c6 0724     		movs	r4, #7
 462 01c8 21E7     		b	.L7
 463              	.L21:
 464 01ca 0824     		movs	r4, #8
 465 01cc 1FE7     		b	.L7
 466              	.LVL45:
 467              	.L24:
 295:Drivers/STM32H7xx_HAL_Driver/Src/stm32h7xx_hal_gpio.c ****   }
 296:Drivers/STM32H7xx_HAL_Driver/Src/stm32h7xx_hal_gpio.c **** }
 468              		.loc 1 296 1 view .LVU178
 469 01ce 03B0     		add	sp, sp, #12
 470              	.LCFI2:
 471              		.cfi_def_cfa_offset 20
 472              		@ sp needed
 473 01d0 F0BD     		pop	{r4, r5, r6, r7, pc}
 474              	.L27:
 475 01d2 00BF     		.align	2
 476              	.L26:
 477 01d4 00040058 		.word	1476396032
 478 01d8 80000058 		.word	1476395136
 479 01dc 00440258 		.word	1476543488
 480 01e0 00000258 		.word	1476526080
 481              		.cfi_endproc
 482              	.LFE141:
 484              		.section	.text.HAL_GPIO_DeInit,"ax",%progbits
 485              		.align	1
 486              		.global	HAL_GPIO_DeInit
 487              		.syntax unified
 488              		.thumb
 489              		.thumb_func
 490              		.fpu fpv5-d16
 492              	HAL_GPIO_DeInit:
 493              	.LVL46:
 494              	.LFB142:
 297:Drivers/STM32H7xx_HAL_Driver/Src/stm32h7xx_hal_gpio.c **** 
 298:Drivers/STM32H7xx_HAL_Driver/Src/stm32h7xx_hal_gpio.c **** /**
 299:Drivers/STM32H7xx_HAL_Driver/Src/stm32h7xx_hal_gpio.c ****   * @brief  De-initializes the GPIOx peripheral registers to their default reset values.
 300:Drivers/STM32H7xx_HAL_Driver/Src/stm32h7xx_hal_gpio.c ****   * @param  GPIOx: where x can be (A..K) to select the GPIO peripheral.
 301:Drivers/STM32H7xx_HAL_Driver/Src/stm32h7xx_hal_gpio.c ****   * @param  GPIO_Pin: specifies the port bit to be written.
 302:Drivers/STM32H7xx_HAL_Driver/Src/stm32h7xx_hal_gpio.c ****   *          This parameter can be one of GPIO_PIN_x where x can be (0..15).
 303:Drivers/STM32H7xx_HAL_Driver/Src/stm32h7xx_hal_gpio.c ****   * @retval None
 304:Drivers/STM32H7xx_HAL_Driver/Src/stm32h7xx_hal_gpio.c ****   */
 305:Drivers/STM32H7xx_HAL_Driver/Src/stm32h7xx_hal_gpio.c **** void HAL_GPIO_DeInit(GPIO_TypeDef  *GPIOx, uint32_t GPIO_Pin)
 306:Drivers/STM32H7xx_HAL_Driver/Src/stm32h7xx_hal_gpio.c **** {
 495              		.loc 1 306 1 is_stmt 1 view -0
 496              		.cfi_startproc
 497              		@ args = 0, pretend = 0, frame = 0
 498              		@ frame_needed = 0, uses_anonymous_args = 0
 307:Drivers/STM32H7xx_HAL_Driver/Src/stm32h7xx_hal_gpio.c ****   uint32_t position = 0x00U;
ARM GAS  C:\Users\root\AppData\Local\Temp\cc7wkqRG.s 			page 17


 499              		.loc 1 307 3 view .LVU180
 308:Drivers/STM32H7xx_HAL_Driver/Src/stm32h7xx_hal_gpio.c ****   uint32_t iocurrent;
 500              		.loc 1 308 3 view .LVU181
 309:Drivers/STM32H7xx_HAL_Driver/Src/stm32h7xx_hal_gpio.c ****   uint32_t tmp;
 501              		.loc 1 309 3 view .LVU182
 310:Drivers/STM32H7xx_HAL_Driver/Src/stm32h7xx_hal_gpio.c ****   EXTI_Core_TypeDef *EXTI_CurrentCPU;
 502              		.loc 1 310 3 view .LVU183
 311:Drivers/STM32H7xx_HAL_Driver/Src/stm32h7xx_hal_gpio.c **** 
 312:Drivers/STM32H7xx_HAL_Driver/Src/stm32h7xx_hal_gpio.c **** #if defined(DUAL_CORE) && defined(CORE_CM4)
 313:Drivers/STM32H7xx_HAL_Driver/Src/stm32h7xx_hal_gpio.c ****   EXTI_CurrentCPU = EXTI_D2; /* EXTI for CM4 CPU */
 314:Drivers/STM32H7xx_HAL_Driver/Src/stm32h7xx_hal_gpio.c **** #else
 315:Drivers/STM32H7xx_HAL_Driver/Src/stm32h7xx_hal_gpio.c ****   EXTI_CurrentCPU = EXTI_D1; /* EXTI for CM7 CPU */
 503              		.loc 1 315 3 view .LVU184
 316:Drivers/STM32H7xx_HAL_Driver/Src/stm32h7xx_hal_gpio.c **** #endif
 317:Drivers/STM32H7xx_HAL_Driver/Src/stm32h7xx_hal_gpio.c **** 
 318:Drivers/STM32H7xx_HAL_Driver/Src/stm32h7xx_hal_gpio.c ****   /* Check the parameters */
 319:Drivers/STM32H7xx_HAL_Driver/Src/stm32h7xx_hal_gpio.c ****   assert_param(IS_GPIO_ALL_INSTANCE(GPIOx));
 504              		.loc 1 319 3 view .LVU185
 320:Drivers/STM32H7xx_HAL_Driver/Src/stm32h7xx_hal_gpio.c ****   assert_param(IS_GPIO_PIN(GPIO_Pin));
 505              		.loc 1 320 3 view .LVU186
 321:Drivers/STM32H7xx_HAL_Driver/Src/stm32h7xx_hal_gpio.c **** 
 322:Drivers/STM32H7xx_HAL_Driver/Src/stm32h7xx_hal_gpio.c ****   /* Configure the port pins */
 323:Drivers/STM32H7xx_HAL_Driver/Src/stm32h7xx_hal_gpio.c ****   while ((GPIO_Pin >> position) != 0x00U)
 506              		.loc 1 323 3 view .LVU187
 307:Drivers/STM32H7xx_HAL_Driver/Src/stm32h7xx_hal_gpio.c ****   uint32_t iocurrent;
 507              		.loc 1 307 12 is_stmt 0 view .LVU188
 508 0000 0023     		movs	r3, #0
 509              		.loc 1 323 9 view .LVU189
 510 0002 96E0     		b	.L45
 511              	.LVL47:
 512              	.L52:
 513              	.LCFI3:
 514              		.cfi_def_cfa_offset 20
 515              		.cfi_offset 4, -20
 516              		.cfi_offset 5, -16
 517              		.cfi_offset 6, -12
 518              		.cfi_offset 7, -8
 519              		.cfi_offset 14, -4
 324:Drivers/STM32H7xx_HAL_Driver/Src/stm32h7xx_hal_gpio.c ****   {
 325:Drivers/STM32H7xx_HAL_Driver/Src/stm32h7xx_hal_gpio.c ****     /* Get current io position */
 326:Drivers/STM32H7xx_HAL_Driver/Src/stm32h7xx_hal_gpio.c ****     iocurrent = GPIO_Pin & (1UL << position) ;
 327:Drivers/STM32H7xx_HAL_Driver/Src/stm32h7xx_hal_gpio.c **** 
 328:Drivers/STM32H7xx_HAL_Driver/Src/stm32h7xx_hal_gpio.c ****     if (iocurrent != 0x00U)
 329:Drivers/STM32H7xx_HAL_Driver/Src/stm32h7xx_hal_gpio.c ****     {
 330:Drivers/STM32H7xx_HAL_Driver/Src/stm32h7xx_hal_gpio.c ****       /*------------------------- EXTI Mode Configuration --------------------*/
 331:Drivers/STM32H7xx_HAL_Driver/Src/stm32h7xx_hal_gpio.c ****       /* Clear the External Interrupt or Event for the current IO */
 332:Drivers/STM32H7xx_HAL_Driver/Src/stm32h7xx_hal_gpio.c ****       tmp = SYSCFG->EXTICR[position >> 2U];
 333:Drivers/STM32H7xx_HAL_Driver/Src/stm32h7xx_hal_gpio.c ****       tmp &= (0x0FUL << (4U * (position & 0x03U)));
 334:Drivers/STM32H7xx_HAL_Driver/Src/stm32h7xx_hal_gpio.c ****       if (tmp == (GPIO_GET_INDEX(GPIOx) << (4U * (position & 0x03U))))
 520              		.loc 1 334 19 view .LVU190
 521 0004 0926     		movs	r6, #9
 522 0006 00E0     		b	.L31
 523              	.L34:
 524 0008 0026     		movs	r6, #0
 525              	.L31:
 526              		.loc 1 334 41 discriminator 40 view .LVU191
 527 000a 06FA04F4 		lsl	r4, r6, r4
ARM GAS  C:\Users\root\AppData\Local\Temp\cc7wkqRG.s 			page 18


 528              		.loc 1 334 10 discriminator 40 view .LVU192
 529 000e AC42     		cmp	r4, r5
 530 0010 71D0     		beq	.L50
 531              	.LVL48:
 532              	.L32:
 335:Drivers/STM32H7xx_HAL_Driver/Src/stm32h7xx_hal_gpio.c ****       {
 336:Drivers/STM32H7xx_HAL_Driver/Src/stm32h7xx_hal_gpio.c ****         /* Clear EXTI line configuration for Current CPU */
 337:Drivers/STM32H7xx_HAL_Driver/Src/stm32h7xx_hal_gpio.c ****         EXTI_CurrentCPU->IMR1 &= ~(iocurrent);
 338:Drivers/STM32H7xx_HAL_Driver/Src/stm32h7xx_hal_gpio.c ****         EXTI_CurrentCPU->EMR1 &= ~(iocurrent);
 339:Drivers/STM32H7xx_HAL_Driver/Src/stm32h7xx_hal_gpio.c **** 
 340:Drivers/STM32H7xx_HAL_Driver/Src/stm32h7xx_hal_gpio.c ****         /* Clear Rising Falling edge configuration */
 341:Drivers/STM32H7xx_HAL_Driver/Src/stm32h7xx_hal_gpio.c ****         EXTI->RTSR1 &= ~(iocurrent);
 342:Drivers/STM32H7xx_HAL_Driver/Src/stm32h7xx_hal_gpio.c ****         EXTI->FTSR1 &= ~(iocurrent);
 343:Drivers/STM32H7xx_HAL_Driver/Src/stm32h7xx_hal_gpio.c **** 
 344:Drivers/STM32H7xx_HAL_Driver/Src/stm32h7xx_hal_gpio.c ****         tmp = 0x0FUL << (4U * (position & 0x03U));
 345:Drivers/STM32H7xx_HAL_Driver/Src/stm32h7xx_hal_gpio.c ****         SYSCFG->EXTICR[position >> 2U] &= ~tmp;
 346:Drivers/STM32H7xx_HAL_Driver/Src/stm32h7xx_hal_gpio.c ****       }
 347:Drivers/STM32H7xx_HAL_Driver/Src/stm32h7xx_hal_gpio.c **** 
 348:Drivers/STM32H7xx_HAL_Driver/Src/stm32h7xx_hal_gpio.c ****       /*------------------------- GPIO Mode Configuration --------------------*/
 349:Drivers/STM32H7xx_HAL_Driver/Src/stm32h7xx_hal_gpio.c ****       /* Configure IO in Analog Mode */
 350:Drivers/STM32H7xx_HAL_Driver/Src/stm32h7xx_hal_gpio.c ****       GPIOx->MODER |= (GPIO_MODER_MODE0 << (position * 2U));
 533              		.loc 1 350 7 is_stmt 1 view .LVU193
 534              		.loc 1 350 20 is_stmt 0 view .LVU194
 535 0012 0568     		ldr	r5, [r0]
 536              		.loc 1 350 54 view .LVU195
 537 0014 5C00     		lsls	r4, r3, #1
 538              		.loc 1 350 41 view .LVU196
 539 0016 0326     		movs	r6, #3
 540 0018 06FA04F4 		lsl	r4, r6, r4
 541              		.loc 1 350 20 view .LVU197
 542 001c 2543     		orrs	r5, r5, r4
 543 001e 0560     		str	r5, [r0]
 351:Drivers/STM32H7xx_HAL_Driver/Src/stm32h7xx_hal_gpio.c **** 
 352:Drivers/STM32H7xx_HAL_Driver/Src/stm32h7xx_hal_gpio.c ****       /* Configure the default Alternate Function in current IO */
 353:Drivers/STM32H7xx_HAL_Driver/Src/stm32h7xx_hal_gpio.c ****       GPIOx->AFR[position >> 3U] &= ~(0xFU << ((position & 0x07U) * 4U)) ;
 544              		.loc 1 353 7 is_stmt 1 view .LVU198
 545              		.loc 1 353 34 is_stmt 0 view .LVU199
 546 0020 23FA06F5 		lsr	r5, r3, r6
 547 0024 0835     		adds	r5, r5, #8
 548 0026 50F82560 		ldr	r6, [r0, r5, lsl #2]
 549              		.loc 1 353 58 view .LVU200
 550 002a 03F00707 		and	r7, r3, #7
 551              		.loc 1 353 67 view .LVU201
 552 002e 4FEA870C 		lsl	ip, r7, #2
 553              	.LVL49:
 554              		.loc 1 353 44 view .LVU202
 555 0032 0F27     		movs	r7, #15
 556 0034 07FA0CF7 		lsl	r7, r7, ip
 557              		.loc 1 353 34 view .LVU203
 558 0038 26EA0706 		bic	r6, r6, r7
 559 003c 40F82560 		str	r6, [r0, r5, lsl #2]
 354:Drivers/STM32H7xx_HAL_Driver/Src/stm32h7xx_hal_gpio.c **** 
 355:Drivers/STM32H7xx_HAL_Driver/Src/stm32h7xx_hal_gpio.c ****       /* Deactivate the Pull-up and Pull-down resistor for the current IO */
 356:Drivers/STM32H7xx_HAL_Driver/Src/stm32h7xx_hal_gpio.c ****       GPIOx->PUPDR &= ~(GPIO_PUPDR_PUPD0 << (position * 2U));
 560              		.loc 1 356 7 is_stmt 1 view .LVU204
 561              		.loc 1 356 20 is_stmt 0 view .LVU205
 562 0040 C568     		ldr	r5, [r0, #12]
ARM GAS  C:\Users\root\AppData\Local\Temp\cc7wkqRG.s 			page 19


 563 0042 25EA0405 		bic	r5, r5, r4
 564 0046 C560     		str	r5, [r0, #12]
 357:Drivers/STM32H7xx_HAL_Driver/Src/stm32h7xx_hal_gpio.c **** 
 358:Drivers/STM32H7xx_HAL_Driver/Src/stm32h7xx_hal_gpio.c ****       /* Configure the default value IO Output Type */
 359:Drivers/STM32H7xx_HAL_Driver/Src/stm32h7xx_hal_gpio.c ****       GPIOx->OTYPER  &= ~(GPIO_OTYPER_OT0 << position) ;
 565              		.loc 1 359 7 is_stmt 1 view .LVU206
 566              		.loc 1 359 22 is_stmt 0 view .LVU207
 567 0048 4568     		ldr	r5, [r0, #4]
 568 004a 25EA0202 		bic	r2, r5, r2
 569 004e 4260     		str	r2, [r0, #4]
 360:Drivers/STM32H7xx_HAL_Driver/Src/stm32h7xx_hal_gpio.c **** 
 361:Drivers/STM32H7xx_HAL_Driver/Src/stm32h7xx_hal_gpio.c ****       /* Configure the default value for IO Speed */
 362:Drivers/STM32H7xx_HAL_Driver/Src/stm32h7xx_hal_gpio.c ****       GPIOx->OSPEEDR &= ~(GPIO_OSPEEDR_OSPEED0 << (position * 2U));
 570              		.loc 1 362 7 is_stmt 1 view .LVU208
 571              		.loc 1 362 22 is_stmt 0 view .LVU209
 572 0050 8268     		ldr	r2, [r0, #8]
 573 0052 22EA0404 		bic	r4, r2, r4
 574 0056 8460     		str	r4, [r0, #8]
 575              	.L30:
 363:Drivers/STM32H7xx_HAL_Driver/Src/stm32h7xx_hal_gpio.c ****     }
 364:Drivers/STM32H7xx_HAL_Driver/Src/stm32h7xx_hal_gpio.c **** 
 365:Drivers/STM32H7xx_HAL_Driver/Src/stm32h7xx_hal_gpio.c ****     position++;
 576              		.loc 1 365 5 is_stmt 1 view .LVU210
 577              		.loc 1 365 13 is_stmt 0 view .LVU211
 578 0058 0133     		adds	r3, r3, #1
 579              	.LVL50:
 323:Drivers/STM32H7xx_HAL_Driver/Src/stm32h7xx_hal_gpio.c ****   {
 580              		.loc 1 323 9 is_stmt 1 view .LVU212
 581 005a 31FA03F2 		lsrs	r2, r1, r3
 582 005e 66D0     		beq	.L51
 326:Drivers/STM32H7xx_HAL_Driver/Src/stm32h7xx_hal_gpio.c **** 
 583              		.loc 1 326 5 view .LVU213
 326:Drivers/STM32H7xx_HAL_Driver/Src/stm32h7xx_hal_gpio.c **** 
 584              		.loc 1 326 33 is_stmt 0 view .LVU214
 585 0060 0122     		movs	r2, #1
 586 0062 9A40     		lsls	r2, r2, r3
 587              	.LVL51:
 328:Drivers/STM32H7xx_HAL_Driver/Src/stm32h7xx_hal_gpio.c ****     {
 588              		.loc 1 328 5 is_stmt 1 view .LVU215
 328:Drivers/STM32H7xx_HAL_Driver/Src/stm32h7xx_hal_gpio.c ****     {
 589              		.loc 1 328 8 is_stmt 0 view .LVU216
 590 0064 12EA010C 		ands	ip, r2, r1
 591              	.LVL52:
 328:Drivers/STM32H7xx_HAL_Driver/Src/stm32h7xx_hal_gpio.c ****     {
 592              		.loc 1 328 8 view .LVU217
 593 0068 F6D0     		beq	.L30
 594              	.L46:
 332:Drivers/STM32H7xx_HAL_Driver/Src/stm32h7xx_hal_gpio.c ****       tmp &= (0x0FUL << (4U * (position & 0x03U)));
 595              		.loc 1 332 7 is_stmt 1 view .LVU218
 332:Drivers/STM32H7xx_HAL_Driver/Src/stm32h7xx_hal_gpio.c ****       tmp &= (0x0FUL << (4U * (position & 0x03U)));
 596              		.loc 1 332 37 is_stmt 0 view .LVU219
 597 006a 9F08     		lsrs	r7, r3, #2
 332:Drivers/STM32H7xx_HAL_Driver/Src/stm32h7xx_hal_gpio.c ****       tmp &= (0x0FUL << (4U * (position & 0x03U)));
 598              		.loc 1 332 11 view .LVU220
 599 006c BD1C     		adds	r5, r7, #2
 600 006e 364C     		ldr	r4, .L55
 601 0070 54F82550 		ldr	r5, [r4, r5, lsl #2]
ARM GAS  C:\Users\root\AppData\Local\Temp\cc7wkqRG.s 			page 20


 602              	.LVL53:
 333:Drivers/STM32H7xx_HAL_Driver/Src/stm32h7xx_hal_gpio.c ****       if (tmp == (GPIO_GET_INDEX(GPIOx) << (4U * (position & 0x03U))))
 603              		.loc 1 333 7 is_stmt 1 view .LVU221
 333:Drivers/STM32H7xx_HAL_Driver/Src/stm32h7xx_hal_gpio.c ****       if (tmp == (GPIO_GET_INDEX(GPIOx) << (4U * (position & 0x03U))))
 604              		.loc 1 333 41 is_stmt 0 view .LVU222
 605 0074 03F00304 		and	r4, r3, #3
 333:Drivers/STM32H7xx_HAL_Driver/Src/stm32h7xx_hal_gpio.c ****       if (tmp == (GPIO_GET_INDEX(GPIOx) << (4U * (position & 0x03U))))
 606              		.loc 1 333 29 view .LVU223
 607 0078 A400     		lsls	r4, r4, #2
 333:Drivers/STM32H7xx_HAL_Driver/Src/stm32h7xx_hal_gpio.c ****       if (tmp == (GPIO_GET_INDEX(GPIOx) << (4U * (position & 0x03U))))
 608              		.loc 1 333 22 view .LVU224
 609 007a 0F26     		movs	r6, #15
 610 007c 06FA04FE 		lsl	lr, r6, r4
 333:Drivers/STM32H7xx_HAL_Driver/Src/stm32h7xx_hal_gpio.c ****       if (tmp == (GPIO_GET_INDEX(GPIOx) << (4U * (position & 0x03U))))
 611              		.loc 1 333 11 view .LVU225
 612 0080 0EEA0505 		and	r5, lr, r5
 613              	.LVL54:
 334:Drivers/STM32H7xx_HAL_Driver/Src/stm32h7xx_hal_gpio.c ****       {
 614              		.loc 1 334 7 is_stmt 1 view .LVU226
 334:Drivers/STM32H7xx_HAL_Driver/Src/stm32h7xx_hal_gpio.c ****       {
 615              		.loc 1 334 19 is_stmt 0 view .LVU227
 616 0084 314E     		ldr	r6, .L55+4
 617 0086 B042     		cmp	r0, r6
 618 0088 BED0     		beq	.L34
 334:Drivers/STM32H7xx_HAL_Driver/Src/stm32h7xx_hal_gpio.c ****       {
 619              		.loc 1 334 19 discriminator 1 view .LVU228
 620 008a 06F58066 		add	r6, r6, #1024
 621 008e B042     		cmp	r0, r6
 622 0090 21D0     		beq	.L35
 334:Drivers/STM32H7xx_HAL_Driver/Src/stm32h7xx_hal_gpio.c ****       {
 623              		.loc 1 334 19 discriminator 3 view .LVU229
 624 0092 06F58066 		add	r6, r6, #1024
 625 0096 B042     		cmp	r0, r6
 626 0098 1FD0     		beq	.L36
 334:Drivers/STM32H7xx_HAL_Driver/Src/stm32h7xx_hal_gpio.c ****       {
 627              		.loc 1 334 19 discriminator 5 view .LVU230
 628 009a 06F58066 		add	r6, r6, #1024
 629 009e B042     		cmp	r0, r6
 630 00a0 1DD0     		beq	.L37
 334:Drivers/STM32H7xx_HAL_Driver/Src/stm32h7xx_hal_gpio.c ****       {
 631              		.loc 1 334 19 discriminator 7 view .LVU231
 632 00a2 06F58066 		add	r6, r6, #1024
 633 00a6 B042     		cmp	r0, r6
 634 00a8 1BD0     		beq	.L38
 334:Drivers/STM32H7xx_HAL_Driver/Src/stm32h7xx_hal_gpio.c ****       {
 635              		.loc 1 334 19 discriminator 9 view .LVU232
 636 00aa 06F58066 		add	r6, r6, #1024
 637 00ae B042     		cmp	r0, r6
 638 00b0 19D0     		beq	.L39
 334:Drivers/STM32H7xx_HAL_Driver/Src/stm32h7xx_hal_gpio.c ****       {
 639              		.loc 1 334 19 discriminator 11 view .LVU233
 640 00b2 06F58066 		add	r6, r6, #1024
 641 00b6 B042     		cmp	r0, r6
 642 00b8 17D0     		beq	.L40
 334:Drivers/STM32H7xx_HAL_Driver/Src/stm32h7xx_hal_gpio.c ****       {
 643              		.loc 1 334 19 discriminator 13 view .LVU234
 644 00ba 06F58066 		add	r6, r6, #1024
ARM GAS  C:\Users\root\AppData\Local\Temp\cc7wkqRG.s 			page 21


 645 00be B042     		cmp	r0, r6
 646 00c0 15D0     		beq	.L41
 334:Drivers/STM32H7xx_HAL_Driver/Src/stm32h7xx_hal_gpio.c ****       {
 647              		.loc 1 334 19 discriminator 15 view .LVU235
 648 00c2 06F58066 		add	r6, r6, #1024
 649 00c6 B042     		cmp	r0, r6
 650 00c8 13D0     		beq	.L42
 334:Drivers/STM32H7xx_HAL_Driver/Src/stm32h7xx_hal_gpio.c ****       {
 651              		.loc 1 334 19 discriminator 17 view .LVU236
 652 00ca 06F58066 		add	r6, r6, #1024
 653 00ce B042     		cmp	r0, r6
 654 00d0 98D0     		beq	.L52
 334:Drivers/STM32H7xx_HAL_Driver/Src/stm32h7xx_hal_gpio.c ****       {
 655              		.loc 1 334 19 view .LVU237
 656 00d2 0A26     		movs	r6, #10
 657 00d4 99E7     		b	.L31
 658              	.L35:
 659 00d6 0126     		movs	r6, #1
 660 00d8 97E7     		b	.L31
 661              	.L36:
 662 00da 0226     		movs	r6, #2
 663 00dc 95E7     		b	.L31
 664              	.L37:
 665 00de 0326     		movs	r6, #3
 666 00e0 93E7     		b	.L31
 667              	.L38:
 668 00e2 0426     		movs	r6, #4
 669 00e4 91E7     		b	.L31
 670              	.L39:
 671 00e6 0526     		movs	r6, #5
 672 00e8 8FE7     		b	.L31
 673              	.L40:
 674 00ea 0626     		movs	r6, #6
 675 00ec 8DE7     		b	.L31
 676              	.L41:
 677 00ee 0726     		movs	r6, #7
 678 00f0 8BE7     		b	.L31
 679              	.L42:
 680 00f2 0826     		movs	r6, #8
 681 00f4 89E7     		b	.L31
 682              	.L50:
 337:Drivers/STM32H7xx_HAL_Driver/Src/stm32h7xx_hal_gpio.c ****         EXTI_CurrentCPU->EMR1 &= ~(iocurrent);
 683              		.loc 1 337 9 is_stmt 1 view .LVU238
 337:Drivers/STM32H7xx_HAL_Driver/Src/stm32h7xx_hal_gpio.c ****         EXTI_CurrentCPU->EMR1 &= ~(iocurrent);
 684              		.loc 1 337 31 is_stmt 0 view .LVU239
 685 00f6 164C     		ldr	r4, .L55+8
 686 00f8 2568     		ldr	r5, [r4]
 687              	.LVL55:
 337:Drivers/STM32H7xx_HAL_Driver/Src/stm32h7xx_hal_gpio.c ****         EXTI_CurrentCPU->EMR1 &= ~(iocurrent);
 688              		.loc 1 337 31 view .LVU240
 689 00fa 25EA0C05 		bic	r5, r5, ip
 690 00fe 2560     		str	r5, [r4]
 338:Drivers/STM32H7xx_HAL_Driver/Src/stm32h7xx_hal_gpio.c **** 
 691              		.loc 1 338 9 is_stmt 1 view .LVU241
 338:Drivers/STM32H7xx_HAL_Driver/Src/stm32h7xx_hal_gpio.c **** 
 692              		.loc 1 338 31 is_stmt 0 view .LVU242
 693 0100 6568     		ldr	r5, [r4, #4]
ARM GAS  C:\Users\root\AppData\Local\Temp\cc7wkqRG.s 			page 22


 694 0102 25EA0C05 		bic	r5, r5, ip
 695 0106 6560     		str	r5, [r4, #4]
 341:Drivers/STM32H7xx_HAL_Driver/Src/stm32h7xx_hal_gpio.c ****         EXTI->FTSR1 &= ~(iocurrent);
 696              		.loc 1 341 9 is_stmt 1 view .LVU243
 341:Drivers/STM32H7xx_HAL_Driver/Src/stm32h7xx_hal_gpio.c ****         EXTI->FTSR1 &= ~(iocurrent);
 697              		.loc 1 341 21 is_stmt 0 view .LVU244
 698 0108 4FF0B044 		mov	r4, #1476395008
 699 010c 2568     		ldr	r5, [r4]
 700 010e 25EA0C05 		bic	r5, r5, ip
 701 0112 2560     		str	r5, [r4]
 342:Drivers/STM32H7xx_HAL_Driver/Src/stm32h7xx_hal_gpio.c **** 
 702              		.loc 1 342 9 is_stmt 1 view .LVU245
 342:Drivers/STM32H7xx_HAL_Driver/Src/stm32h7xx_hal_gpio.c **** 
 703              		.loc 1 342 21 is_stmt 0 view .LVU246
 704 0114 6568     		ldr	r5, [r4, #4]
 705 0116 25EA0C05 		bic	r5, r5, ip
 706 011a 6560     		str	r5, [r4, #4]
 344:Drivers/STM32H7xx_HAL_Driver/Src/stm32h7xx_hal_gpio.c ****         SYSCFG->EXTICR[position >> 2U] &= ~tmp;
 707              		.loc 1 344 9 is_stmt 1 view .LVU247
 708              	.LVL56:
 345:Drivers/STM32H7xx_HAL_Driver/Src/stm32h7xx_hal_gpio.c ****       }
 709              		.loc 1 345 9 view .LVU248
 345:Drivers/STM32H7xx_HAL_Driver/Src/stm32h7xx_hal_gpio.c ****       }
 710              		.loc 1 345 40 is_stmt 0 view .LVU249
 711 011c 0A4D     		ldr	r5, .L55
 712 011e BC1C     		adds	r4, r7, #2
 713 0120 55F82460 		ldr	r6, [r5, r4, lsl #2]
 714 0124 26EA0E06 		bic	r6, r6, lr
 715 0128 45F82460 		str	r6, [r5, r4, lsl #2]
 716 012c 71E7     		b	.L32
 717              	.LVL57:
 718              	.L51:
 366:Drivers/STM32H7xx_HAL_Driver/Src/stm32h7xx_hal_gpio.c ****   }
 367:Drivers/STM32H7xx_HAL_Driver/Src/stm32h7xx_hal_gpio.c **** }
 719              		.loc 1 367 1 view .LVU250
 720 012e F0BD     		pop	{r4, r5, r6, r7, pc}
 721              	.LVL58:
 722              	.L54:
 723              	.LCFI4:
 724              		.cfi_def_cfa_offset 0
 725              		.cfi_restore 4
 726              		.cfi_restore 5
 727              		.cfi_restore 6
 728              		.cfi_restore 7
 729              		.cfi_restore 14
 365:Drivers/STM32H7xx_HAL_Driver/Src/stm32h7xx_hal_gpio.c ****   }
 730              		.loc 1 365 5 is_stmt 1 view .LVU251
 365:Drivers/STM32H7xx_HAL_Driver/Src/stm32h7xx_hal_gpio.c ****   }
 731              		.loc 1 365 13 is_stmt 0 view .LVU252
 732 0130 0133     		adds	r3, r3, #1
 733              	.LVL59:
 734              	.L45:
 323:Drivers/STM32H7xx_HAL_Driver/Src/stm32h7xx_hal_gpio.c ****   {
 735              		.loc 1 323 9 is_stmt 1 view .LVU253
 736 0132 31FA03F2 		lsrs	r2, r1, r3
 737 0136 06D0     		beq	.L53
 326:Drivers/STM32H7xx_HAL_Driver/Src/stm32h7xx_hal_gpio.c **** 
ARM GAS  C:\Users\root\AppData\Local\Temp\cc7wkqRG.s 			page 23


 738              		.loc 1 326 5 view .LVU254
 326:Drivers/STM32H7xx_HAL_Driver/Src/stm32h7xx_hal_gpio.c **** 
 739              		.loc 1 326 33 is_stmt 0 view .LVU255
 740 0138 0122     		movs	r2, #1
 741 013a 9A40     		lsls	r2, r2, r3
 742              	.LVL60:
 328:Drivers/STM32H7xx_HAL_Driver/Src/stm32h7xx_hal_gpio.c ****     {
 743              		.loc 1 328 5 is_stmt 1 view .LVU256
 328:Drivers/STM32H7xx_HAL_Driver/Src/stm32h7xx_hal_gpio.c ****     {
 744              		.loc 1 328 8 is_stmt 0 view .LVU257
 745 013c 12EA010C 		ands	ip, r2, r1
 746              	.LVL61:
 328:Drivers/STM32H7xx_HAL_Driver/Src/stm32h7xx_hal_gpio.c ****     {
 747              		.loc 1 328 8 view .LVU258
 748 0140 F6D0     		beq	.L54
 306:Drivers/STM32H7xx_HAL_Driver/Src/stm32h7xx_hal_gpio.c ****   uint32_t position = 0x00U;
 749              		.loc 1 306 1 view .LVU259
 750 0142 F0B5     		push	{r4, r5, r6, r7, lr}
 751              	.LCFI5:
 752              		.cfi_def_cfa_offset 20
 753              		.cfi_offset 4, -20
 754              		.cfi_offset 5, -16
 755              		.cfi_offset 6, -12
 756              		.cfi_offset 7, -8
 757              		.cfi_offset 14, -4
 758 0144 91E7     		b	.L46
 759              	.LVL62:
 760              	.L53:
 761              	.LCFI6:
 762              		.cfi_def_cfa_offset 0
 763              		.cfi_restore 4
 764              		.cfi_restore 5
 765              		.cfi_restore 6
 766              		.cfi_restore 7
 767              		.cfi_restore 14
 306:Drivers/STM32H7xx_HAL_Driver/Src/stm32h7xx_hal_gpio.c ****   uint32_t position = 0x00U;
 768              		.loc 1 306 1 view .LVU260
 769 0146 7047     		bx	lr
 770              	.L56:
 771              		.align	2
 772              	.L55:
 773 0148 00040058 		.word	1476396032
 774 014c 00000258 		.word	1476526080
 775 0150 80000058 		.word	1476395136
 776              		.cfi_endproc
 777              	.LFE142:
 779              		.section	.text.HAL_GPIO_ReadPin,"ax",%progbits
 780              		.align	1
 781              		.global	HAL_GPIO_ReadPin
 782              		.syntax unified
 783              		.thumb
 784              		.thumb_func
 785              		.fpu fpv5-d16
 787              	HAL_GPIO_ReadPin:
 788              	.LVL63:
 789              	.LFB143:
 368:Drivers/STM32H7xx_HAL_Driver/Src/stm32h7xx_hal_gpio.c **** 
ARM GAS  C:\Users\root\AppData\Local\Temp\cc7wkqRG.s 			page 24


 369:Drivers/STM32H7xx_HAL_Driver/Src/stm32h7xx_hal_gpio.c **** /**
 370:Drivers/STM32H7xx_HAL_Driver/Src/stm32h7xx_hal_gpio.c ****   * @}
 371:Drivers/STM32H7xx_HAL_Driver/Src/stm32h7xx_hal_gpio.c ****   */
 372:Drivers/STM32H7xx_HAL_Driver/Src/stm32h7xx_hal_gpio.c **** 
 373:Drivers/STM32H7xx_HAL_Driver/Src/stm32h7xx_hal_gpio.c **** /** @defgroup GPIO_Exported_Functions_Group2 IO operation functions
 374:Drivers/STM32H7xx_HAL_Driver/Src/stm32h7xx_hal_gpio.c ****  *  @brief GPIO Read, Write, Toggle, Lock and EXTI management functions.
 375:Drivers/STM32H7xx_HAL_Driver/Src/stm32h7xx_hal_gpio.c ****  *
 376:Drivers/STM32H7xx_HAL_Driver/Src/stm32h7xx_hal_gpio.c **** @verbatim
 377:Drivers/STM32H7xx_HAL_Driver/Src/stm32h7xx_hal_gpio.c ****  ===============================================================================
 378:Drivers/STM32H7xx_HAL_Driver/Src/stm32h7xx_hal_gpio.c ****                        ##### IO operation functions #####
 379:Drivers/STM32H7xx_HAL_Driver/Src/stm32h7xx_hal_gpio.c ****  ===============================================================================
 380:Drivers/STM32H7xx_HAL_Driver/Src/stm32h7xx_hal_gpio.c **** 
 381:Drivers/STM32H7xx_HAL_Driver/Src/stm32h7xx_hal_gpio.c **** @endverbatim
 382:Drivers/STM32H7xx_HAL_Driver/Src/stm32h7xx_hal_gpio.c ****   * @{
 383:Drivers/STM32H7xx_HAL_Driver/Src/stm32h7xx_hal_gpio.c ****   */
 384:Drivers/STM32H7xx_HAL_Driver/Src/stm32h7xx_hal_gpio.c **** 
 385:Drivers/STM32H7xx_HAL_Driver/Src/stm32h7xx_hal_gpio.c **** /**
 386:Drivers/STM32H7xx_HAL_Driver/Src/stm32h7xx_hal_gpio.c ****   * @brief  Reads the specified input port pin.
 387:Drivers/STM32H7xx_HAL_Driver/Src/stm32h7xx_hal_gpio.c ****   * @param  GPIOx: where x can be (A..K) to select the GPIO peripheral.
 388:Drivers/STM32H7xx_HAL_Driver/Src/stm32h7xx_hal_gpio.c ****   * @param  GPIO_Pin: specifies the port bit to read.
 389:Drivers/STM32H7xx_HAL_Driver/Src/stm32h7xx_hal_gpio.c ****   *         This parameter can be GPIO_PIN_x where x can be (0..15).
 390:Drivers/STM32H7xx_HAL_Driver/Src/stm32h7xx_hal_gpio.c ****   * @retval The input port pin value.
 391:Drivers/STM32H7xx_HAL_Driver/Src/stm32h7xx_hal_gpio.c ****   */
 392:Drivers/STM32H7xx_HAL_Driver/Src/stm32h7xx_hal_gpio.c **** GPIO_PinState HAL_GPIO_ReadPin(GPIO_TypeDef *GPIOx, uint16_t GPIO_Pin)
 393:Drivers/STM32H7xx_HAL_Driver/Src/stm32h7xx_hal_gpio.c **** {
 790              		.loc 1 393 1 is_stmt 1 view -0
 791              		.cfi_startproc
 792              		@ args = 0, pretend = 0, frame = 0
 793              		@ frame_needed = 0, uses_anonymous_args = 0
 794              		@ link register save eliminated.
 394:Drivers/STM32H7xx_HAL_Driver/Src/stm32h7xx_hal_gpio.c ****   GPIO_PinState bitstatus;
 795              		.loc 1 394 3 view .LVU262
 395:Drivers/STM32H7xx_HAL_Driver/Src/stm32h7xx_hal_gpio.c **** 
 396:Drivers/STM32H7xx_HAL_Driver/Src/stm32h7xx_hal_gpio.c ****   /* Check the parameters */
 397:Drivers/STM32H7xx_HAL_Driver/Src/stm32h7xx_hal_gpio.c ****   assert_param(IS_GPIO_PIN(GPIO_Pin));
 796              		.loc 1 397 3 view .LVU263
 398:Drivers/STM32H7xx_HAL_Driver/Src/stm32h7xx_hal_gpio.c **** 
 399:Drivers/STM32H7xx_HAL_Driver/Src/stm32h7xx_hal_gpio.c ****   if ((GPIOx->IDR & GPIO_Pin) != 0x00U)
 797              		.loc 1 399 3 view .LVU264
 798              		.loc 1 399 13 is_stmt 0 view .LVU265
 799 0000 0369     		ldr	r3, [r0, #16]
 800              		.loc 1 399 6 view .LVU266
 801 0002 1942     		tst	r1, r3
 802 0004 01D0     		beq	.L59
 400:Drivers/STM32H7xx_HAL_Driver/Src/stm32h7xx_hal_gpio.c ****   {
 401:Drivers/STM32H7xx_HAL_Driver/Src/stm32h7xx_hal_gpio.c ****     bitstatus = GPIO_PIN_SET;
 803              		.loc 1 401 15 view .LVU267
 804 0006 0120     		movs	r0, #1
 805              	.LVL64:
 806              		.loc 1 401 15 view .LVU268
 807 0008 7047     		bx	lr
 808              	.LVL65:
 809              	.L59:
 402:Drivers/STM32H7xx_HAL_Driver/Src/stm32h7xx_hal_gpio.c ****   }
 403:Drivers/STM32H7xx_HAL_Driver/Src/stm32h7xx_hal_gpio.c ****   else
 404:Drivers/STM32H7xx_HAL_Driver/Src/stm32h7xx_hal_gpio.c ****   {
 405:Drivers/STM32H7xx_HAL_Driver/Src/stm32h7xx_hal_gpio.c ****     bitstatus = GPIO_PIN_RESET;
ARM GAS  C:\Users\root\AppData\Local\Temp\cc7wkqRG.s 			page 25


 810              		.loc 1 405 15 view .LVU269
 811 000a 0020     		movs	r0, #0
 812              	.LVL66:
 406:Drivers/STM32H7xx_HAL_Driver/Src/stm32h7xx_hal_gpio.c ****   }
 407:Drivers/STM32H7xx_HAL_Driver/Src/stm32h7xx_hal_gpio.c ****   return bitstatus;
 813              		.loc 1 407 3 is_stmt 1 view .LVU270
 408:Drivers/STM32H7xx_HAL_Driver/Src/stm32h7xx_hal_gpio.c **** }
 814              		.loc 1 408 1 is_stmt 0 view .LVU271
 815 000c 7047     		bx	lr
 816              		.cfi_endproc
 817              	.LFE143:
 819              		.section	.text.HAL_GPIO_WritePin,"ax",%progbits
 820              		.align	1
 821              		.global	HAL_GPIO_WritePin
 822              		.syntax unified
 823              		.thumb
 824              		.thumb_func
 825              		.fpu fpv5-d16
 827              	HAL_GPIO_WritePin:
 828              	.LVL67:
 829              	.LFB144:
 409:Drivers/STM32H7xx_HAL_Driver/Src/stm32h7xx_hal_gpio.c **** 
 410:Drivers/STM32H7xx_HAL_Driver/Src/stm32h7xx_hal_gpio.c **** /**
 411:Drivers/STM32H7xx_HAL_Driver/Src/stm32h7xx_hal_gpio.c ****   * @brief  Sets or clears the selected data port bit.
 412:Drivers/STM32H7xx_HAL_Driver/Src/stm32h7xx_hal_gpio.c ****   *
 413:Drivers/STM32H7xx_HAL_Driver/Src/stm32h7xx_hal_gpio.c ****   * @note   This function uses GPIOx_BSRR register to allow atomic read/modify
 414:Drivers/STM32H7xx_HAL_Driver/Src/stm32h7xx_hal_gpio.c ****   *         accesses. In this way, there is no risk of an IRQ occurring between
 415:Drivers/STM32H7xx_HAL_Driver/Src/stm32h7xx_hal_gpio.c ****   *         the read and the modify access.
 416:Drivers/STM32H7xx_HAL_Driver/Src/stm32h7xx_hal_gpio.c ****   *
 417:Drivers/STM32H7xx_HAL_Driver/Src/stm32h7xx_hal_gpio.c ****   * @param  GPIOx: where x can be (A..K) to select the GPIO peripheral.
 418:Drivers/STM32H7xx_HAL_Driver/Src/stm32h7xx_hal_gpio.c ****   * @param  GPIO_Pin: specifies the port bit to be written.
 419:Drivers/STM32H7xx_HAL_Driver/Src/stm32h7xx_hal_gpio.c ****   *          This parameter can be one of GPIO_PIN_x where x can be (0..15).
 420:Drivers/STM32H7xx_HAL_Driver/Src/stm32h7xx_hal_gpio.c ****   * @param  PinState: specifies the value to be written to the selected bit.
 421:Drivers/STM32H7xx_HAL_Driver/Src/stm32h7xx_hal_gpio.c ****   *          This parameter can be one of the GPIO_PinState enum values:
 422:Drivers/STM32H7xx_HAL_Driver/Src/stm32h7xx_hal_gpio.c ****   *            @arg GPIO_PIN_RESET: to clear the port pin
 423:Drivers/STM32H7xx_HAL_Driver/Src/stm32h7xx_hal_gpio.c ****   *            @arg GPIO_PIN_SET: to set the port pin
 424:Drivers/STM32H7xx_HAL_Driver/Src/stm32h7xx_hal_gpio.c ****   * @retval None
 425:Drivers/STM32H7xx_HAL_Driver/Src/stm32h7xx_hal_gpio.c ****   */
 426:Drivers/STM32H7xx_HAL_Driver/Src/stm32h7xx_hal_gpio.c **** void HAL_GPIO_WritePin(GPIO_TypeDef *GPIOx, uint16_t GPIO_Pin, GPIO_PinState PinState)
 427:Drivers/STM32H7xx_HAL_Driver/Src/stm32h7xx_hal_gpio.c **** {
 830              		.loc 1 427 1 is_stmt 1 view -0
 831              		.cfi_startproc
 832              		@ args = 0, pretend = 0, frame = 0
 833              		@ frame_needed = 0, uses_anonymous_args = 0
 834              		@ link register save eliminated.
 428:Drivers/STM32H7xx_HAL_Driver/Src/stm32h7xx_hal_gpio.c ****   /* Check the parameters */
 429:Drivers/STM32H7xx_HAL_Driver/Src/stm32h7xx_hal_gpio.c ****   assert_param(IS_GPIO_PIN(GPIO_Pin));
 835              		.loc 1 429 3 view .LVU273
 430:Drivers/STM32H7xx_HAL_Driver/Src/stm32h7xx_hal_gpio.c ****   assert_param(IS_GPIO_PIN_ACTION(PinState));
 836              		.loc 1 430 3 view .LVU274
 431:Drivers/STM32H7xx_HAL_Driver/Src/stm32h7xx_hal_gpio.c **** 
 432:Drivers/STM32H7xx_HAL_Driver/Src/stm32h7xx_hal_gpio.c ****   if (PinState != GPIO_PIN_RESET)
 837              		.loc 1 432 3 view .LVU275
 838              		.loc 1 432 6 is_stmt 0 view .LVU276
 839 0000 0AB1     		cbz	r2, .L61
 433:Drivers/STM32H7xx_HAL_Driver/Src/stm32h7xx_hal_gpio.c ****   {
 434:Drivers/STM32H7xx_HAL_Driver/Src/stm32h7xx_hal_gpio.c ****     GPIOx->BSRR = GPIO_Pin;
ARM GAS  C:\Users\root\AppData\Local\Temp\cc7wkqRG.s 			page 26


 840              		.loc 1 434 5 is_stmt 1 view .LVU277
 841              		.loc 1 434 17 is_stmt 0 view .LVU278
 842 0002 8161     		str	r1, [r0, #24]
 843 0004 7047     		bx	lr
 844              	.L61:
 435:Drivers/STM32H7xx_HAL_Driver/Src/stm32h7xx_hal_gpio.c ****   }
 436:Drivers/STM32H7xx_HAL_Driver/Src/stm32h7xx_hal_gpio.c ****   else
 437:Drivers/STM32H7xx_HAL_Driver/Src/stm32h7xx_hal_gpio.c ****   {
 438:Drivers/STM32H7xx_HAL_Driver/Src/stm32h7xx_hal_gpio.c ****     GPIOx->BSRR = (uint32_t)GPIO_Pin << GPIO_NUMBER;
 845              		.loc 1 438 5 is_stmt 1 view .LVU279
 846              		.loc 1 438 38 is_stmt 0 view .LVU280
 847 0006 0904     		lsls	r1, r1, #16
 848              	.LVL68:
 849              		.loc 1 438 17 view .LVU281
 850 0008 8161     		str	r1, [r0, #24]
 439:Drivers/STM32H7xx_HAL_Driver/Src/stm32h7xx_hal_gpio.c ****   }
 440:Drivers/STM32H7xx_HAL_Driver/Src/stm32h7xx_hal_gpio.c **** }
 851              		.loc 1 440 1 view .LVU282
 852 000a 7047     		bx	lr
 853              		.cfi_endproc
 854              	.LFE144:
 856              		.section	.text.HAL_GPIO_TogglePin,"ax",%progbits
 857              		.align	1
 858              		.global	HAL_GPIO_TogglePin
 859              		.syntax unified
 860              		.thumb
 861              		.thumb_func
 862              		.fpu fpv5-d16
 864              	HAL_GPIO_TogglePin:
 865              	.LVL69:
 866              	.LFB145:
 441:Drivers/STM32H7xx_HAL_Driver/Src/stm32h7xx_hal_gpio.c **** 
 442:Drivers/STM32H7xx_HAL_Driver/Src/stm32h7xx_hal_gpio.c **** /**
 443:Drivers/STM32H7xx_HAL_Driver/Src/stm32h7xx_hal_gpio.c ****   * @brief  Toggles the specified GPIO pins.
 444:Drivers/STM32H7xx_HAL_Driver/Src/stm32h7xx_hal_gpio.c ****   * @param  GPIOx: Where x can be (A..K) to select the GPIO peripheral.
 445:Drivers/STM32H7xx_HAL_Driver/Src/stm32h7xx_hal_gpio.c ****   * @param  GPIO_Pin: Specifies the pins to be toggled.
 446:Drivers/STM32H7xx_HAL_Driver/Src/stm32h7xx_hal_gpio.c ****   * @retval None
 447:Drivers/STM32H7xx_HAL_Driver/Src/stm32h7xx_hal_gpio.c ****   */
 448:Drivers/STM32H7xx_HAL_Driver/Src/stm32h7xx_hal_gpio.c **** void HAL_GPIO_TogglePin(GPIO_TypeDef *GPIOx, uint16_t GPIO_Pin)
 449:Drivers/STM32H7xx_HAL_Driver/Src/stm32h7xx_hal_gpio.c **** {
 867              		.loc 1 449 1 is_stmt 1 view -0
 868              		.cfi_startproc
 869              		@ args = 0, pretend = 0, frame = 0
 870              		@ frame_needed = 0, uses_anonymous_args = 0
 871              		@ link register save eliminated.
 450:Drivers/STM32H7xx_HAL_Driver/Src/stm32h7xx_hal_gpio.c ****   /* Check the parameters */
 451:Drivers/STM32H7xx_HAL_Driver/Src/stm32h7xx_hal_gpio.c ****   assert_param(IS_GPIO_PIN(GPIO_Pin));
 872              		.loc 1 451 3 view .LVU284
 452:Drivers/STM32H7xx_HAL_Driver/Src/stm32h7xx_hal_gpio.c **** 
 453:Drivers/STM32H7xx_HAL_Driver/Src/stm32h7xx_hal_gpio.c ****   if ((GPIOx->ODR & GPIO_Pin) == GPIO_Pin)
 873              		.loc 1 453 3 view .LVU285
 874              		.loc 1 453 13 is_stmt 0 view .LVU286
 875 0000 4369     		ldr	r3, [r0, #20]
 876              		.loc 1 453 6 view .LVU287
 877 0002 31EA0303 		bics	r3, r1, r3
 878 0006 01D0     		beq	.L66
 454:Drivers/STM32H7xx_HAL_Driver/Src/stm32h7xx_hal_gpio.c ****   {
ARM GAS  C:\Users\root\AppData\Local\Temp\cc7wkqRG.s 			page 27


 455:Drivers/STM32H7xx_HAL_Driver/Src/stm32h7xx_hal_gpio.c ****     GPIOx->BSRR = (uint32_t)GPIO_Pin << GPIO_NUMBER;
 456:Drivers/STM32H7xx_HAL_Driver/Src/stm32h7xx_hal_gpio.c ****   }
 457:Drivers/STM32H7xx_HAL_Driver/Src/stm32h7xx_hal_gpio.c ****   else
 458:Drivers/STM32H7xx_HAL_Driver/Src/stm32h7xx_hal_gpio.c ****   {
 459:Drivers/STM32H7xx_HAL_Driver/Src/stm32h7xx_hal_gpio.c ****     GPIOx->BSRR = GPIO_Pin;
 879              		.loc 1 459 5 is_stmt 1 view .LVU288
 880              		.loc 1 459 17 is_stmt 0 view .LVU289
 881 0008 8161     		str	r1, [r0, #24]
 460:Drivers/STM32H7xx_HAL_Driver/Src/stm32h7xx_hal_gpio.c ****   }
 461:Drivers/STM32H7xx_HAL_Driver/Src/stm32h7xx_hal_gpio.c **** }
 882              		.loc 1 461 1 view .LVU290
 883 000a 7047     		bx	lr
 884              	.L66:
 455:Drivers/STM32H7xx_HAL_Driver/Src/stm32h7xx_hal_gpio.c ****   }
 885              		.loc 1 455 5 is_stmt 1 view .LVU291
 455:Drivers/STM32H7xx_HAL_Driver/Src/stm32h7xx_hal_gpio.c ****   }
 886              		.loc 1 455 38 is_stmt 0 view .LVU292
 887 000c 0904     		lsls	r1, r1, #16
 888              	.LVL70:
 455:Drivers/STM32H7xx_HAL_Driver/Src/stm32h7xx_hal_gpio.c ****   }
 889              		.loc 1 455 17 view .LVU293
 890 000e 8161     		str	r1, [r0, #24]
 891 0010 7047     		bx	lr
 892              		.cfi_endproc
 893              	.LFE145:
 895              		.section	.text.HAL_GPIO_LockPin,"ax",%progbits
 896              		.align	1
 897              		.global	HAL_GPIO_LockPin
 898              		.syntax unified
 899              		.thumb
 900              		.thumb_func
 901              		.fpu fpv5-d16
 903              	HAL_GPIO_LockPin:
 904              	.LVL71:
 905              	.LFB146:
 462:Drivers/STM32H7xx_HAL_Driver/Src/stm32h7xx_hal_gpio.c **** 
 463:Drivers/STM32H7xx_HAL_Driver/Src/stm32h7xx_hal_gpio.c **** /**
 464:Drivers/STM32H7xx_HAL_Driver/Src/stm32h7xx_hal_gpio.c ****   * @brief  Locks GPIO Pins configuration registers.
 465:Drivers/STM32H7xx_HAL_Driver/Src/stm32h7xx_hal_gpio.c ****   * @note   The locked registers are GPIOx_MODER, GPIOx_OTYPER, GPIOx_OSPEEDR,
 466:Drivers/STM32H7xx_HAL_Driver/Src/stm32h7xx_hal_gpio.c ****   *         GPIOx_PUPDR, GPIOx_AFRL and GPIOx_AFRH.
 467:Drivers/STM32H7xx_HAL_Driver/Src/stm32h7xx_hal_gpio.c ****   * @note   The configuration of the locked GPIO pins can no longer be modified
 468:Drivers/STM32H7xx_HAL_Driver/Src/stm32h7xx_hal_gpio.c ****   *         until the next reset.
 469:Drivers/STM32H7xx_HAL_Driver/Src/stm32h7xx_hal_gpio.c ****   * @param  GPIOx: where x can be (A..K) to select the GPIO peripheral for STM32H7 family
 470:Drivers/STM32H7xx_HAL_Driver/Src/stm32h7xx_hal_gpio.c ****   * @param  GPIO_Pin: specifies the port bit to be locked.
 471:Drivers/STM32H7xx_HAL_Driver/Src/stm32h7xx_hal_gpio.c ****   *         This parameter can be any combination of GPIO_PIN_x where x can be (0..15).
 472:Drivers/STM32H7xx_HAL_Driver/Src/stm32h7xx_hal_gpio.c ****   * @retval None
 473:Drivers/STM32H7xx_HAL_Driver/Src/stm32h7xx_hal_gpio.c ****   */
 474:Drivers/STM32H7xx_HAL_Driver/Src/stm32h7xx_hal_gpio.c **** HAL_StatusTypeDef HAL_GPIO_LockPin(GPIO_TypeDef *GPIOx, uint16_t GPIO_Pin)
 475:Drivers/STM32H7xx_HAL_Driver/Src/stm32h7xx_hal_gpio.c **** {
 906              		.loc 1 475 1 is_stmt 1 view -0
 907              		.cfi_startproc
 908              		@ args = 0, pretend = 0, frame = 8
 909              		@ frame_needed = 0, uses_anonymous_args = 0
 910              		@ link register save eliminated.
 911              		.loc 1 475 1 is_stmt 0 view .LVU295
 912 0000 82B0     		sub	sp, sp, #8
 913              	.LCFI7:
ARM GAS  C:\Users\root\AppData\Local\Temp\cc7wkqRG.s 			page 28


 914              		.cfi_def_cfa_offset 8
 476:Drivers/STM32H7xx_HAL_Driver/Src/stm32h7xx_hal_gpio.c ****   __IO uint32_t tmp = GPIO_LCKR_LCKK;
 915              		.loc 1 476 3 is_stmt 1 view .LVU296
 916              		.loc 1 476 17 is_stmt 0 view .LVU297
 917 0002 4FF48033 		mov	r3, #65536
 918 0006 0193     		str	r3, [sp, #4]
 477:Drivers/STM32H7xx_HAL_Driver/Src/stm32h7xx_hal_gpio.c **** 
 478:Drivers/STM32H7xx_HAL_Driver/Src/stm32h7xx_hal_gpio.c ****   /* Check the parameters */
 479:Drivers/STM32H7xx_HAL_Driver/Src/stm32h7xx_hal_gpio.c ****   assert_param(IS_GPIO_LOCK_INSTANCE(GPIOx));
 919              		.loc 1 479 3 is_stmt 1 view .LVU298
 480:Drivers/STM32H7xx_HAL_Driver/Src/stm32h7xx_hal_gpio.c ****   assert_param(IS_GPIO_PIN(GPIO_Pin));
 920              		.loc 1 480 3 view .LVU299
 481:Drivers/STM32H7xx_HAL_Driver/Src/stm32h7xx_hal_gpio.c **** 
 482:Drivers/STM32H7xx_HAL_Driver/Src/stm32h7xx_hal_gpio.c ****   /* Apply lock key write sequence */
 483:Drivers/STM32H7xx_HAL_Driver/Src/stm32h7xx_hal_gpio.c ****   tmp |= GPIO_Pin;
 921              		.loc 1 483 3 view .LVU300
 922              		.loc 1 483 7 is_stmt 0 view .LVU301
 923 0008 019B     		ldr	r3, [sp, #4]
 924 000a 0B43     		orrs	r3, r3, r1
 925 000c 0193     		str	r3, [sp, #4]
 484:Drivers/STM32H7xx_HAL_Driver/Src/stm32h7xx_hal_gpio.c ****   /* Set LCKx bit(s): LCKK='1' + LCK[15-0] */
 485:Drivers/STM32H7xx_HAL_Driver/Src/stm32h7xx_hal_gpio.c ****   GPIOx->LCKR = tmp;
 926              		.loc 1 485 3 is_stmt 1 view .LVU302
 927              		.loc 1 485 15 is_stmt 0 view .LVU303
 928 000e 019B     		ldr	r3, [sp, #4]
 929 0010 C361     		str	r3, [r0, #28]
 486:Drivers/STM32H7xx_HAL_Driver/Src/stm32h7xx_hal_gpio.c ****   /* Reset LCKx bit(s): LCKK='0' + LCK[15-0] */
 487:Drivers/STM32H7xx_HAL_Driver/Src/stm32h7xx_hal_gpio.c ****   GPIOx->LCKR = GPIO_Pin;
 930              		.loc 1 487 3 is_stmt 1 view .LVU304
 931              		.loc 1 487 15 is_stmt 0 view .LVU305
 932 0012 C161     		str	r1, [r0, #28]
 488:Drivers/STM32H7xx_HAL_Driver/Src/stm32h7xx_hal_gpio.c ****   /* Set LCKx bit(s): LCKK='1' + LCK[15-0] */
 489:Drivers/STM32H7xx_HAL_Driver/Src/stm32h7xx_hal_gpio.c ****   GPIOx->LCKR = tmp;
 933              		.loc 1 489 3 is_stmt 1 view .LVU306
 934              		.loc 1 489 15 is_stmt 0 view .LVU307
 935 0014 019B     		ldr	r3, [sp, #4]
 936 0016 C361     		str	r3, [r0, #28]
 490:Drivers/STM32H7xx_HAL_Driver/Src/stm32h7xx_hal_gpio.c ****   /* Read LCKK register. This read is mandatory to complete key lock sequence*/
 491:Drivers/STM32H7xx_HAL_Driver/Src/stm32h7xx_hal_gpio.c ****   tmp = GPIOx->LCKR;
 937              		.loc 1 491 3 is_stmt 1 view .LVU308
 938              		.loc 1 491 14 is_stmt 0 view .LVU309
 939 0018 C369     		ldr	r3, [r0, #28]
 940              		.loc 1 491 7 view .LVU310
 941 001a 0193     		str	r3, [sp, #4]
 492:Drivers/STM32H7xx_HAL_Driver/Src/stm32h7xx_hal_gpio.c **** 
 493:Drivers/STM32H7xx_HAL_Driver/Src/stm32h7xx_hal_gpio.c ****   /* read again in order to confirm lock is active */
 494:Drivers/STM32H7xx_HAL_Driver/Src/stm32h7xx_hal_gpio.c ****   if ((GPIOx->LCKR & GPIO_LCKR_LCKK) != 0x00U)
 942              		.loc 1 494 3 is_stmt 1 view .LVU311
 943              		.loc 1 494 13 is_stmt 0 view .LVU312
 944 001c C369     		ldr	r3, [r0, #28]
 945              		.loc 1 494 6 view .LVU313
 946 001e 13F4803F 		tst	r3, #65536
 947 0022 02D0     		beq	.L69
 495:Drivers/STM32H7xx_HAL_Driver/Src/stm32h7xx_hal_gpio.c ****   {
 496:Drivers/STM32H7xx_HAL_Driver/Src/stm32h7xx_hal_gpio.c ****     return HAL_OK;
 948              		.loc 1 496 12 view .LVU314
 949 0024 0020     		movs	r0, #0
ARM GAS  C:\Users\root\AppData\Local\Temp\cc7wkqRG.s 			page 29


 950              	.LVL72:
 951              	.L68:
 497:Drivers/STM32H7xx_HAL_Driver/Src/stm32h7xx_hal_gpio.c ****   }
 498:Drivers/STM32H7xx_HAL_Driver/Src/stm32h7xx_hal_gpio.c ****   else
 499:Drivers/STM32H7xx_HAL_Driver/Src/stm32h7xx_hal_gpio.c ****   {
 500:Drivers/STM32H7xx_HAL_Driver/Src/stm32h7xx_hal_gpio.c ****     return HAL_ERROR;
 501:Drivers/STM32H7xx_HAL_Driver/Src/stm32h7xx_hal_gpio.c ****   }
 502:Drivers/STM32H7xx_HAL_Driver/Src/stm32h7xx_hal_gpio.c **** }
 952              		.loc 1 502 1 view .LVU315
 953 0026 02B0     		add	sp, sp, #8
 954              	.LCFI8:
 955              		.cfi_remember_state
 956              		.cfi_def_cfa_offset 0
 957              		@ sp needed
 958 0028 7047     		bx	lr
 959              	.LVL73:
 960              	.L69:
 961              	.LCFI9:
 962              		.cfi_restore_state
 500:Drivers/STM32H7xx_HAL_Driver/Src/stm32h7xx_hal_gpio.c ****   }
 963              		.loc 1 500 12 view .LVU316
 964 002a 0120     		movs	r0, #1
 965              	.LVL74:
 500:Drivers/STM32H7xx_HAL_Driver/Src/stm32h7xx_hal_gpio.c ****   }
 966              		.loc 1 500 12 view .LVU317
 967 002c FBE7     		b	.L68
 968              		.cfi_endproc
 969              	.LFE146:
 971              		.section	.text.HAL_GPIO_EXTI_Callback,"ax",%progbits
 972              		.align	1
 973              		.weak	HAL_GPIO_EXTI_Callback
 974              		.syntax unified
 975              		.thumb
 976              		.thumb_func
 977              		.fpu fpv5-d16
 979              	HAL_GPIO_EXTI_Callback:
 980              	.LVL75:
 981              	.LFB148:
 503:Drivers/STM32H7xx_HAL_Driver/Src/stm32h7xx_hal_gpio.c **** 
 504:Drivers/STM32H7xx_HAL_Driver/Src/stm32h7xx_hal_gpio.c **** /**
 505:Drivers/STM32H7xx_HAL_Driver/Src/stm32h7xx_hal_gpio.c ****   * @brief  Handle EXTI interrupt request.
 506:Drivers/STM32H7xx_HAL_Driver/Src/stm32h7xx_hal_gpio.c ****   * @param  GPIO_Pin: Specifies the port pin connected to corresponding EXTI line.
 507:Drivers/STM32H7xx_HAL_Driver/Src/stm32h7xx_hal_gpio.c ****   * @retval None
 508:Drivers/STM32H7xx_HAL_Driver/Src/stm32h7xx_hal_gpio.c ****   */
 509:Drivers/STM32H7xx_HAL_Driver/Src/stm32h7xx_hal_gpio.c **** void HAL_GPIO_EXTI_IRQHandler(uint16_t GPIO_Pin)
 510:Drivers/STM32H7xx_HAL_Driver/Src/stm32h7xx_hal_gpio.c **** {
 511:Drivers/STM32H7xx_HAL_Driver/Src/stm32h7xx_hal_gpio.c **** #if defined(DUAL_CORE) && defined(CORE_CM4)
 512:Drivers/STM32H7xx_HAL_Driver/Src/stm32h7xx_hal_gpio.c ****   if (__HAL_GPIO_EXTID2_GET_IT(GPIO_Pin) != 0x00U)
 513:Drivers/STM32H7xx_HAL_Driver/Src/stm32h7xx_hal_gpio.c ****   {
 514:Drivers/STM32H7xx_HAL_Driver/Src/stm32h7xx_hal_gpio.c ****     __HAL_GPIO_EXTID2_CLEAR_IT(GPIO_Pin);
 515:Drivers/STM32H7xx_HAL_Driver/Src/stm32h7xx_hal_gpio.c ****     HAL_GPIO_EXTI_Callback(GPIO_Pin);
 516:Drivers/STM32H7xx_HAL_Driver/Src/stm32h7xx_hal_gpio.c ****   }
 517:Drivers/STM32H7xx_HAL_Driver/Src/stm32h7xx_hal_gpio.c **** #else
 518:Drivers/STM32H7xx_HAL_Driver/Src/stm32h7xx_hal_gpio.c ****   /* EXTI line interrupt detected */
 519:Drivers/STM32H7xx_HAL_Driver/Src/stm32h7xx_hal_gpio.c ****   if (__HAL_GPIO_EXTI_GET_IT(GPIO_Pin) != 0x00U)
 520:Drivers/STM32H7xx_HAL_Driver/Src/stm32h7xx_hal_gpio.c ****   {
 521:Drivers/STM32H7xx_HAL_Driver/Src/stm32h7xx_hal_gpio.c ****     __HAL_GPIO_EXTI_CLEAR_IT(GPIO_Pin);
ARM GAS  C:\Users\root\AppData\Local\Temp\cc7wkqRG.s 			page 30


 522:Drivers/STM32H7xx_HAL_Driver/Src/stm32h7xx_hal_gpio.c ****     HAL_GPIO_EXTI_Callback(GPIO_Pin);
 523:Drivers/STM32H7xx_HAL_Driver/Src/stm32h7xx_hal_gpio.c ****   }
 524:Drivers/STM32H7xx_HAL_Driver/Src/stm32h7xx_hal_gpio.c **** #endif
 525:Drivers/STM32H7xx_HAL_Driver/Src/stm32h7xx_hal_gpio.c **** }
 526:Drivers/STM32H7xx_HAL_Driver/Src/stm32h7xx_hal_gpio.c **** 
 527:Drivers/STM32H7xx_HAL_Driver/Src/stm32h7xx_hal_gpio.c **** /**
 528:Drivers/STM32H7xx_HAL_Driver/Src/stm32h7xx_hal_gpio.c ****   * @brief  EXTI line detection callback.
 529:Drivers/STM32H7xx_HAL_Driver/Src/stm32h7xx_hal_gpio.c ****   * @param  GPIO_Pin: Specifies the port pin connected to corresponding EXTI line.
 530:Drivers/STM32H7xx_HAL_Driver/Src/stm32h7xx_hal_gpio.c ****   * @retval None
 531:Drivers/STM32H7xx_HAL_Driver/Src/stm32h7xx_hal_gpio.c ****   */
 532:Drivers/STM32H7xx_HAL_Driver/Src/stm32h7xx_hal_gpio.c **** __weak void HAL_GPIO_EXTI_Callback(uint16_t GPIO_Pin)
 533:Drivers/STM32H7xx_HAL_Driver/Src/stm32h7xx_hal_gpio.c **** {
 982              		.loc 1 533 1 is_stmt 1 view -0
 983              		.cfi_startproc
 984              		@ args = 0, pretend = 0, frame = 0
 985              		@ frame_needed = 0, uses_anonymous_args = 0
 986              		@ link register save eliminated.
 534:Drivers/STM32H7xx_HAL_Driver/Src/stm32h7xx_hal_gpio.c ****   /* Prevent unused argument(s) compilation warning */
 535:Drivers/STM32H7xx_HAL_Driver/Src/stm32h7xx_hal_gpio.c ****   UNUSED(GPIO_Pin);
 987              		.loc 1 535 3 view .LVU319
 536:Drivers/STM32H7xx_HAL_Driver/Src/stm32h7xx_hal_gpio.c **** 
 537:Drivers/STM32H7xx_HAL_Driver/Src/stm32h7xx_hal_gpio.c ****   /* NOTE: This function Should not be modified, when the callback is needed,
 538:Drivers/STM32H7xx_HAL_Driver/Src/stm32h7xx_hal_gpio.c ****            the HAL_GPIO_EXTI_Callback could be implemented in the user file
 539:Drivers/STM32H7xx_HAL_Driver/Src/stm32h7xx_hal_gpio.c ****    */
 540:Drivers/STM32H7xx_HAL_Driver/Src/stm32h7xx_hal_gpio.c **** }
 988              		.loc 1 540 1 is_stmt 0 view .LVU320
 989 0000 7047     		bx	lr
 990              		.cfi_endproc
 991              	.LFE148:
 993              		.section	.text.HAL_GPIO_EXTI_IRQHandler,"ax",%progbits
 994              		.align	1
 995              		.global	HAL_GPIO_EXTI_IRQHandler
 996              		.syntax unified
 997              		.thumb
 998              		.thumb_func
 999              		.fpu fpv5-d16
 1001              	HAL_GPIO_EXTI_IRQHandler:
 1002              	.LVL76:
 1003              	.LFB147:
 510:Drivers/STM32H7xx_HAL_Driver/Src/stm32h7xx_hal_gpio.c **** #if defined(DUAL_CORE) && defined(CORE_CM4)
 1004              		.loc 1 510 1 is_stmt 1 view -0
 1005              		.cfi_startproc
 1006              		@ args = 0, pretend = 0, frame = 0
 1007              		@ frame_needed = 0, uses_anonymous_args = 0
 510:Drivers/STM32H7xx_HAL_Driver/Src/stm32h7xx_hal_gpio.c **** #if defined(DUAL_CORE) && defined(CORE_CM4)
 1008              		.loc 1 510 1 is_stmt 0 view .LVU322
 1009 0000 08B5     		push	{r3, lr}
 1010              	.LCFI10:
 1011              		.cfi_def_cfa_offset 8
 1012              		.cfi_offset 3, -8
 1013              		.cfi_offset 14, -4
 519:Drivers/STM32H7xx_HAL_Driver/Src/stm32h7xx_hal_gpio.c ****   {
 1014              		.loc 1 519 3 is_stmt 1 view .LVU323
 519:Drivers/STM32H7xx_HAL_Driver/Src/stm32h7xx_hal_gpio.c ****   {
 1015              		.loc 1 519 7 is_stmt 0 view .LVU324
 1016 0002 4FF0B043 		mov	r3, #1476395008
 1017 0006 D3F88830 		ldr	r3, [r3, #136]
ARM GAS  C:\Users\root\AppData\Local\Temp\cc7wkqRG.s 			page 31


 519:Drivers/STM32H7xx_HAL_Driver/Src/stm32h7xx_hal_gpio.c ****   {
 1018              		.loc 1 519 6 view .LVU325
 1019 000a 0342     		tst	r3, r0
 1020 000c 00D1     		bne	.L75
 1021              	.LVL77:
 1022              	.L72:
 525:Drivers/STM32H7xx_HAL_Driver/Src/stm32h7xx_hal_gpio.c **** 
 1023              		.loc 1 525 1 view .LVU326
 1024 000e 08BD     		pop	{r3, pc}
 1025              	.LVL78:
 1026              	.L75:
 521:Drivers/STM32H7xx_HAL_Driver/Src/stm32h7xx_hal_gpio.c ****     HAL_GPIO_EXTI_Callback(GPIO_Pin);
 1027              		.loc 1 521 5 is_stmt 1 view .LVU327
 1028 0010 4FF0B043 		mov	r3, #1476395008
 1029 0014 C3F88800 		str	r0, [r3, #136]
 522:Drivers/STM32H7xx_HAL_Driver/Src/stm32h7xx_hal_gpio.c ****   }
 1030              		.loc 1 522 5 view .LVU328
 1031 0018 FFF7FEFF 		bl	HAL_GPIO_EXTI_Callback
 1032              	.LVL79:
 525:Drivers/STM32H7xx_HAL_Driver/Src/stm32h7xx_hal_gpio.c **** 
 1033              		.loc 1 525 1 is_stmt 0 view .LVU329
 1034 001c F7E7     		b	.L72
 1035              		.cfi_endproc
 1036              	.LFE147:
 1038              		.text
 1039              	.Letext0:
 1040              		.file 2 "c:\\program files (x86)\\gnu arm embedded toolchain\\9 2020-q2-update\\arm-none-eabi\\inc
 1041              		.file 3 "c:\\program files (x86)\\gnu arm embedded toolchain\\9 2020-q2-update\\arm-none-eabi\\inc
 1042              		.file 4 "Drivers/CMSIS/Include/core_cm7.h"
 1043              		.file 5 "Drivers/CMSIS/Device/ST/STM32H7xx/Include/system_stm32h7xx.h"
 1044              		.file 6 "Drivers/CMSIS/Device/ST/STM32H7xx/Include/stm32h743xx.h"
 1045              		.file 7 "c:\\program files (x86)\\gnu arm embedded toolchain\\9 2020-q2-update\\lib\\gcc\\arm-none
 1046              		.file 8 "c:\\program files (x86)\\gnu arm embedded toolchain\\9 2020-q2-update\\arm-none-eabi\\inc
 1047              		.file 9 "c:\\program files (x86)\\gnu arm embedded toolchain\\9 2020-q2-update\\arm-none-eabi\\inc
 1048              		.file 10 "c:\\program files (x86)\\gnu arm embedded toolchain\\9 2020-q2-update\\arm-none-eabi\\in
 1049              		.file 11 "c:\\program files (x86)\\gnu arm embedded toolchain\\9 2020-q2-update\\arm-none-eabi\\in
 1050              		.file 12 "Drivers/STM32H7xx_HAL_Driver/Inc/stm32h7xx_hal_def.h"
 1051              		.file 13 "Drivers/STM32H7xx_HAL_Driver/Inc/stm32h7xx_hal_gpio.h"
 1052              		.file 14 "Drivers/STM32H7xx_HAL_Driver/Inc/stm32h7xx_hal_flash.h"
 1053              		.file 15 "Drivers/STM32H7xx_HAL_Driver/Inc/stm32h7xx_hal_uart.h"
 1054              		.file 16 "Drivers/STM32H7xx_HAL_Driver/Inc/stm32h7xx_hal.h"
ARM GAS  C:\Users\root\AppData\Local\Temp\cc7wkqRG.s 			page 32

